
ps2_MSS_MSS_CM3_0_app:     file format elf32-littlearm

Sections:
Idx Name          Size      VMA       LMA       File off  Algn
  0 .text         00009870  20000000  20000000  00008000  2**4
                  CONTENTS, ALLOC, LOAD, READONLY, CODE
  1 .ARM.exidx    00000008  20009870  20009870  00011870  2**2
                  CONTENTS, ALLOC, LOAD, READONLY, DATA
  2 .data         00000578  20009878  20009878  00011878  2**2
                  CONTENTS, ALLOC, LOAD, DATA
  3 .bss          00002118  20009df0  20009df0  00011df0  2**2
                  ALLOC
  4 .stack        00003000  2000bf08  2000bf08  00011df0  2**0
                  ALLOC
  5 .comment      000001d9  00000000  00000000  00011df0  2**0
                  CONTENTS, READONLY
  6 .debug_aranges 000000b8  00000000  00000000  00011fc9  2**0
                  CONTENTS, READONLY, DEBUGGING
  7 .debug_pubnames 00000391  00000000  00000000  00012081  2**0
                  CONTENTS, READONLY, DEBUGGING
  8 .debug_info   00001669  00000000  00000000  00012412  2**0
                  CONTENTS, READONLY, DEBUGGING
  9 .debug_abbrev 00000359  00000000  00000000  00013a7b  2**0
                  CONTENTS, READONLY, DEBUGGING
 10 .debug_line   00000b2b  00000000  00000000  00013dd4  2**0
                  CONTENTS, READONLY, DEBUGGING
 11 .debug_frame  00000da8  00000000  00000000  00014900  2**2
                  CONTENTS, READONLY, DEBUGGING
 12 .debug_str    000017c6  00000000  00000000  000156a8  2**0
                  CONTENTS, READONLY, DEBUGGING
 13 .debug_loc    0000029a  00000000  00000000  00016e6e  2**0
                  CONTENTS, READONLY, DEBUGGING
 14 .debug_macinfo 0000f195  00000000  00000000  00017108  2**0
                  CONTENTS, READONLY, DEBUGGING
 15 .ARM.attributes 00000025  00000000  00000000  0002629d  2**0
                  CONTENTS, READONLY
 16 .debug_ranges 000000a8  00000000  00000000  000262c2  2**0
                  CONTENTS, READONLY, DEBUGGING

Disassembly of section .text:

20000000 <__text_start>:
20000000:	20010000 	.word	0x20010000
20000004:	20000299 	.word	0x20000299
20000008:	20000309 	.word	0x20000309
2000000c:	2000030b 	.word	0x2000030b
20000010:	2000030d 	.word	0x2000030d
20000014:	2000030f 	.word	0x2000030f
20000018:	20000311 	.word	0x20000311
	...
2000002c:	20000313 	.word	0x20000313
20000030:	20000315 	.word	0x20000315
20000034:	00000000 	.word	0x00000000
20000038:	20000317 	.word	0x20000317
2000003c:	20000319 	.word	0x20000319
20000040:	2000031b 	.word	0x2000031b
20000044:	2000031d 	.word	0x2000031d
20000048:	2000031f 	.word	0x2000031f
2000004c:	20000321 	.word	0x20000321
20000050:	20000323 	.word	0x20000323
20000054:	20000325 	.word	0x20000325
20000058:	20000327 	.word	0x20000327
2000005c:	20000329 	.word	0x20000329
20000060:	2000032b 	.word	0x2000032b
20000064:	2000032d 	.word	0x2000032d
20000068:	200017ad 	.word	0x200017ad
2000006c:	200017d9 	.word	0x200017d9
20000070:	20002329 	.word	0x20002329
20000074:	20002355 	.word	0x20002355
20000078:	20000337 	.word	0x20000337
2000007c:	20000339 	.word	0x20000339
20000080:	2000033b 	.word	0x2000033b
20000084:	2000033d 	.word	0x2000033d
20000088:	2000033f 	.word	0x2000033f
2000008c:	20000341 	.word	0x20000341
20000090:	20000343 	.word	0x20000343
20000094:	20000345 	.word	0x20000345
20000098:	20000347 	.word	0x20000347
2000009c:	20000349 	.word	0x20000349
200000a0:	2000034b 	.word	0x2000034b
	...
200000bc:	2000034d 	.word	0x2000034d
200000c0:	2000034f 	.word	0x2000034f
200000c4:	20000351 	.word	0x20000351
200000c8:	20000353 	.word	0x20000353
200000cc:	20000355 	.word	0x20000355
200000d0:	20000357 	.word	0x20000357
200000d4:	20000651 	.word	0x20000651
200000d8:	2000035b 	.word	0x2000035b
200000dc:	2000035d 	.word	0x2000035d
200000e0:	20000635 	.word	0x20000635
200000e4:	20000361 	.word	0x20000361
200000e8:	20000363 	.word	0x20000363
200000ec:	20000365 	.word	0x20000365
200000f0:	20000367 	.word	0x20000367
200000f4:	20000369 	.word	0x20000369
200000f8:	2000036b 	.word	0x2000036b
200000fc:	2000036d 	.word	0x2000036d
20000100:	2000036f 	.word	0x2000036f
20000104:	20000371 	.word	0x20000371
20000108:	20000373 	.word	0x20000373
2000010c:	20000375 	.word	0x20000375
20000110:	20000377 	.word	0x20000377
20000114:	20000379 	.word	0x20000379
20000118:	2000037b 	.word	0x2000037b
2000011c:	2000037d 	.word	0x2000037d
20000120:	2000037f 	.word	0x2000037f
20000124:	20000381 	.word	0x20000381
20000128:	20000383 	.word	0x20000383
2000012c:	20000385 	.word	0x20000385
20000130:	20000387 	.word	0x20000387
20000134:	20000389 	.word	0x20000389
20000138:	2000038b 	.word	0x2000038b
2000013c:	2000038d 	.word	0x2000038d
20000140:	2000038f 	.word	0x2000038f
20000144:	20000391 	.word	0x20000391
20000148:	20000393 	.word	0x20000393
2000014c:	20000395 	.word	0x20000395
20000150:	20000397 	.word	0x20000397
20000154:	20000399 	.word	0x20000399
20000158:	2000039b 	.word	0x2000039b
2000015c:	2000039d 	.word	0x2000039d
20000160:	2000039f 	.word	0x2000039f
20000164:	200003a1 	.word	0x200003a1
20000168:	200003a3 	.word	0x200003a3
2000016c:	200003a5 	.word	0x200003a5
20000170:	200003a7 	.word	0x200003a7
20000174:	200003a9 	.word	0x200003a9
20000178:	200003ab 	.word	0x200003ab
2000017c:	200003ad 	.word	0x200003ad
20000180:	200003af 	.word	0x200003af
20000184:	200003b1 	.word	0x200003b1
20000188:	200003b3 	.word	0x200003b3
2000018c:	200003b5 	.word	0x200003b5
20000190:	200003b7 	.word	0x200003b7
20000194:	200003b9 	.word	0x200003b9
20000198:	200003bb 	.word	0x200003bb
2000019c:	200003bd 	.word	0x200003bd
200001a0:	200003bf 	.word	0x200003bf
200001a4:	200003c1 	.word	0x200003c1
200001a8:	200003c3 	.word	0x200003c3
200001ac:	200003c5 	.word	0x200003c5
200001b0:	200003c7 	.word	0x200003c7
200001b4:	200003c9 	.word	0x200003c9
200001b8:	200003cb 	.word	0x200003cb
200001bc:	200003cd 	.word	0x200003cd
200001c0:	200003cf 	.word	0x200003cf
200001c4:	200003d1 	.word	0x200003d1
200001c8:	200003d3 	.word	0x200003d3
200001cc:	200003d5 	.word	0x200003d5
200001d0:	200003d7 	.word	0x200003d7
200001d4:	200003d9 	.word	0x200003d9
200001d8:	200003db 	.word	0x200003db
200001dc:	200003dd 	.word	0x200003dd
200001e0:	200003df 	.word	0x200003df
200001e4:	200003e1 	.word	0x200003e1
200001e8:	200003e3 	.word	0x200003e3
200001ec:	200003e5 	.word	0x200003e5
200001f0:	200003e7 	.word	0x200003e7
200001f4:	200003e9 	.word	0x200003e9
200001f8:	200003eb 	.word	0x200003eb
200001fc:	200003ed 	.word	0x200003ed
20000200:	200003ef 	.word	0x200003ef
20000204:	200003f1 	.word	0x200003f1
20000208:	200003f3 	.word	0x200003f3
2000020c:	200003f5 	.word	0x200003f5
20000210:	200003f7 	.word	0x200003f7
20000214:	200003f9 	.word	0x200003f9
20000218:	20002abd 	.word	0x20002abd
2000021c:	20002ae5 	.word	0x20002ae5
20000220:	20002b0d 	.word	0x20002b0d
20000224:	20002b35 	.word	0x20002b35
20000228:	20002b5d 	.word	0x20002b5d
2000022c:	20002b85 	.word	0x20002b85
20000230:	20002bad 	.word	0x20002bad
20000234:	20002bd5 	.word	0x20002bd5
20000238:	20002bfd 	.word	0x20002bfd
2000023c:	20002c25 	.word	0x20002c25
20000240:	20002c4d 	.word	0x20002c4d
20000244:	20002c75 	.word	0x20002c75
20000248:	20002c9d 	.word	0x20002c9d
2000024c:	20002cc5 	.word	0x20002cc5
20000250:	20002ced 	.word	0x20002ced
20000254:	20002d15 	.word	0x20002d15
20000258:	20002d3d 	.word	0x20002d3d
2000025c:	20002d65 	.word	0x20002d65
20000260:	20002d8d 	.word	0x20002d8d
20000264:	20002db5 	.word	0x20002db5
20000268:	20002ddd 	.word	0x20002ddd
2000026c:	20002e05 	.word	0x20002e05
20000270:	20002e2d 	.word	0x20002e2d
20000274:	20002e55 	.word	0x20002e55
20000278:	20002e7d 	.word	0x20002e7d
2000027c:	20002ea5 	.word	0x20002ea5
20000280:	20002ecd 	.word	0x20002ecd
20000284:	20002ef5 	.word	0x20002ef5
20000288:	20002f1d 	.word	0x20002f1d
2000028c:	20002f45 	.word	0x20002f45
20000290:	20002f6d 	.word	0x20002f6d
20000294:	20002f95 	.word	0x20002f95

20000298 <Reset_Handler>:
20000298:	4868      	ldr	r0, [pc, #416]	; (2000043c <ACE_ADC2_FifoEmpty_IRQHandler+0x44>)
2000029a:	4780      	blx	r0
2000029c:	4868      	ldr	r0, [pc, #416]	; (20000440 <ACE_ADC2_FifoEmpty_IRQHandler+0x48>)
2000029e:	2800      	cmp	r0, #0
200002a0:	d10b      	bne.n	200002ba <copy_data>
200002a2:	4868      	ldr	r0, [pc, #416]	; (20000444 <ACE_ADC2_FifoEmpty_IRQHandler+0x4c>)
200002a4:	4968      	ldr	r1, [pc, #416]	; (20000448 <ACE_ADC2_FifoEmpty_IRQHandler+0x50>)
200002a6:	4a69      	ldr	r2, [pc, #420]	; (2000044c <ACE_ADC2_FifoEmpty_IRQHandler+0x54>)
200002a8:	4288      	cmp	r0, r1
200002aa:	d006      	beq.n	200002ba <copy_data>

200002ac <copy_code_loop>:
200002ac:	4291      	cmp	r1, r2
200002ae:	bf1c      	itt	ne
200002b0:	f850 3b04 	ldrne.w	r3, [r0], #4
200002b4:	f841 3b04 	strne.w	r3, [r1], #4
200002b8:	d1f8      	bne.n	200002ac <copy_code_loop>

200002ba <copy_data>:
200002ba:	4865      	ldr	r0, [pc, #404]	; (20000450 <ACE_ADC2_FifoEmpty_IRQHandler+0x58>)
200002bc:	4965      	ldr	r1, [pc, #404]	; (20000454 <ACE_ADC2_FifoEmpty_IRQHandler+0x5c>)
200002be:	4a66      	ldr	r2, [pc, #408]	; (20000458 <ACE_ADC2_FifoEmpty_IRQHandler+0x60>)
200002c0:	4288      	cmp	r0, r1
200002c2:	d006      	beq.n	200002d2 <clear_bss>

200002c4 <copy_data_loop>:
200002c4:	4291      	cmp	r1, r2
200002c6:	bf1c      	itt	ne
200002c8:	f850 3b04 	ldrne.w	r3, [r0], #4
200002cc:	f841 3b04 	strne.w	r3, [r1], #4
200002d0:	d1f8      	bne.n	200002c4 <copy_data_loop>

200002d2 <clear_bss>:
200002d2:	4862      	ldr	r0, [pc, #392]	; (2000045c <ACE_ADC2_FifoEmpty_IRQHandler+0x64>)
200002d4:	4962      	ldr	r1, [pc, #392]	; (20000460 <ACE_ADC2_FifoEmpty_IRQHandler+0x68>)
200002d6:	4a63      	ldr	r2, [pc, #396]	; (20000464 <ACE_ADC2_FifoEmpty_IRQHandler+0x6c>)

200002d8 <clear_bss_loop>:
200002d8:	4291      	cmp	r1, r2
200002da:	bf18      	it	ne
200002dc:	f841 0b04 	strne.w	r0, [r1], #4
200002e0:	d1fa      	bne.n	200002d8 <clear_bss_loop>
	...

200002f0 <call_glob_ctor>:
200002f0:	f8df 0174 	ldr.w	r0, [pc, #372]	; 20000468 <ACE_ADC2_FifoEmpty_IRQHandler+0x70>
200002f4:	f20f 0e03 	addw	lr, pc, #3
200002f8:	4700      	bx	r0

200002fa <branch_to_main>:
200002fa:	f04f 0000 	mov.w	r0, #0
200002fe:	f04f 0100 	mov.w	r1, #0
20000302:	f8df f168 	ldr.w	pc, [pc, #360]	; 2000046c <ACE_ADC2_FifoEmpty_IRQHandler+0x74>

20000306 <ExitLoop>:
20000306:	e7fe      	b.n	20000306 <ExitLoop>

20000308 <NMI_Handler>:
20000308:	e7fe      	b.n	20000308 <NMI_Handler>

2000030a <HardFault_Handler>:
2000030a:	e7fe      	b.n	2000030a <HardFault_Handler>

2000030c <MemManage_Handler>:
2000030c:	e7fe      	b.n	2000030c <MemManage_Handler>

2000030e <BusFault_Handler>:
2000030e:	e7fe      	b.n	2000030e <BusFault_Handler>

20000310 <UsageFault_Handler>:
20000310:	e7fe      	b.n	20000310 <UsageFault_Handler>

20000312 <SVC_Handler>:
20000312:	e7fe      	b.n	20000312 <SVC_Handler>

20000314 <DebugMon_Handler>:
20000314:	e7fe      	b.n	20000314 <DebugMon_Handler>

20000316 <PendSV_Handler>:
20000316:	e7fe      	b.n	20000316 <PendSV_Handler>

20000318 <SysTick_Handler>:
20000318:	e7fe      	b.n	20000318 <SysTick_Handler>

2000031a <WdogWakeup_IRQHandler>:
2000031a:	e7fe      	b.n	2000031a <WdogWakeup_IRQHandler>

2000031c <BrownOut_1_5V_IRQHandler>:
2000031c:	e7fe      	b.n	2000031c <BrownOut_1_5V_IRQHandler>

2000031e <BrownOut_3_3V_IRQHandler>:
2000031e:	e7fe      	b.n	2000031e <BrownOut_3_3V_IRQHandler>

20000320 <RTC_Match_IRQHandler>:
20000320:	e7fe      	b.n	20000320 <RTC_Match_IRQHandler>

20000322 <RTCIF_Pub_IRQHandler>:
20000322:	e7fe      	b.n	20000322 <RTCIF_Pub_IRQHandler>

20000324 <EthernetMAC_IRQHandler>:
20000324:	e7fe      	b.n	20000324 <EthernetMAC_IRQHandler>

20000326 <IAP_IRQHandler>:
20000326:	e7fe      	b.n	20000326 <IAP_IRQHandler>

20000328 <ENVM0_IRQHandler>:
20000328:	e7fe      	b.n	20000328 <ENVM0_IRQHandler>

2000032a <ENVM1_IRQHandler>:
2000032a:	e7fe      	b.n	2000032a <ENVM1_IRQHandler>

2000032c <DMA_IRQHandler>:
2000032c:	e7fe      	b.n	2000032c <DMA_IRQHandler>
2000032e:	e7fe      	b.n	2000032e <DMA_IRQHandler+0x2>
20000330:	e7fe      	b.n	20000330 <DMA_IRQHandler+0x4>
20000332:	e7fe      	b.n	20000332 <DMA_IRQHandler+0x6>
20000334:	e7fe      	b.n	20000334 <DMA_IRQHandler+0x8>

20000336 <I2C0_IRQHandler>:
20000336:	e7fe      	b.n	20000336 <I2C0_IRQHandler>

20000338 <I2C0_SMBAlert_IRQHandler>:
20000338:	e7fe      	b.n	20000338 <I2C0_SMBAlert_IRQHandler>

2000033a <I2C0_SMBus_IRQHandler>:
2000033a:	e7fe      	b.n	2000033a <I2C0_SMBus_IRQHandler>

2000033c <I2C1_IRQHandler>:
2000033c:	e7fe      	b.n	2000033c <I2C1_IRQHandler>

2000033e <I2C1_SMBAlert_IRQHandler>:
2000033e:	e7fe      	b.n	2000033e <I2C1_SMBAlert_IRQHandler>

20000340 <I2C1_SMBus_IRQHandler>:
20000340:	e7fe      	b.n	20000340 <I2C1_SMBus_IRQHandler>

20000342 <Timer1_IRQHandler>:
20000342:	e7fe      	b.n	20000342 <Timer1_IRQHandler>

20000344 <Timer2_IRQHandler>:
20000344:	e7fe      	b.n	20000344 <Timer2_IRQHandler>

20000346 <PLL_Lock_IRQHandler>:
20000346:	e7fe      	b.n	20000346 <PLL_Lock_IRQHandler>

20000348 <PLL_LockLost_IRQHandler>:
20000348:	e7fe      	b.n	20000348 <PLL_LockLost_IRQHandler>

2000034a <CommError_IRQHandler>:
2000034a:	e7fe      	b.n	2000034a <CommError_IRQHandler>

2000034c <Fabric_IRQHandler>:
2000034c:	e7fe      	b.n	2000034c <Fabric_IRQHandler>

2000034e <GPIO0_IRQHandler>:
2000034e:	e7fe      	b.n	2000034e <GPIO0_IRQHandler>

20000350 <GPIO1_IRQHandler>:
20000350:	e7fe      	b.n	20000350 <GPIO1_IRQHandler>

20000352 <GPIO2_IRQHandler>:
20000352:	e7fe      	b.n	20000352 <GPIO2_IRQHandler>

20000354 <GPIO3_IRQHandler>:
20000354:	e7fe      	b.n	20000354 <GPIO3_IRQHandler>

20000356 <GPIO4_IRQHandler>:
20000356:	e7fe      	b.n	20000356 <GPIO4_IRQHandler>
20000358:	e7fe      	b.n	20000358 <GPIO4_IRQHandler+0x2>

2000035a <GPIO6_IRQHandler>:
2000035a:	e7fe      	b.n	2000035a <GPIO6_IRQHandler>

2000035c <GPIO7_IRQHandler>:
2000035c:	e7fe      	b.n	2000035c <GPIO7_IRQHandler>
2000035e:	e7fe      	b.n	2000035e <GPIO7_IRQHandler+0x2>

20000360 <GPIO9_IRQHandler>:
20000360:	e7fe      	b.n	20000360 <GPIO9_IRQHandler>

20000362 <GPIO10_IRQHandler>:
20000362:	e7fe      	b.n	20000362 <GPIO10_IRQHandler>

20000364 <GPIO11_IRQHandler>:
20000364:	e7fe      	b.n	20000364 <GPIO11_IRQHandler>

20000366 <GPIO12_IRQHandler>:
20000366:	e7fe      	b.n	20000366 <GPIO12_IRQHandler>

20000368 <GPIO13_IRQHandler>:
20000368:	e7fe      	b.n	20000368 <GPIO13_IRQHandler>

2000036a <GPIO14_IRQHandler>:
2000036a:	e7fe      	b.n	2000036a <GPIO14_IRQHandler>

2000036c <GPIO15_IRQHandler>:
2000036c:	e7fe      	b.n	2000036c <GPIO15_IRQHandler>

2000036e <GPIO16_IRQHandler>:
2000036e:	e7fe      	b.n	2000036e <GPIO16_IRQHandler>

20000370 <GPIO17_IRQHandler>:
20000370:	e7fe      	b.n	20000370 <GPIO17_IRQHandler>

20000372 <GPIO18_IRQHandler>:
20000372:	e7fe      	b.n	20000372 <GPIO18_IRQHandler>

20000374 <GPIO19_IRQHandler>:
20000374:	e7fe      	b.n	20000374 <GPIO19_IRQHandler>

20000376 <GPIO20_IRQHandler>:
20000376:	e7fe      	b.n	20000376 <GPIO20_IRQHandler>

20000378 <GPIO21_IRQHandler>:
20000378:	e7fe      	b.n	20000378 <GPIO21_IRQHandler>

2000037a <GPIO22_IRQHandler>:
2000037a:	e7fe      	b.n	2000037a <GPIO22_IRQHandler>

2000037c <GPIO23_IRQHandler>:
2000037c:	e7fe      	b.n	2000037c <GPIO23_IRQHandler>

2000037e <GPIO24_IRQHandler>:
2000037e:	e7fe      	b.n	2000037e <GPIO24_IRQHandler>

20000380 <GPIO25_IRQHandler>:
20000380:	e7fe      	b.n	20000380 <GPIO25_IRQHandler>

20000382 <GPIO26_IRQHandler>:
20000382:	e7fe      	b.n	20000382 <GPIO26_IRQHandler>

20000384 <GPIO27_IRQHandler>:
20000384:	e7fe      	b.n	20000384 <GPIO27_IRQHandler>

20000386 <GPIO28_IRQHandler>:
20000386:	e7fe      	b.n	20000386 <GPIO28_IRQHandler>

20000388 <GPIO29_IRQHandler>:
20000388:	e7fe      	b.n	20000388 <GPIO29_IRQHandler>

2000038a <GPIO30_IRQHandler>:
2000038a:	e7fe      	b.n	2000038a <GPIO30_IRQHandler>

2000038c <GPIO31_IRQHandler>:
2000038c:	e7fe      	b.n	2000038c <GPIO31_IRQHandler>

2000038e <ACE_PC0_Flag0_IRQHandler>:
2000038e:	e7fe      	b.n	2000038e <ACE_PC0_Flag0_IRQHandler>

20000390 <ACE_PC0_Flag1_IRQHandler>:
20000390:	e7fe      	b.n	20000390 <ACE_PC0_Flag1_IRQHandler>

20000392 <ACE_PC0_Flag2_IRQHandler>:
20000392:	e7fe      	b.n	20000392 <ACE_PC0_Flag2_IRQHandler>

20000394 <ACE_PC0_Flag3_IRQHandler>:
20000394:	e7fe      	b.n	20000394 <ACE_PC0_Flag3_IRQHandler>

20000396 <ACE_PC1_Flag0_IRQHandler>:
20000396:	e7fe      	b.n	20000396 <ACE_PC1_Flag0_IRQHandler>

20000398 <ACE_PC1_Flag1_IRQHandler>:
20000398:	e7fe      	b.n	20000398 <ACE_PC1_Flag1_IRQHandler>

2000039a <ACE_PC1_Flag2_IRQHandler>:
2000039a:	e7fe      	b.n	2000039a <ACE_PC1_Flag2_IRQHandler>

2000039c <ACE_PC1_Flag3_IRQHandler>:
2000039c:	e7fe      	b.n	2000039c <ACE_PC1_Flag3_IRQHandler>

2000039e <ACE_PC2_Flag0_IRQHandler>:
2000039e:	e7fe      	b.n	2000039e <ACE_PC2_Flag0_IRQHandler>

200003a0 <ACE_PC2_Flag1_IRQHandler>:
200003a0:	e7fe      	b.n	200003a0 <ACE_PC2_Flag1_IRQHandler>

200003a2 <ACE_PC2_Flag2_IRQHandler>:
200003a2:	e7fe      	b.n	200003a2 <ACE_PC2_Flag2_IRQHandler>

200003a4 <ACE_PC2_Flag3_IRQHandler>:
200003a4:	e7fe      	b.n	200003a4 <ACE_PC2_Flag3_IRQHandler>

200003a6 <ACE_ADC0_DataValid_IRQHandler>:
200003a6:	e7fe      	b.n	200003a6 <ACE_ADC0_DataValid_IRQHandler>

200003a8 <ACE_ADC1_DataValid_IRQHandler>:
200003a8:	e7fe      	b.n	200003a8 <ACE_ADC1_DataValid_IRQHandler>

200003aa <ACE_ADC2_DataValid_IRQHandler>:
200003aa:	e7fe      	b.n	200003aa <ACE_ADC2_DataValid_IRQHandler>

200003ac <ACE_ADC0_CalDone_IRQHandler>:
200003ac:	e7fe      	b.n	200003ac <ACE_ADC0_CalDone_IRQHandler>

200003ae <ACE_ADC1_CalDone_IRQHandler>:
200003ae:	e7fe      	b.n	200003ae <ACE_ADC1_CalDone_IRQHandler>

200003b0 <ACE_ADC2_CalDone_IRQHandler>:
200003b0:	e7fe      	b.n	200003b0 <ACE_ADC2_CalDone_IRQHandler>

200003b2 <ACE_ADC0_CalStart_IRQHandler>:
200003b2:	e7fe      	b.n	200003b2 <ACE_ADC0_CalStart_IRQHandler>

200003b4 <ACE_ADC1_CalStart_IRQHandler>:
200003b4:	e7fe      	b.n	200003b4 <ACE_ADC1_CalStart_IRQHandler>

200003b6 <ACE_ADC2_CalStart_IRQHandler>:
200003b6:	e7fe      	b.n	200003b6 <ACE_ADC2_CalStart_IRQHandler>

200003b8 <ACE_Comp0_Fall_IRQHandler>:
200003b8:	e7fe      	b.n	200003b8 <ACE_Comp0_Fall_IRQHandler>

200003ba <ACE_Comp1_Fall_IRQHandler>:
200003ba:	e7fe      	b.n	200003ba <ACE_Comp1_Fall_IRQHandler>

200003bc <ACE_Comp2_Fall_IRQHandler>:
200003bc:	e7fe      	b.n	200003bc <ACE_Comp2_Fall_IRQHandler>

200003be <ACE_Comp3_Fall_IRQHandler>:
200003be:	e7fe      	b.n	200003be <ACE_Comp3_Fall_IRQHandler>

200003c0 <ACE_Comp4_Fall_IRQHandler>:
200003c0:	e7fe      	b.n	200003c0 <ACE_Comp4_Fall_IRQHandler>

200003c2 <ACE_Comp5_Fall_IRQHandler>:
200003c2:	e7fe      	b.n	200003c2 <ACE_Comp5_Fall_IRQHandler>

200003c4 <ACE_Comp6_Fall_IRQHandler>:
200003c4:	e7fe      	b.n	200003c4 <ACE_Comp6_Fall_IRQHandler>

200003c6 <ACE_Comp7_Fall_IRQHandler>:
200003c6:	e7fe      	b.n	200003c6 <ACE_Comp7_Fall_IRQHandler>

200003c8 <ACE_Comp8_Fall_IRQHandler>:
200003c8:	e7fe      	b.n	200003c8 <ACE_Comp8_Fall_IRQHandler>

200003ca <ACE_Comp9_Fall_IRQHandler>:
200003ca:	e7fe      	b.n	200003ca <ACE_Comp9_Fall_IRQHandler>

200003cc <ACE_Comp10_Fall_IRQHandler>:
200003cc:	e7fe      	b.n	200003cc <ACE_Comp10_Fall_IRQHandler>

200003ce <ACE_Comp11_Fall_IRQHandler>:
200003ce:	e7fe      	b.n	200003ce <ACE_Comp11_Fall_IRQHandler>

200003d0 <ACE_Comp0_Rise_IRQHandler>:
200003d0:	e7fe      	b.n	200003d0 <ACE_Comp0_Rise_IRQHandler>

200003d2 <ACE_Comp1_Rise_IRQHandler>:
200003d2:	e7fe      	b.n	200003d2 <ACE_Comp1_Rise_IRQHandler>

200003d4 <ACE_Comp2_Rise_IRQHandler>:
200003d4:	e7fe      	b.n	200003d4 <ACE_Comp2_Rise_IRQHandler>

200003d6 <ACE_Comp3_Rise_IRQHandler>:
200003d6:	e7fe      	b.n	200003d6 <ACE_Comp3_Rise_IRQHandler>

200003d8 <ACE_Comp4_Rise_IRQHandler>:
200003d8:	e7fe      	b.n	200003d8 <ACE_Comp4_Rise_IRQHandler>

200003da <ACE_Comp5_Rise_IRQHandler>:
200003da:	e7fe      	b.n	200003da <ACE_Comp5_Rise_IRQHandler>

200003dc <ACE_Comp6_Rise_IRQHandler>:
200003dc:	e7fe      	b.n	200003dc <ACE_Comp6_Rise_IRQHandler>

200003de <ACE_Comp7_Rise_IRQHandler>:
200003de:	e7fe      	b.n	200003de <ACE_Comp7_Rise_IRQHandler>

200003e0 <ACE_Comp8_Rise_IRQHandler>:
200003e0:	e7fe      	b.n	200003e0 <ACE_Comp8_Rise_IRQHandler>

200003e2 <ACE_Comp9_Rise_IRQHandler>:
200003e2:	e7fe      	b.n	200003e2 <ACE_Comp9_Rise_IRQHandler>

200003e4 <ACE_Comp10_Rise_IRQHandler>:
200003e4:	e7fe      	b.n	200003e4 <ACE_Comp10_Rise_IRQHandler>

200003e6 <ACE_Comp11_Rise_IRQHandler>:
200003e6:	e7fe      	b.n	200003e6 <ACE_Comp11_Rise_IRQHandler>

200003e8 <ACE_ADC0_FifoFull_IRQHandler>:
200003e8:	e7fe      	b.n	200003e8 <ACE_ADC0_FifoFull_IRQHandler>

200003ea <ACE_ADC0_FifoAFull_IRQHandler>:
200003ea:	e7fe      	b.n	200003ea <ACE_ADC0_FifoAFull_IRQHandler>

200003ec <ACE_ADC0_FifoEmpty_IRQHandler>:
200003ec:	e7fe      	b.n	200003ec <ACE_ADC0_FifoEmpty_IRQHandler>

200003ee <ACE_ADC1_FifoFull_IRQHandler>:
200003ee:	e7fe      	b.n	200003ee <ACE_ADC1_FifoFull_IRQHandler>

200003f0 <ACE_ADC1_FifoAFull_IRQHandler>:
200003f0:	e7fe      	b.n	200003f0 <ACE_ADC1_FifoAFull_IRQHandler>

200003f2 <ACE_ADC1_FifoEmpty_IRQHandler>:
200003f2:	e7fe      	b.n	200003f2 <ACE_ADC1_FifoEmpty_IRQHandler>

200003f4 <ACE_ADC2_FifoFull_IRQHandler>:
200003f4:	e7fe      	b.n	200003f4 <ACE_ADC2_FifoFull_IRQHandler>

200003f6 <ACE_ADC2_FifoAFull_IRQHandler>:
200003f6:	e7fe      	b.n	200003f6 <ACE_ADC2_FifoAFull_IRQHandler>

200003f8 <ACE_ADC2_FifoEmpty_IRQHandler>:
200003f8:	e7fe      	b.n	200003f8 <ACE_ADC2_FifoEmpty_IRQHandler>
200003fa:	e7fe      	b.n	200003fa <ACE_ADC2_FifoEmpty_IRQHandler+0x2>
200003fc:	e7fe      	b.n	200003fc <ACE_ADC2_FifoEmpty_IRQHandler+0x4>
200003fe:	e7fe      	b.n	200003fe <ACE_ADC2_FifoEmpty_IRQHandler+0x6>
20000400:	e7fe      	b.n	20000400 <ACE_ADC2_FifoEmpty_IRQHandler+0x8>
20000402:	e7fe      	b.n	20000402 <ACE_ADC2_FifoEmpty_IRQHandler+0xa>
20000404:	e7fe      	b.n	20000404 <ACE_ADC2_FifoEmpty_IRQHandler+0xc>
20000406:	e7fe      	b.n	20000406 <ACE_ADC2_FifoEmpty_IRQHandler+0xe>
20000408:	e7fe      	b.n	20000408 <ACE_ADC2_FifoEmpty_IRQHandler+0x10>
2000040a:	e7fe      	b.n	2000040a <ACE_ADC2_FifoEmpty_IRQHandler+0x12>
2000040c:	e7fe      	b.n	2000040c <ACE_ADC2_FifoEmpty_IRQHandler+0x14>
2000040e:	e7fe      	b.n	2000040e <ACE_ADC2_FifoEmpty_IRQHandler+0x16>
20000410:	e7fe      	b.n	20000410 <ACE_ADC2_FifoEmpty_IRQHandler+0x18>
20000412:	e7fe      	b.n	20000412 <ACE_ADC2_FifoEmpty_IRQHandler+0x1a>
20000414:	e7fe      	b.n	20000414 <ACE_ADC2_FifoEmpty_IRQHandler+0x1c>
20000416:	e7fe      	b.n	20000416 <ACE_ADC2_FifoEmpty_IRQHandler+0x1e>
20000418:	e7fe      	b.n	20000418 <ACE_ADC2_FifoEmpty_IRQHandler+0x20>
2000041a:	e7fe      	b.n	2000041a <ACE_ADC2_FifoEmpty_IRQHandler+0x22>
2000041c:	e7fe      	b.n	2000041c <ACE_ADC2_FifoEmpty_IRQHandler+0x24>
2000041e:	e7fe      	b.n	2000041e <ACE_ADC2_FifoEmpty_IRQHandler+0x26>
20000420:	e7fe      	b.n	20000420 <ACE_ADC2_FifoEmpty_IRQHandler+0x28>
20000422:	e7fe      	b.n	20000422 <ACE_ADC2_FifoEmpty_IRQHandler+0x2a>
20000424:	e7fe      	b.n	20000424 <ACE_ADC2_FifoEmpty_IRQHandler+0x2c>
20000426:	e7fe      	b.n	20000426 <ACE_ADC2_FifoEmpty_IRQHandler+0x2e>
20000428:	e7fe      	b.n	20000428 <ACE_ADC2_FifoEmpty_IRQHandler+0x30>
2000042a:	e7fe      	b.n	2000042a <ACE_ADC2_FifoEmpty_IRQHandler+0x32>
2000042c:	e7fe      	b.n	2000042c <ACE_ADC2_FifoEmpty_IRQHandler+0x34>
2000042e:	e7fe      	b.n	2000042e <ACE_ADC2_FifoEmpty_IRQHandler+0x36>
20000430:	e7fe      	b.n	20000430 <ACE_ADC2_FifoEmpty_IRQHandler+0x38>
20000432:	e7fe      	b.n	20000432 <ACE_ADC2_FifoEmpty_IRQHandler+0x3a>
20000434:	e7fe      	b.n	20000434 <ACE_ADC2_FifoEmpty_IRQHandler+0x3c>
20000436:	e7fe      	b.n	20000436 <ACE_ADC2_FifoEmpty_IRQHandler+0x3e>
20000438:	e7fe      	b.n	20000438 <ACE_ADC2_FifoEmpty_IRQHandler+0x40>
2000043a:	0000      	.short	0x0000
2000043c:	20002669 	.word	0x20002669
20000440:	00000000 	.word	0x00000000
20000444:	20000000 	.word	0x20000000
20000448:	20000000 	.word	0x20000000
2000044c:	20009878 	.word	0x20009878
20000450:	20009878 	.word	0x20009878
20000454:	20009878 	.word	0x20009878
20000458:	20009df0 	.word	0x20009df0
2000045c:	00000000 	.word	0x00000000
20000460:	20009df0 	.word	0x20009df0
20000464:	2000bf08 	.word	0x2000bf08
20000468:	20002fbd 	.word	0x20002fbd
2000046c:	20000705 	.word	0x20000705

20000470 <__do_global_dtors_aux>:
20000470:	f649 53f0 	movw	r3, #40432	; 0x9df0
20000474:	f2c2 0300 	movt	r3, #8192	; 0x2000
20000478:	781a      	ldrb	r2, [r3, #0]
2000047a:	b90a      	cbnz	r2, 20000480 <__do_global_dtors_aux+0x10>
2000047c:	2001      	movs	r0, #1
2000047e:	7018      	strb	r0, [r3, #0]
20000480:	4770      	bx	lr
20000482:	bf00      	nop

20000484 <frame_dummy>:
20000484:	f649 0078 	movw	r0, #39032	; 0x9878
20000488:	f2c2 0000 	movt	r0, #8192	; 0x2000
2000048c:	b508      	push	{r3, lr}
2000048e:	6803      	ldr	r3, [r0, #0]
20000490:	b12b      	cbz	r3, 2000049e <frame_dummy+0x1a>
20000492:	f240 0300 	movw	r3, #0
20000496:	f2c0 0300 	movt	r3, #0
2000049a:	b103      	cbz	r3, 2000049e <frame_dummy+0x1a>
2000049c:	4798      	blx	r3
2000049e:	bd08      	pop	{r3, pc}

200004a0 <reverseBit>:
	MSS_GPIO_set_output(MSS_GPIO_4, B2);
	*motor_left_addr = Aspeed;
	*motor_right_addr = Bspeed;
}

uint32_t reverseBit(uint32_t input){
200004a0:	f04f 0200 	mov.w	r2, #0
200004a4:	4613      	mov	r3, r2
	uint32_t res = 0, i;
	for(i = 0; i < 8; i++){
		res <<= 1;
200004a6:	ea4f 0343 	mov.w	r3, r3, lsl #1
		if((input & 1) == 1){
200004aa:	f010 0f01 	tst.w	r0, #1
			res ^= 1;
200004ae:	bf18      	it	ne
200004b0:	f083 0301 	eorne.w	r3, r3, #1
	*motor_right_addr = Bspeed;
}

uint32_t reverseBit(uint32_t input){
	uint32_t res = 0, i;
	for(i = 0; i < 8; i++){
200004b4:	f102 0201 	add.w	r2, r2, #1
200004b8:	2a08      	cmp	r2, #8
200004ba:	d002      	beq.n	200004c2 <reverseBit+0x22>
		res <<= 1;
		if((input & 1) == 1){
			res ^= 1;
		}
		input >>= 1;
200004bc:	ea4f 0050 	mov.w	r0, r0, lsr #1
200004c0:	e7f1      	b.n	200004a6 <reverseBit+0x6>
	}
	return res;
}
200004c2:	4618      	mov	r0, r3
200004c4:	4770      	bx	lr
200004c6:	bf00      	nop

200004c8 <setServoPin>:
	//printf("FIRE FINISH\r\n");
	*fire_addr = 0;
	MSS_GPIO_clear_irq( MSS_GPIO_8 );
}

void setServoPin(int h, uint32_t h_value, int v, uint32_t v_value){
200004c8:	b410      	push	{r4}
	switch(h){
200004ca:	f1b0 3fff 	cmp.w	r0, #4294967295
200004ce:	d02a      	beq.n	20000526 <setServoPin+0x5e>
200004d0:	2801      	cmp	r0, #1
200004d2:	d147      	bne.n	20000564 <setServoPin+0x9c>
	case 1:
		if (h_angle < servo_h_max_depression) {
200004d4:	f24b 50d8 	movw	r0, #46552	; 0xb5d8
200004d8:	f2c2 0000 	movt	r0, #8192	; 0x2000
200004dc:	6804      	ldr	r4, [r0, #0]
200004de:	f24d 40bf 	movw	r0, #54463	; 0xd4bf
200004e2:	f2c0 0001 	movt	r0, #1
200004e6:	4284      	cmp	r4, r0
200004e8:	d847      	bhi.n	2000057a <setServoPin+0xb2>
			h_angle += H_ANGLE * (0x7F - h_value) / 0x7F;
200004ea:	f1c1 017f 	rsb	r1, r1, #127	; 0x7f
200004ee:	ebc1 1041 	rsb	r0, r1, r1, lsl #5
200004f2:	eb01 0180 	add.w	r1, r1, r0, lsl #2
200004f6:	f640 0011 	movw	r0, #2065	; 0x811
200004fa:	f2c0 2004 	movt	r0, #516	; 0x204
200004fe:	fba0 c001 	umull	ip, r0, r0, r1
20000502:	ebc0 0101 	rsb	r1, r0, r1
20000506:	eb00 0051 	add.w	r0, r0, r1, lsr #1
2000050a:	eb04 1490 	add.w	r4, r4, r0, lsr #6
2000050e:	f24b 51d8 	movw	r1, #46552	; 0xb5d8
20000512:	f2c2 0100 	movt	r1, #8192	; 0x2000
20000516:	600c      	str	r4, [r1, #0]
			*pwm_h_addr = h_angle;
20000518:	f649 017c 	movw	r1, #39036	; 0x987c
2000051c:	f2c2 0100 	movt	r1, #8192	; 0x2000
20000520:	6809      	ldr	r1, [r1, #0]
20000522:	600c      	str	r4, [r1, #0]
20000524:	e029      	b.n	2000057a <setServoPin+0xb2>
		}
		break;
	case -1:
		if (h_angle > servo_h_max_elevation) {
20000526:	f24b 50d8 	movw	r0, #46552	; 0xb5d8
2000052a:	f2c2 0000 	movt	r0, #8192	; 0x2000
2000052e:	6800      	ldr	r0, [r0, #0]
20000530:	f247 5c30 	movw	ip, #30000	; 0x7530
20000534:	4560      	cmp	r0, ip
20000536:	d920      	bls.n	2000057a <setServoPin+0xb2>
			h_angle -= H_ANGLE * (h_value - 0x7F) / (0xFF - 0x7F);
20000538:	ebc1 1c41 	rsb	ip, r1, r1, lsl #5
2000053c:	eb01 018c 	add.w	r1, r1, ip, lsl #2
20000540:	f5a1 5178 	sub.w	r1, r1, #15872	; 0x3e00
20000544:	f1a1 0103 	sub.w	r1, r1, #3
20000548:	eba0 11d1 	sub.w	r1, r0, r1, lsr #7
2000054c:	f24b 54d8 	movw	r4, #46552	; 0xb5d8
20000550:	f2c2 0400 	movt	r4, #8192	; 0x2000
20000554:	6021      	str	r1, [r4, #0]
			*pwm_h_addr = h_angle;
20000556:	f649 047c 	movw	r4, #39036	; 0x987c
2000055a:	f2c2 0400 	movt	r4, #8192	; 0x2000
2000055e:	6820      	ldr	r0, [r4, #0]
20000560:	6001      	str	r1, [r0, #0]
20000562:	e00a      	b.n	2000057a <setServoPin+0xb2>
		}
		break;
	default:
		*pwm_h_addr = h_angle;
20000564:	f649 017c 	movw	r1, #39036	; 0x987c
20000568:	f2c2 0100 	movt	r1, #8192	; 0x2000
2000056c:	6808      	ldr	r0, [r1, #0]
2000056e:	f24b 51d8 	movw	r1, #46552	; 0xb5d8
20000572:	f2c2 0100 	movt	r1, #8192	; 0x2000
20000576:	6809      	ldr	r1, [r1, #0]
20000578:	6001      	str	r1, [r0, #0]
		break;
	}

	switch(v){
2000057a:	f1b2 3fff 	cmp.w	r2, #4294967295
2000057e:	d02a      	beq.n	200005d6 <setServoPin+0x10e>
20000580:	2a01      	cmp	r2, #1
20000582:	d149      	bne.n	20000618 <setServoPin+0x150>
	case 1:
		if (v_angle < servo_v_max_depression) {
20000584:	f649 6254 	movw	r2, #40532	; 0x9e54
20000588:	f2c2 0200 	movt	r2, #8192	; 0x2000
2000058c:	6811      	ldr	r1, [r2, #0]
2000058e:	f643 027f 	movw	r2, #14463	; 0x387f
20000592:	f2c0 0201 	movt	r2, #1
20000596:	4291      	cmp	r1, r2
20000598:	d849      	bhi.n	2000062e <setServoPin+0x166>
			v_angle += V_ANGLE * (0x7F - v_value) / 0x7F;
2000059a:	f1c3 037f 	rsb	r3, r3, #127	; 0x7f
2000059e:	eb03 0383 	add.w	r3, r3, r3, lsl #2
200005a2:	eb03 0383 	add.w	r3, r3, r3, lsl #2
200005a6:	f640 0211 	movw	r2, #2065	; 0x811
200005aa:	f2c0 2204 	movt	r2, #516	; 0x204
200005ae:	fba2 0203 	umull	r0, r2, r2, r3
200005b2:	ebc2 0303 	rsb	r3, r2, r3
200005b6:	eb02 0253 	add.w	r2, r2, r3, lsr #1
200005ba:	eb01 1192 	add.w	r1, r1, r2, lsr #6
200005be:	f649 6354 	movw	r3, #40532	; 0x9e54
200005c2:	f2c2 0300 	movt	r3, #8192	; 0x2000
200005c6:	6019      	str	r1, [r3, #0]
			*pwm_v_addr = v_angle;
200005c8:	f649 0390 	movw	r3, #39056	; 0x9890
200005cc:	f2c2 0300 	movt	r3, #8192	; 0x2000
200005d0:	681b      	ldr	r3, [r3, #0]
200005d2:	6019      	str	r1, [r3, #0]
200005d4:	e02b      	b.n	2000062e <setServoPin+0x166>
		}
		break;
	case -1:
		if (v_angle > servo_v_max_elevation) {
200005d6:	f649 6254 	movw	r2, #40532	; 0x9e54
200005da:	f2c2 0200 	movt	r2, #8192	; 0x2000
200005de:	6811      	ldr	r1, [r2, #0]
200005e0:	f241 1270 	movw	r2, #4464	; 0x1170
200005e4:	f2c0 0201 	movt	r2, #1
200005e8:	4291      	cmp	r1, r2
200005ea:	d920      	bls.n	2000062e <setServoPin+0x166>
			v_angle -= V_ANGLE * (v_value - 0x7F) / (0xFF - 0x7F);
200005ec:	eb03 0383 	add.w	r3, r3, r3, lsl #2
200005f0:	eb03 0383 	add.w	r3, r3, r3, lsl #2
200005f4:	f5a3 6346 	sub.w	r3, r3, #3168	; 0xc60
200005f8:	f1a3 0307 	sub.w	r3, r3, #7
200005fc:	eba1 11d3 	sub.w	r1, r1, r3, lsr #7
20000600:	f649 6354 	movw	r3, #40532	; 0x9e54
20000604:	f2c2 0300 	movt	r3, #8192	; 0x2000
20000608:	6019      	str	r1, [r3, #0]
			*pwm_v_addr = v_angle;
2000060a:	f649 0390 	movw	r3, #39056	; 0x9890
2000060e:	f2c2 0300 	movt	r3, #8192	; 0x2000
20000612:	681b      	ldr	r3, [r3, #0]
20000614:	6019      	str	r1, [r3, #0]
20000616:	e00a      	b.n	2000062e <setServoPin+0x166>
		}
		break;
	default:
		*pwm_v_addr = v_angle;
20000618:	f649 0390 	movw	r3, #39056	; 0x9890
2000061c:	f2c2 0300 	movt	r3, #8192	; 0x2000
20000620:	681a      	ldr	r2, [r3, #0]
20000622:	f649 6354 	movw	r3, #40532	; 0x9e54
20000626:	f2c2 0300 	movt	r3, #8192	; 0x2000
2000062a:	681b      	ldr	r3, [r3, #0]
2000062c:	6013      	str	r3, [r2, #0]
		break;
	}
}
2000062e:	bc10      	pop	{r4}
20000630:	4770      	bx	lr
20000632:	bf00      	nop

20000634 <GPIO8_IRQHandler>:
	reload = 0;
	*led_rg_addr = (1 << 2) + (1 << 1) + 1;
	MSS_GPIO_clear_irq( MSS_GPIO_5 );
}

void GPIO8_IRQHandler( void ){
20000634:	b508      	push	{r3, lr}
	//printf("FIRE FINISH\r\n");
	*fire_addr = 0;
20000636:	f649 0380 	movw	r3, #39040	; 0x9880
2000063a:	f2c2 0300 	movt	r3, #8192	; 0x2000
2000063e:	681b      	ldr	r3, [r3, #0]
20000640:	f04f 0200 	mov.w	r2, #0
20000644:	601a      	str	r2, [r3, #0]
	MSS_GPIO_clear_irq( MSS_GPIO_8 );
20000646:	f04f 0008 	mov.w	r0, #8
2000064a:	f001 ff79 	bl	20002540 <MSS_GPIO_clear_irq>
}
2000064e:	bd08      	pop	{r3, pc}

20000650 <GPIO5_IRQHandler>:
		input >>= 1;
	}
	return res;
}

void GPIO5_IRQHandler( void ){
20000650:	b508      	push	{r3, lr}
	//printf("FINISH\r\n");
	MYTIMER_disable();
20000652:	f000 fc3b 	bl	20000ecc <MYTIMER_disable>
	reload = 0;
20000656:	f649 634c 	movw	r3, #40524	; 0x9e4c
2000065a:	f2c2 0300 	movt	r3, #8192	; 0x2000
2000065e:	f04f 0200 	mov.w	r2, #0
20000662:	601a      	str	r2, [r3, #0]
	*led_rg_addr = (1 << 2) + (1 << 1) + 1;
20000664:	f649 038c 	movw	r3, #39052	; 0x988c
20000668:	f2c2 0300 	movt	r3, #8192	; 0x2000
2000066c:	681b      	ldr	r3, [r3, #0]
2000066e:	f04f 0207 	mov.w	r2, #7
20000672:	601a      	str	r2, [r3, #0]
	MSS_GPIO_clear_irq( MSS_GPIO_5 );
20000674:	f04f 0005 	mov.w	r0, #5
20000678:	f001 ff62 	bl	20002540 <MSS_GPIO_clear_irq>
}
2000067c:	bd08      	pop	{r3, pc}
2000067e:	bf00      	nop

20000680 <setMotorPin>:
	DELAY_enable();
	while(DELAY_getCounterVal() < num * 99 / 100){}
	DELAY_disable();
}

void setMotorPin(int A1, int A2, int B1, int B2, int Aspeed, int Bspeed){
20000680:	b570      	push	{r4, r5, r6, lr}
20000682:	460d      	mov	r5, r1
20000684:	4614      	mov	r4, r2
20000686:	461e      	mov	r6, r3
	MSS_GPIO_set_output(MSS_GPIO_1, A1);
20000688:	b2c1      	uxtb	r1, r0
2000068a:	f04f 0001 	mov.w	r0, #1
2000068e:	f001 ff05 	bl	2000249c <MSS_GPIO_set_output>
	MSS_GPIO_set_output(MSS_GPIO_2, A2);
20000692:	f04f 0002 	mov.w	r0, #2
20000696:	b2e9      	uxtb	r1, r5
20000698:	f001 ff00 	bl	2000249c <MSS_GPIO_set_output>
	MSS_GPIO_set_output(MSS_GPIO_3, B1);
2000069c:	f04f 0003 	mov.w	r0, #3
200006a0:	b2e1      	uxtb	r1, r4
200006a2:	f001 fefb 	bl	2000249c <MSS_GPIO_set_output>
	MSS_GPIO_set_output(MSS_GPIO_4, B2);
200006a6:	f04f 0004 	mov.w	r0, #4
200006aa:	b2f1      	uxtb	r1, r6
200006ac:	f001 fef6 	bl	2000249c <MSS_GPIO_set_output>
	*motor_left_addr = Aspeed;
200006b0:	f649 0384 	movw	r3, #39044	; 0x9884
200006b4:	f2c2 0300 	movt	r3, #8192	; 0x2000
200006b8:	681b      	ldr	r3, [r3, #0]
200006ba:	9a04      	ldr	r2, [sp, #16]
200006bc:	601a      	str	r2, [r3, #0]
	*motor_right_addr = Bspeed;
200006be:	f649 0388 	movw	r3, #39048	; 0x9888
200006c2:	f2c2 0300 	movt	r3, #8192	; 0x2000
200006c6:	681b      	ldr	r3, [r3, #0]
200006c8:	9a05      	ldr	r2, [sp, #20]
200006ca:	601a      	str	r2, [r3, #0]
}
200006cc:	bd70      	pop	{r4, r5, r6, pc}
200006ce:	bf00      	nop

200006d0 <delay>:
	}

	return 0;
}

void delay(uint32_t num){
200006d0:	b510      	push	{r4, lr}
200006d2:	4604      	mov	r4, r0
	DELAY_setOverflowVal(num);
200006d4:	f000 fc20 	bl	20000f18 <DELAY_setOverflowVal>
	DELAY_enable();
200006d8:	f000 fc0a 	bl	20000ef0 <DELAY_enable>
	while(DELAY_getCounterVal() < num * 99 / 100){}
200006dc:	eb04 0444 	add.w	r4, r4, r4, lsl #1
200006e0:	eb04 1444 	add.w	r4, r4, r4, lsl #5
200006e4:	f248 531f 	movw	r3, #34079	; 0x851f
200006e8:	f2c5 13eb 	movt	r3, #20971	; 0x51eb
200006ec:	fba3 2404 	umull	r2, r4, r3, r4
200006f0:	ea4f 1454 	mov.w	r4, r4, lsr #5
200006f4:	f000 fc16 	bl	20000f24 <DELAY_getCounterVal>
200006f8:	42a0      	cmp	r0, r4
200006fa:	d3fb      	bcc.n	200006f4 <delay+0x24>
	DELAY_disable();
200006fc:	f000 fc02 	bl	20000f04 <DELAY_disable>
}
20000700:	bd10      	pop	{r4, pc}
20000702:	bf00      	nop

20000704 <main>:
void GPIO5_IRQHandler( void );

void GPIO8_IRQHandler( void );

int main()
{
20000704:	e92d 4ff0 	stmdb	sp!, {r4, r5, r6, r7, r8, r9, sl, fp, lr}
20000708:	b09f      	sub	sp, #124	; 0x7c
	ACE_init();
2000070a:	f001 ff41 	bl	20002590 <ACE_init>
	adc_handler_2 = ACE_get_channel_handle((const uint8_t *)"ADCDirectInput_2");
2000070e:	f249 4008 	movw	r0, #37896	; 0x9408
20000712:	f2c2 0000 	movt	r0, #8192	; 0x2000
20000716:	f001 ff43 	bl	200025a0 <ACE_get_channel_handle>
2000071a:	f649 6344 	movw	r3, #40516	; 0x9e44
2000071e:	f2c2 0300 	movt	r3, #8192	; 0x2000
20000722:	7018      	strb	r0, [r3, #0]
	adc_handler_3 = ACE_get_channel_handle((const uint8_t *)"ADCDirectInput_3");
20000724:	f249 401c 	movw	r0, #37916	; 0x941c
20000728:	f2c2 0000 	movt	r0, #8192	; 0x2000
2000072c:	f001 ff38 	bl	200025a0 <ACE_get_channel_handle>
20000730:	f24a 632c 	movw	r3, #42540	; 0xa62c
20000734:	f2c2 0300 	movt	r3, #8192	; 0x2000
20000738:	7018      	strb	r0, [r3, #0]
	adc_handler_4 = ACE_get_channel_handle((const uint8_t *)"ADCDirectInput_4");
2000073a:	f249 4030 	movw	r0, #37936	; 0x9430
2000073e:	f2c2 0000 	movt	r0, #8192	; 0x2000
20000742:	f001 ff2d 	bl	200025a0 <ACE_get_channel_handle>
20000746:	f24a 6330 	movw	r3, #42544	; 0xa630
2000074a:	f2c2 0300 	movt	r3, #8192	; 0x2000
2000074e:	7018      	strb	r0, [r3, #0]
	adc_handler_5 = ACE_get_channel_handle((const uint8_t *)"ADCDirectInput_5");
20000750:	f249 4044 	movw	r0, #37956	; 0x9444
20000754:	f2c2 0000 	movt	r0, #8192	; 0x2000
20000758:	f001 ff22 	bl	200025a0 <ACE_get_channel_handle>
2000075c:	f24a 6331 	movw	r3, #42545	; 0xa631
20000760:	f2c2 0300 	movt	r3, #8192	; 0x2000
20000764:	7018      	strb	r0, [r3, #0]

	for(i = 0; i < 1000; i++){
20000766:	f649 6358 	movw	r3, #40536	; 0x9e58
2000076a:	f2c2 0300 	movt	r3, #8192	; 0x2000
2000076e:	f04f 0100 	mov.w	r1, #0
20000772:	8019      	strh	r1, [r3, #0]
	    adc_data_2 = ACE_get_ppe_sample(adc_handler_2);
20000774:	f649 6744 	movw	r7, #40516	; 0x9e44
20000778:	f2c2 0700 	movt	r7, #8192	; 0x2000
2000077c:	f24b 55d4 	movw	r5, #46548	; 0xb5d4
20000780:	f2c2 0500 	movt	r5, #8192	; 0x2000
	    adc_data_3 = ACE_get_ppe_sample(adc_handler_3);
20000784:	f24a 682c 	movw	r8, #42540	; 0xa62c
20000788:	f2c2 0800 	movt	r8, #8192	; 0x2000
2000078c:	f649 6446 	movw	r4, #40518	; 0x9e46
20000790:	f2c2 0400 	movt	r4, #8192	; 0x2000
	    adc_data_4 = ACE_get_ppe_sample(adc_handler_4);
20000794:	f24a 6a30 	movw	sl, #42544	; 0xa630
20000798:	f2c2 0a00 	movt	sl, #8192	; 0x2000
2000079c:	f24a 662e 	movw	r6, #42542	; 0xa62e
200007a0:	f2c2 0600 	movt	r6, #8192	; 0x2000
	    adc_data_5 = ACE_get_ppe_sample(adc_handler_5);
200007a4:	f24a 6931 	movw	r9, #42545	; 0xa631
200007a8:	f2c2 0900 	movt	r9, #8192	; 0x2000
200007ac:	f649 6b48 	movw	fp, #40520	; 0x9e48
200007b0:	f2c2 0b00 	movt	fp, #8192	; 0x2000
	    adc_buffer2[i] = adc_data_2;
200007b4:	f649 625c 	movw	r2, #40540	; 0x9e5c
200007b8:	f2c2 0200 	movt	r2, #8192	; 0x2000
200007bc:	9202      	str	r2, [sp, #8]
	adc_handler_3 = ACE_get_channel_handle((const uint8_t *)"ADCDirectInput_3");
	adc_handler_4 = ACE_get_channel_handle((const uint8_t *)"ADCDirectInput_4");
	adc_handler_5 = ACE_get_channel_handle((const uint8_t *)"ADCDirectInput_5");

	for(i = 0; i < 1000; i++){
	    adc_data_2 = ACE_get_ppe_sample(adc_handler_2);
200007be:	7838      	ldrb	r0, [r7, #0]
200007c0:	f001 ff28 	bl	20002614 <ACE_get_ppe_sample>
200007c4:	8028      	strh	r0, [r5, #0]
	    adc_data_3 = ACE_get_ppe_sample(adc_handler_3);
200007c6:	f898 0000 	ldrb.w	r0, [r8]
200007ca:	f001 ff23 	bl	20002614 <ACE_get_ppe_sample>
200007ce:	8020      	strh	r0, [r4, #0]
	    adc_data_4 = ACE_get_ppe_sample(adc_handler_4);
200007d0:	f89a 0000 	ldrb.w	r0, [sl]
200007d4:	f001 ff1e 	bl	20002614 <ACE_get_ppe_sample>
200007d8:	8030      	strh	r0, [r6, #0]
	    adc_data_5 = ACE_get_ppe_sample(adc_handler_5);
200007da:	f899 0000 	ldrb.w	r0, [r9]
200007de:	f001 ff19 	bl	20002614 <ACE_get_ppe_sample>
200007e2:	f8ab 0000 	strh.w	r0, [fp]
	    adc_buffer2[i] = adc_data_2;
200007e6:	f649 6358 	movw	r3, #40536	; 0x9e58
200007ea:	f2c2 0300 	movt	r3, #8192	; 0x2000
200007ee:	881a      	ldrh	r2, [r3, #0]
200007f0:	f8b5 c000 	ldrh.w	ip, [r5]
200007f4:	9902      	ldr	r1, [sp, #8]
200007f6:	f821 c012 	strh.w	ip, [r1, r2, lsl #1]
	    adc_buffer3[i] = adc_data_3;
200007fa:	f24b 51dc 	movw	r1, #46556	; 0xb5dc
200007fe:	f2c2 0100 	movt	r1, #8192	; 0x2000
20000802:	f8b4 e000 	ldrh.w	lr, [r4]
20000806:	f821 e012 	strh.w	lr, [r1, r2, lsl #1]
	    adc_buffer4[i] = adc_data_4;
2000080a:	f24a 6134 	movw	r1, #42548	; 0xa634
2000080e:	f2c2 0100 	movt	r1, #8192	; 0x2000
20000812:	f8b6 e000 	ldrh.w	lr, [r6]
20000816:	f821 e012 	strh.w	lr, [r1, r2, lsl #1]
	    adc_buffer5[i] = adc_data_5;
2000081a:	f64a 6104 	movw	r1, #44548	; 0xae04
2000081e:	f2c2 0100 	movt	r1, #8192	; 0x2000
20000822:	f821 0012 	strh.w	r0, [r1, r2, lsl #1]
	    adc_sum2 += adc_buffer2[i];
20000826:	f649 52f4 	movw	r2, #40436	; 0x9df4
2000082a:	f2c2 0200 	movt	r2, #8192	; 0x2000
2000082e:	fa1f fc8c 	uxth.w	ip, ip
20000832:	6811      	ldr	r1, [r2, #0]
20000834:	4461      	add	r1, ip
20000836:	6011      	str	r1, [r2, #0]
	adc_handler_2 = ACE_get_channel_handle((const uint8_t *)"ADCDirectInput_2");
	adc_handler_3 = ACE_get_channel_handle((const uint8_t *)"ADCDirectInput_3");
	adc_handler_4 = ACE_get_channel_handle((const uint8_t *)"ADCDirectInput_4");
	adc_handler_5 = ACE_get_channel_handle((const uint8_t *)"ADCDirectInput_5");

	for(i = 0; i < 1000; i++){
20000838:	881a      	ldrh	r2, [r3, #0]
2000083a:	f102 0201 	add.w	r2, r2, #1
2000083e:	b292      	uxth	r2, r2
20000840:	801a      	strh	r2, [r3, #0]
20000842:	f5b2 7f7a 	cmp.w	r2, #1000	; 0x3e8
20000846:	d3ba      	bcc.n	200007be <main+0xba>
	    adc_buffer4[i] = adc_data_4;
	    adc_buffer5[i] = adc_data_5;
	    adc_sum2 += adc_buffer2[i];
	}

	adc_wait = ADC_IR_WAIT;
20000848:	f24b 53d6 	movw	r3, #46550	; 0xb5d6
2000084c:	f2c2 0300 	movt	r3, #8192	; 0x2000
20000850:	f04f 01c8 	mov.w	r1, #200	; 0xc8
20000854:	8019      	strh	r1, [r3, #0]

	const uint8_t frame_size = 8;
	uint32_t initial_set[5] = {0x80, 0x42, 0x00, 0xFF, 0xFF};
20000856:	f249 35f4 	movw	r5, #37876	; 0x93f4
2000085a:	f2c2 0500 	movt	r5, #8192	; 0x2000
2000085e:	ac19      	add	r4, sp, #100	; 0x64
20000860:	cd0f      	ldmia	r5!, {r0, r1, r2, r3}
20000862:	c40f      	stmia	r4!, {r0, r1, r2, r3}
20000864:	682b      	ldr	r3, [r5, #0]
20000866:	6023      	str	r3, [r4, #0]

	uint32_t command_set[9] = {0x80, 0x42, 0x00, 0x00, 0x00, 0x00, 0x00, 0x00, 0x00};
20000868:	f249 35d0 	movw	r5, #37840	; 0x93d0
2000086c:	f2c2 0500 	movt	r5, #8192	; 0x2000
20000870:	ac10      	add	r4, sp, #64	; 0x40
20000872:	cd0f      	ldmia	r5!, {r0, r1, r2, r3}
20000874:	c40f      	stmia	r4!, {r0, r1, r2, r3}
20000876:	cd0f      	ldmia	r5!, {r0, r1, r2, r3}
20000878:	c40f      	stmia	r4!, {r0, r1, r2, r3}
2000087a:	682b      	ldr	r3, [r5, #0]
2000087c:	6023      	str	r3, [r4, #0]

	uint32_t base_orient_x, base_orient_y;
	uint32_t turrent_orient_h, turrent_orient_v;
	uint32_t fire;

	*led_rg_addr = (1 << 2) + (1 << 1) + 1;
2000087e:	f649 038c 	movw	r3, #39052	; 0x988c
20000882:	f2c2 0300 	movt	r3, #8192	; 0x2000
20000886:	681b      	ldr	r3, [r3, #0]
20000888:	f04f 0607 	mov.w	r6, #7
2000088c:	601e      	str	r6, [r3, #0]

	*pwm_h_addr = servo_h_initial;
2000088e:	f649 037c 	movw	r3, #39036	; 0x987c
20000892:	f2c2 0300 	movt	r3, #8192	; 0x2000
20000896:	681a      	ldr	r2, [r3, #0]
20000898:	f242 43f8 	movw	r3, #9464	; 0x24f8
2000089c:	f2c0 0301 	movt	r3, #1
200008a0:	6013      	str	r3, [r2, #0]
	*pwm_v_addr = servo_v_initial;
200008a2:	f649 0290 	movw	r2, #39056	; 0x9890
200008a6:	f2c2 0200 	movt	r2, #8192	; 0x2000
200008aa:	6812      	ldr	r2, [r2, #0]
200008ac:	6013      	str	r3, [r2, #0]

	h_angle = servo_h_initial;
200008ae:	f24b 52d8 	movw	r2, #46552	; 0xb5d8
200008b2:	f2c2 0200 	movt	r2, #8192	; 0x2000
200008b6:	6013      	str	r3, [r2, #0]
	v_angle = servo_v_initial;
200008b8:	f649 6254 	movw	r2, #40532	; 0x9e54
200008bc:	f2c2 0200 	movt	r2, #8192	; 0x2000
200008c0:	6013      	str	r3, [r2, #0]

	MYTIMER_init();
200008c2:	f000 faf7 	bl	20000eb4 <MYTIMER_init>
	MYTIMER_setOverflowVal(100000000);
200008c6:	f24e 1000 	movw	r0, #57600	; 0xe100
200008ca:	f2c0 50f5 	movt	r0, #1525	; 0x5f5
200008ce:	f000 fb07 	bl	20000ee0 <MYTIMER_setOverflowVal>
	DELAY_init();
200008d2:	f000 fb0b 	bl	20000eec <DELAY_init>

    MSS_UART_init( &g_mss_uart1, MSS_UART_57600_BAUD,
200008d6:	f64b 50ac 	movw	r0, #48556	; 0xbdac
200008da:	f2c2 0000 	movt	r0, #8192	; 0x2000
200008de:	f44f 4161 	mov.w	r1, #57600	; 0xe100
200008e2:	f04f 0203 	mov.w	r2, #3
200008e6:	f000 fc05 	bl	200010f4 <MSS_UART_init>
                   MSS_UART_DATA_8_BITS | MSS_UART_NO_PARITY | MSS_UART_ONE_STOP_BIT );

	MSS_GPIO_init( );
200008ea:	f001 fd83 	bl	200023f4 <MSS_GPIO_init>
	MSS_GPIO_config( MSS_GPIO_0, MSS_GPIO_OUTPUT_MODE ); // ps2 att
200008ee:	f04f 0000 	mov.w	r0, #0
200008f2:	f04f 0105 	mov.w	r1, #5
200008f6:	f001 fdb3 	bl	20002460 <MSS_GPIO_config>
	MSS_GPIO_config( MSS_GPIO_1, MSS_GPIO_OUTPUT_MODE ); // l298n
200008fa:	f04f 0001 	mov.w	r0, #1
200008fe:	f04f 0105 	mov.w	r1, #5
20000902:	f001 fdad 	bl	20002460 <MSS_GPIO_config>
	MSS_GPIO_config( MSS_GPIO_2, MSS_GPIO_OUTPUT_MODE ); // l298n
20000906:	f04f 0002 	mov.w	r0, #2
2000090a:	f04f 0105 	mov.w	r1, #5
2000090e:	f001 fda7 	bl	20002460 <MSS_GPIO_config>
	MSS_GPIO_config( MSS_GPIO_3, MSS_GPIO_OUTPUT_MODE ); // l298n
20000912:	f04f 0003 	mov.w	r0, #3
20000916:	f04f 0105 	mov.w	r1, #5
2000091a:	f001 fda1 	bl	20002460 <MSS_GPIO_config>
	MSS_GPIO_config( MSS_GPIO_4, MSS_GPIO_OUTPUT_MODE ); // l298n
2000091e:	f04f 0004 	mov.w	r0, #4
20000922:	f04f 0105 	mov.w	r1, #5
20000926:	f001 fd9b 	bl	20002460 <MSS_GPIO_config>
	MSS_GPIO_config( MSS_GPIO_5, MSS_GPIO_INPUT_MODE | MSS_GPIO_IRQ_EDGE_POSITIVE ); // reload interrupt
2000092a:	f04f 0005 	mov.w	r0, #5
2000092e:	f04f 0142 	mov.w	r1, #66	; 0x42
20000932:	f001 fd95 	bl	20002460 <MSS_GPIO_config>
	MSS_GPIO_config( MSS_GPIO_8, MSS_GPIO_INPUT_MODE | MSS_GPIO_IRQ_EDGE_POSITIVE ); // fire interrupt
20000936:	f04f 0008 	mov.w	r0, #8
2000093a:	f04f 0142 	mov.w	r1, #66	; 0x42
2000093e:	f001 fd8f 	bl	20002460 <MSS_GPIO_config>

	MSS_GPIO_enable_irq( MSS_GPIO_5 );
20000942:	f04f 0005 	mov.w	r0, #5
20000946:	f001 fdc9 	bl	200024dc <MSS_GPIO_enable_irq>
	MSS_GPIO_enable_irq( MSS_GPIO_8 );
2000094a:	f04f 0008 	mov.w	r0, #8
2000094e:	f001 fdc5 	bl	200024dc <MSS_GPIO_enable_irq>

	*fire_addr = 0;
20000952:	f649 0380 	movw	r3, #39040	; 0x9880
20000956:	f2c2 0300 	movt	r3, #8192	; 0x2000
2000095a:	681b      	ldr	r3, [r3, #0]
2000095c:	f04f 0400 	mov.w	r4, #0
20000960:	601c      	str	r4, [r3, #0]

	reload = 0;
20000962:	f649 634c 	movw	r3, #40524	; 0x9e4c
20000966:	f2c2 0300 	movt	r3, #8192	; 0x2000
2000096a:	601c      	str	r4, [r3, #0]

	MSS_GPIO_set_output(MSS_GPIO_0,1);
2000096c:	4620      	mov	r0, r4
2000096e:	f04f 0101 	mov.w	r1, #1
20000972:	f001 fd93 	bl	2000249c <MSS_GPIO_set_output>
	setMotorPin(0, 0, 0, 0, 0, 0);
20000976:	9400      	str	r4, [sp, #0]
20000978:	9401      	str	r4, [sp, #4]
2000097a:	4620      	mov	r0, r4
2000097c:	4621      	mov	r1, r4
2000097e:	4622      	mov	r2, r4
20000980:	4623      	mov	r3, r4
20000982:	f7ff fe7d 	bl	20000680 <setMotorPin>

	MSS_SPI_init( &g_mss_spi1 );
20000986:	f64b 55fc 	movw	r5, #48636	; 0xbdfc
2000098a:	f2c2 0500 	movt	r5, #8192	; 0x2000
2000098e:	4628      	mov	r0, r5
20000990:	f000 ff90 	bl	200018b4 <MSS_SPI_init>
	MSS_SPI_configure_master_mode
20000994:	f04f 0308 	mov.w	r3, #8
20000998:	9300      	str	r3, [sp, #0]
2000099a:	4628      	mov	r0, r5
2000099c:	4621      	mov	r1, r4
2000099e:	f04f 7240 	mov.w	r2, #50331648	; 0x3000000
200009a2:	4633      	mov	r3, r6
200009a4:	f001 f8d0 	bl	20001b48 <MSS_SPI_configure_master_mode>
		MSS_SPI_MODE3,
		MSS_SPI_PCLK_DIV_256,
		frame_size
	);

	MSS_SPI_set_slave_select( &g_mss_spi1, MSS_SPI_SLAVE_0 );
200009a8:	4628      	mov	r0, r5
200009aa:	4621      	mov	r1, r4
200009ac:	f001 f95c 	bl	20001c68 <MSS_SPI_set_slave_select>

	MSS_GPIO_set_output(MSS_GPIO_0,0);
200009b0:	4620      	mov	r0, r4
200009b2:	4621      	mov	r1, r4
200009b4:	f001 fd72 	bl	2000249c <MSS_GPIO_set_output>
	for(i = 0; i < 5;i++){
200009b8:	f649 6358 	movw	r3, #40536	; 0x9e58
200009bc:	f2c2 0300 	movt	r3, #8192	; 0x2000
200009c0:	801c      	strh	r4, [r3, #0]
200009c2:	4625      	mov	r5, r4
		master_tx_frame = initial_set[i];
		receive_set[i] = MSS_SPI_transfer_frame( &g_mss_spi1, master_tx_frame );
200009c4:	f64b 56fc 	movw	r6, #48636	; 0xbdfc
200009c8:	f2c2 0600 	movt	r6, #8192	; 0x2000
		delay(2000);
200009cc:	f44f 67fa 	mov.w	r7, #2000	; 0x7d0
	);

	MSS_SPI_set_slave_select( &g_mss_spi1, MSS_SPI_SLAVE_0 );

	MSS_GPIO_set_output(MSS_GPIO_0,0);
	for(i = 0; i < 5;i++){
200009d0:	46b0      	mov	r8, r6
200009d2:	461e      	mov	r6, r3
		master_tx_frame = initial_set[i];
		receive_set[i] = MSS_SPI_transfer_frame( &g_mss_spi1, master_tx_frame );
200009d4:	aa1e      	add	r2, sp, #120	; 0x78
200009d6:	eb02 0485 	add.w	r4, r2, r5, lsl #2
200009da:	4640      	mov	r0, r8
200009dc:	f854 1c14 	ldr.w	r1, [r4, #-20]
200009e0:	f001 fa0e 	bl	20001e00 <MSS_SPI_transfer_frame>
200009e4:	f844 0c5c 	str.w	r0, [r4, #-92]
		delay(2000);
200009e8:	4638      	mov	r0, r7
200009ea:	f7ff fe71 	bl	200006d0 <delay>
	);

	MSS_SPI_set_slave_select( &g_mss_spi1, MSS_SPI_SLAVE_0 );

	MSS_GPIO_set_output(MSS_GPIO_0,0);
	for(i = 0; i < 5;i++){
200009ee:	8835      	ldrh	r5, [r6, #0]
200009f0:	f105 0501 	add.w	r5, r5, #1
200009f4:	b2ad      	uxth	r5, r5
200009f6:	8035      	strh	r5, [r6, #0]
200009f8:	2d04      	cmp	r5, #4
200009fa:	d9eb      	bls.n	200009d4 <main+0x2d0>
		master_tx_frame = initial_set[i];
		receive_set[i] = MSS_SPI_transfer_frame( &g_mss_spi1, master_tx_frame );
		delay(2000);
	}
	MSS_GPIO_set_output(MSS_GPIO_0,1);
200009fc:	f04f 0000 	mov.w	r0, #0
20000a00:	f04f 0101 	mov.w	r1, #1
20000a04:	f001 fd4a 	bl	2000249c <MSS_GPIO_set_output>
	delay(100000);
20000a08:	f248 60a0 	movw	r0, #34464	; 0x86a0
20000a0c:	f2c0 0001 	movt	r0, #1
20000a10:	f7ff fe5e 	bl	200006d0 <delay>

	while(1){
		message[0] = 0;
20000a14:	f649 6a50 	movw	sl, #40528	; 0x9e50
20000a18:	f2c2 0a00 	movt	sl, #8192	; 0x2000
20000a1c:	f04f 0800 	mov.w	r8, #0
20000a20:	f88d 8013 	strb.w	r8, [sp, #19]
		if(adc_wait == ADC_IR_WAIT){
			if(adc_data_2 < 500 || adc_data_3 < 500 || adc_data_4 < 500 || adc_data_5 < 500){
				message[0] = 0x61; // 0x61 for A and 0x62 for B
				MSS_UART_polled_tx_string( &g_mss_uart1, message);
				//printf("HIT\r\n");
				printf("%d %d %d %d\r\n",adc_data_2,adc_data_3,adc_data_4,adc_data_5);
20000a24:	f249 4358 	movw	r3, #37976	; 0x9458
20000a28:	f2c2 0300 	movt	r3, #8192	; 0x2000
20000a2c:	9302      	str	r3, [sp, #8]
		else{
			adc_wait = ADC_IR_WAIT;
		}

		MSS_GPIO_set_output(MSS_GPIO_0,0);
		for(i = 0; i < 9;i++){
20000a2e:	f649 6558 	movw	r5, #40536	; 0x9e58
20000a32:	f2c2 0500 	movt	r5, #8192	; 0x2000
			master_tx_frame = command_set[i];
			receive_set[i] = MSS_SPI_transfer_frame( &g_mss_spi1, master_tx_frame );
20000a36:	f64b 56fc 	movw	r6, #48636	; 0xbdfc
20000a3a:	f2c2 0600 	movt	r6, #8192	; 0x2000
			delay(2000);
		}
		MSS_GPIO_set_output(MSS_GPIO_0,1);

		delay(100000);
20000a3e:	f248 6ba0 	movw	fp, #34464	; 0x86a0
20000a42:	f2c0 0b01 	movt	fp, #1
	}
	MSS_GPIO_set_output(MSS_GPIO_0,1);
	delay(100000);

	while(1){
		message[0] = 0;
20000a46:	f89d e013 	ldrb.w	lr, [sp, #19]
20000a4a:	f88a e000 	strb.w	lr, [sl]
		MSS_UART_get_rx(&g_mss_uart1, message, sizeof(message));
20000a4e:	f64b 50ac 	movw	r0, #48556	; 0xbdac
20000a52:	f2c2 0000 	movt	r0, #8192	; 0x2000
20000a56:	4651      	mov	r1, sl
20000a58:	f04f 0201 	mov.w	r2, #1
20000a5c:	f000 fd26 	bl	200014ac <MSS_UART_get_rx>
		if(message[0] == 0x70 || message[0] == 0x71){ // game over
20000a60:	f89a 3000 	ldrb.w	r3, [sl]
20000a64:	f1a3 0370 	sub.w	r3, r3, #112	; 0x70
20000a68:	b2db      	uxtb	r3, r3
20000a6a:	2b01      	cmp	r3, #1
20000a6c:	f240 81d3 	bls.w	20000e16 <main+0x712>
			break;
		}

		adc_data_2 = ACE_get_ppe_sample(adc_handler_2);
20000a70:	f649 6344 	movw	r3, #40516	; 0x9e44
20000a74:	f2c2 0300 	movt	r3, #8192	; 0x2000
20000a78:	7818      	ldrb	r0, [r3, #0]
20000a7a:	f001 fdcb 	bl	20002614 <ACE_get_ppe_sample>
20000a7e:	f24b 53d4 	movw	r3, #46548	; 0xb5d4
20000a82:	f2c2 0300 	movt	r3, #8192	; 0x2000
20000a86:	8018      	strh	r0, [r3, #0]
		adc_data_3 = ACE_get_ppe_sample(adc_handler_3);
20000a88:	f24a 632c 	movw	r3, #42540	; 0xa62c
20000a8c:	f2c2 0300 	movt	r3, #8192	; 0x2000
20000a90:	7818      	ldrb	r0, [r3, #0]
20000a92:	f001 fdbf 	bl	20002614 <ACE_get_ppe_sample>
20000a96:	f649 6346 	movw	r3, #40518	; 0x9e46
20000a9a:	f2c2 0300 	movt	r3, #8192	; 0x2000
20000a9e:	8018      	strh	r0, [r3, #0]
		adc_data_4 = ACE_get_ppe_sample(adc_handler_4);
20000aa0:	f24a 6330 	movw	r3, #42544	; 0xa630
20000aa4:	f2c2 0300 	movt	r3, #8192	; 0x2000
20000aa8:	7818      	ldrb	r0, [r3, #0]
20000aaa:	f001 fdb3 	bl	20002614 <ACE_get_ppe_sample>
20000aae:	f24a 632e 	movw	r3, #42542	; 0xa62e
20000ab2:	f2c2 0300 	movt	r3, #8192	; 0x2000
20000ab6:	8018      	strh	r0, [r3, #0]
		adc_data_5 = ACE_get_ppe_sample(adc_handler_5);
20000ab8:	f24a 6331 	movw	r3, #42545	; 0xa631
20000abc:	f2c2 0300 	movt	r3, #8192	; 0x2000
20000ac0:	7818      	ldrb	r0, [r3, #0]
20000ac2:	f001 fda7 	bl	20002614 <ACE_get_ppe_sample>
20000ac6:	f649 6348 	movw	r3, #40520	; 0x9e48
20000aca:	f2c2 0300 	movt	r3, #8192	; 0x2000
20000ace:	8018      	strh	r0, [r3, #0]

		//printf("%d %d %d %d\r\n",adc_data_2,adc_data_3,adc_data_4,adc_data_5);

		if(adc_wait == ADC_IR_WAIT){
20000ad0:	f24b 53d6 	movw	r3, #46550	; 0xb5d6
20000ad4:	f2c2 0300 	movt	r3, #8192	; 0x2000
20000ad8:	881b      	ldrh	r3, [r3, #0]
20000ada:	2bc8      	cmp	r3, #200	; 0xc8
20000adc:	d146      	bne.n	20000b6c <main+0x468>
			if(adc_data_2 < 500 || adc_data_3 < 500 || adc_data_4 < 500 || adc_data_5 < 500){
20000ade:	f24b 53d4 	movw	r3, #46548	; 0xb5d4
20000ae2:	f2c2 0300 	movt	r3, #8192	; 0x2000
20000ae6:	881b      	ldrh	r3, [r3, #0]
20000ae8:	f5b3 7ffa 	cmp.w	r3, #500	; 0x1f4
20000aec:	d312      	bcc.n	20000b14 <main+0x410>
20000aee:	f649 6346 	movw	r3, #40518	; 0x9e46
20000af2:	f2c2 0300 	movt	r3, #8192	; 0x2000
20000af6:	881b      	ldrh	r3, [r3, #0]
20000af8:	f5b3 7ffa 	cmp.w	r3, #500	; 0x1f4
20000afc:	d30a      	bcc.n	20000b14 <main+0x410>
20000afe:	f24a 632e 	movw	r3, #42542	; 0xa62e
20000b02:	f2c2 0300 	movt	r3, #8192	; 0x2000
20000b06:	881b      	ldrh	r3, [r3, #0]
20000b08:	f5b3 7ffa 	cmp.w	r3, #500	; 0x1f4
20000b0c:	d302      	bcc.n	20000b14 <main+0x410>
20000b0e:	f5b0 7ffa 	cmp.w	r0, #500	; 0x1f4
20000b12:	d23b      	bcs.n	20000b8c <main+0x488>
				message[0] = 0x61; // 0x61 for A and 0x62 for B
20000b14:	f04f 0361 	mov.w	r3, #97	; 0x61
20000b18:	f88a 3000 	strb.w	r3, [sl]
				MSS_UART_polled_tx_string( &g_mss_uart1, message);
20000b1c:	f64b 50ac 	movw	r0, #48556	; 0xbdac
20000b20:	f2c2 0000 	movt	r0, #8192	; 0x2000
20000b24:	4651      	mov	r1, sl
20000b26:	f000 fc59 	bl	200013dc <MSS_UART_polled_tx_string>
				//printf("HIT\r\n");
				printf("%d %d %d %d\r\n",adc_data_2,adc_data_3,adc_data_4,adc_data_5);
20000b2a:	f24b 53d4 	movw	r3, #46548	; 0xb5d4
20000b2e:	f2c2 0300 	movt	r3, #8192	; 0x2000
20000b32:	8819      	ldrh	r1, [r3, #0]
20000b34:	f649 6346 	movw	r3, #40518	; 0x9e46
20000b38:	f2c2 0300 	movt	r3, #8192	; 0x2000
20000b3c:	881a      	ldrh	r2, [r3, #0]
20000b3e:	f24a 632e 	movw	r3, #42542	; 0xa62e
20000b42:	f2c2 0300 	movt	r3, #8192	; 0x2000
20000b46:	881b      	ldrh	r3, [r3, #0]
20000b48:	f649 6048 	movw	r0, #40520	; 0x9e48
20000b4c:	f2c2 0000 	movt	r0, #8192	; 0x2000
20000b50:	8800      	ldrh	r0, [r0, #0]
20000b52:	9000      	str	r0, [sp, #0]
20000b54:	9802      	ldr	r0, [sp, #8]
20000b56:	f002 fac3 	bl	200030e0 <printf>
				adc_wait--;
20000b5a:	f24b 53d6 	movw	r3, #46550	; 0xb5d6
20000b5e:	f2c2 0300 	movt	r3, #8192	; 0x2000
20000b62:	881a      	ldrh	r2, [r3, #0]
20000b64:	f102 32ff 	add.w	r2, r2, #4294967295
20000b68:	801a      	strh	r2, [r3, #0]
20000b6a:	e00f      	b.n	20000b8c <main+0x488>
			}
		}
		else if(adc_wait > 0){
20000b6c:	b13b      	cbz	r3, 20000b7e <main+0x47a>
			adc_wait--;
20000b6e:	f24b 52d6 	movw	r2, #46550	; 0xb5d6
20000b72:	f2c2 0200 	movt	r2, #8192	; 0x2000
20000b76:	f103 33ff 	add.w	r3, r3, #4294967295
20000b7a:	8013      	strh	r3, [r2, #0]
20000b7c:	e006      	b.n	20000b8c <main+0x488>
		}
		else{
			adc_wait = ADC_IR_WAIT;
20000b7e:	f24b 53d6 	movw	r3, #46550	; 0xb5d6
20000b82:	f2c2 0300 	movt	r3, #8192	; 0x2000
20000b86:	f04f 01c8 	mov.w	r1, #200	; 0xc8
20000b8a:	8019      	strh	r1, [r3, #0]
		}

		MSS_GPIO_set_output(MSS_GPIO_0,0);
20000b8c:	4640      	mov	r0, r8
20000b8e:	4641      	mov	r1, r8
20000b90:	f001 fc84 	bl	2000249c <MSS_GPIO_set_output>
		for(i = 0; i < 9;i++){
20000b94:	f8a5 8000 	strh.w	r8, [r5]
20000b98:	4644      	mov	r4, r8
			master_tx_frame = command_set[i];
			receive_set[i] = MSS_SPI_transfer_frame( &g_mss_spi1, master_tx_frame );
			delay(2000);
20000b9a:	f44f 67fa 	mov.w	r7, #2000	; 0x7d0
		}

		MSS_GPIO_set_output(MSS_GPIO_0,0);
		for(i = 0; i < 9;i++){
			master_tx_frame = command_set[i];
			receive_set[i] = MSS_SPI_transfer_frame( &g_mss_spi1, master_tx_frame );
20000b9e:	aa1e      	add	r2, sp, #120	; 0x78
20000ba0:	eb02 0484 	add.w	r4, r2, r4, lsl #2
20000ba4:	4630      	mov	r0, r6
20000ba6:	f854 1c38 	ldr.w	r1, [r4, #-56]
20000baa:	f001 f929 	bl	20001e00 <MSS_SPI_transfer_frame>
20000bae:	f844 0c5c 	str.w	r0, [r4, #-92]
			delay(2000);
20000bb2:	4638      	mov	r0, r7
20000bb4:	f7ff fd8c 	bl	200006d0 <delay>
		else{
			adc_wait = ADC_IR_WAIT;
		}

		MSS_GPIO_set_output(MSS_GPIO_0,0);
		for(i = 0; i < 9;i++){
20000bb8:	882c      	ldrh	r4, [r5, #0]
20000bba:	f104 0401 	add.w	r4, r4, #1
20000bbe:	b2a4      	uxth	r4, r4
20000bc0:	802c      	strh	r4, [r5, #0]
20000bc2:	2c08      	cmp	r4, #8
20000bc4:	d9eb      	bls.n	20000b9e <main+0x49a>
			master_tx_frame = command_set[i];
			receive_set[i] = MSS_SPI_transfer_frame( &g_mss_spi1, master_tx_frame );
			delay(2000);
		}
		MSS_GPIO_set_output(MSS_GPIO_0,1);
20000bc6:	4640      	mov	r0, r8
20000bc8:	f04f 0101 	mov.w	r1, #1
20000bcc:	f001 fc66 	bl	2000249c <MSS_GPIO_set_output>

		delay(100000);
20000bd0:	4658      	mov	r0, fp
20000bd2:	f7ff fd7d 	bl	200006d0 <delay>

		if(receive_set[1] != 0xCE) continue;
20000bd6:	9b08      	ldr	r3, [sp, #32]
20000bd8:	2bce      	cmp	r3, #206	; 0xce
20000bda:	f47f af34 	bne.w	20000a46 <main+0x342>

		base_orient_x = (~reverseBit(receive_set[7]))&0xFF;
20000bde:	980e      	ldr	r0, [sp, #56]	; 0x38
20000be0:	f7ff fc5e 	bl	200004a0 <reverseBit>
20000be4:	ea6f 0000 	mvn.w	r0, r0
20000be8:	f000 00ff 	and.w	r0, r0, #255	; 0xff
20000bec:	9003      	str	r0, [sp, #12]
		base_orient_y = reverseBit(receive_set[8]);
20000bee:	980f      	ldr	r0, [sp, #60]	; 0x3c
20000bf0:	f7ff fc56 	bl	200004a0 <reverseBit>
20000bf4:	4681      	mov	r9, r0
		turrent_orient_h = (~reverseBit(receive_set[5]))&0xFF;
20000bf6:	980c      	ldr	r0, [sp, #48]	; 0x30
20000bf8:	f7ff fc52 	bl	200004a0 <reverseBit>
20000bfc:	ea6f 0000 	mvn.w	r0, r0
20000c00:	f000 07ff 	and.w	r7, r0, #255	; 0xff
		turrent_orient_v = reverseBit(receive_set[6]);
20000c04:	980d      	ldr	r0, [sp, #52]	; 0x34
20000c06:	f7ff fc4b 	bl	200004a0 <reverseBit>
20000c0a:	4604      	mov	r4, r0
		fire = (receive_set[4] >> 4) & 0xF;
20000c0c:	9b0b      	ldr	r3, [sp, #44]	; 0x2c
20000c0e:	9305      	str	r3, [sp, #20]

		//printf("polled data: %02X %02X %02X %02X %02X %d\r\n", base_orient_x, base_orient_y, turrent_orient_h, turrent_orient_v, fire, h_angle);

		if(base_orient_x > 0x90){
20000c10:	f8dd e00c 	ldr.w	lr, [sp, #12]
20000c14:	f1be 0f90 	cmp.w	lr, #144	; 0x90
20000c18:	d92d      	bls.n	20000c76 <main+0x572>
			if(base_orient_y > 0x90){
20000c1a:	f1b9 0f90 	cmp.w	r9, #144	; 0x90
20000c1e:	d90b      	bls.n	20000c38 <main+0x534>
				setMotorPin(0, 1, 0, 1, BACKWARD_SPEED, BACKWARD_SPEED); // southwest
20000c20:	f64e 2360 	movw	r3, #60000	; 0xea60
20000c24:	9300      	str	r3, [sp, #0]
20000c26:	9301      	str	r3, [sp, #4]
20000c28:	4640      	mov	r0, r8
20000c2a:	f04f 0101 	mov.w	r1, #1
20000c2e:	4642      	mov	r2, r8
20000c30:	460b      	mov	r3, r1
20000c32:	f7ff fd25 	bl	20000680 <setMotorPin>
20000c36:	e079      	b.n	20000d2c <main+0x628>
			}
			else if(base_orient_y < 0x6E){
20000c38:	f1b9 0f6d 	cmp.w	r9, #109	; 0x6d
20000c3c:	d80d      	bhi.n	20000c5a <main+0x556>
				setMotorPin(1, 0, 1, 0, FORWARD_SPEED, FORWARD_SPEED); // northwest
20000c3e:	f643 0380 	movw	r3, #14464	; 0x3880
20000c42:	f2c0 0301 	movt	r3, #1
20000c46:	9300      	str	r3, [sp, #0]
20000c48:	9301      	str	r3, [sp, #4]
20000c4a:	f04f 0001 	mov.w	r0, #1
20000c4e:	4641      	mov	r1, r8
20000c50:	4602      	mov	r2, r0
20000c52:	4643      	mov	r3, r8
20000c54:	f7ff fd14 	bl	20000680 <setMotorPin>
20000c58:	e068      	b.n	20000d2c <main+0x628>
			}
			else{
				setMotorPin(0, 1, 1, 0, TURN_SPEED, TURN_SPEED); // west
20000c5a:	f645 7390 	movw	r3, #24464	; 0x5f90
20000c5e:	f2c0 0301 	movt	r3, #1
20000c62:	9300      	str	r3, [sp, #0]
20000c64:	9301      	str	r3, [sp, #4]
20000c66:	4640      	mov	r0, r8
20000c68:	f04f 0101 	mov.w	r1, #1
20000c6c:	460a      	mov	r2, r1
20000c6e:	4643      	mov	r3, r8
20000c70:	f7ff fd06 	bl	20000680 <setMotorPin>
20000c74:	e05a      	b.n	20000d2c <main+0x628>
			}
		}
		else if(base_orient_x < 0x6E){
20000c76:	9903      	ldr	r1, [sp, #12]
20000c78:	296d      	cmp	r1, #109	; 0x6d
20000c7a:	d82d      	bhi.n	20000cd8 <main+0x5d4>
			if(base_orient_y > 0x90){
20000c7c:	f1b9 0f90 	cmp.w	r9, #144	; 0x90
20000c80:	d90b      	bls.n	20000c9a <main+0x596>
				setMotorPin(0, 1, 0, 1, BACKWARD_SPEED, BACKWARD_SPEED); // southeast
20000c82:	f64e 2360 	movw	r3, #60000	; 0xea60
20000c86:	9300      	str	r3, [sp, #0]
20000c88:	9301      	str	r3, [sp, #4]
20000c8a:	4640      	mov	r0, r8
20000c8c:	f04f 0101 	mov.w	r1, #1
20000c90:	4642      	mov	r2, r8
20000c92:	460b      	mov	r3, r1
20000c94:	f7ff fcf4 	bl	20000680 <setMotorPin>
20000c98:	e048      	b.n	20000d2c <main+0x628>
			}
			else if(base_orient_y < 0x6E){
20000c9a:	f1b9 0f6d 	cmp.w	r9, #109	; 0x6d
20000c9e:	d80d      	bhi.n	20000cbc <main+0x5b8>
				setMotorPin(1, 0, 1, 0, FORWARD_SPEED, FORWARD_SPEED); // northeast
20000ca0:	f643 0380 	movw	r3, #14464	; 0x3880
20000ca4:	f2c0 0301 	movt	r3, #1
20000ca8:	9300      	str	r3, [sp, #0]
20000caa:	9301      	str	r3, [sp, #4]
20000cac:	f04f 0001 	mov.w	r0, #1
20000cb0:	4641      	mov	r1, r8
20000cb2:	4602      	mov	r2, r0
20000cb4:	4643      	mov	r3, r8
20000cb6:	f7ff fce3 	bl	20000680 <setMotorPin>
20000cba:	e037      	b.n	20000d2c <main+0x628>
			}
			else{
				setMotorPin(1, 0, 0, 1, TURN_SPEED, TURN_SPEED); // east
20000cbc:	f645 7390 	movw	r3, #24464	; 0x5f90
20000cc0:	f2c0 0301 	movt	r3, #1
20000cc4:	9300      	str	r3, [sp, #0]
20000cc6:	9301      	str	r3, [sp, #4]
20000cc8:	f04f 0001 	mov.w	r0, #1
20000ccc:	4641      	mov	r1, r8
20000cce:	4642      	mov	r2, r8
20000cd0:	4603      	mov	r3, r0
20000cd2:	f7ff fcd5 	bl	20000680 <setMotorPin>
20000cd6:	e029      	b.n	20000d2c <main+0x628>
			}
		}
		else{
			if(base_orient_y > 0x90){
20000cd8:	f1b9 0f90 	cmp.w	r9, #144	; 0x90
20000cdc:	d90b      	bls.n	20000cf6 <main+0x5f2>
				setMotorPin(0, 1, 0, 1, BACKWARD_SPEED, BACKWARD_SPEED); // south
20000cde:	f64e 2360 	movw	r3, #60000	; 0xea60
20000ce2:	9300      	str	r3, [sp, #0]
20000ce4:	9301      	str	r3, [sp, #4]
20000ce6:	4640      	mov	r0, r8
20000ce8:	f04f 0101 	mov.w	r1, #1
20000cec:	4642      	mov	r2, r8
20000cee:	460b      	mov	r3, r1
20000cf0:	f7ff fcc6 	bl	20000680 <setMotorPin>
20000cf4:	e01a      	b.n	20000d2c <main+0x628>
			}
			else if(base_orient_y < 0x6E){
20000cf6:	f1b9 0f6d 	cmp.w	r9, #109	; 0x6d
20000cfa:	d80d      	bhi.n	20000d18 <main+0x614>
				setMotorPin(1, 0, 1, 0, FORWARD_SPEED, FORWARD_SPEED); // north
20000cfc:	f643 0380 	movw	r3, #14464	; 0x3880
20000d00:	f2c0 0301 	movt	r3, #1
20000d04:	9300      	str	r3, [sp, #0]
20000d06:	9301      	str	r3, [sp, #4]
20000d08:	f04f 0001 	mov.w	r0, #1
20000d0c:	4641      	mov	r1, r8
20000d0e:	4602      	mov	r2, r0
20000d10:	4643      	mov	r3, r8
20000d12:	f7ff fcb5 	bl	20000680 <setMotorPin>
20000d16:	e009      	b.n	20000d2c <main+0x628>
			}
			else{
				setMotorPin(0, 0, 0, 0, 0, 0); // stop
20000d18:	f8cd 8000 	str.w	r8, [sp]
20000d1c:	f8cd 8004 	str.w	r8, [sp, #4]
20000d20:	4640      	mov	r0, r8
20000d22:	4641      	mov	r1, r8
20000d24:	4642      	mov	r2, r8
20000d26:	4643      	mov	r3, r8
20000d28:	f7ff fcaa 	bl	20000680 <setMotorPin>
			}
		}

		if(turrent_orient_h > 0x90){
20000d2c:	2f90      	cmp	r7, #144	; 0x90
20000d2e:	d914      	bls.n	20000d5a <main+0x656>
			if(turrent_orient_v > 0x90){
20000d30:	2c90      	cmp	r4, #144	; 0x90
20000d32:	d907      	bls.n	20000d44 <main+0x640>
				setServoPin(-1,turrent_orient_h,-1,turrent_orient_v); // southwest
20000d34:	f04f 30ff 	mov.w	r0, #4294967295
20000d38:	4639      	mov	r1, r7
20000d3a:	4602      	mov	r2, r0
20000d3c:	4623      	mov	r3, r4
20000d3e:	f7ff fbc3 	bl	200004c8 <setServoPin>
20000d42:	e035      	b.n	20000db0 <main+0x6ac>
			}
			else if(turrent_orient_v < 0x6E){
20000d44:	2c6d      	cmp	r4, #109	; 0x6d
				setServoPin(-1,turrent_orient_h,1,turrent_orient_v); // northwest
20000d46:	f04f 30ff 	mov.w	r0, #4294967295
20000d4a:	4639      	mov	r1, r7
20000d4c:	bf94      	ite	ls
20000d4e:	2201      	movls	r2, #1
			}
			else{
				setServoPin(-1,turrent_orient_h,0,turrent_orient_v); // west
20000d50:	4642      	movhi	r2, r8
20000d52:	4623      	mov	r3, r4
20000d54:	f7ff fbb8 	bl	200004c8 <setServoPin>
20000d58:	e02a      	b.n	20000db0 <main+0x6ac>
			}
		}
		else if(turrent_orient_h < 0x6E){
20000d5a:	2f6d      	cmp	r7, #109	; 0x6d
20000d5c:	d815      	bhi.n	20000d8a <main+0x686>
			if(turrent_orient_v > 0x90){
20000d5e:	2c90      	cmp	r4, #144	; 0x90
20000d60:	d908      	bls.n	20000d74 <main+0x670>
				setServoPin(1,turrent_orient_h,-1,turrent_orient_v); // southeast
20000d62:	f04f 0001 	mov.w	r0, #1
20000d66:	4639      	mov	r1, r7
20000d68:	f04f 32ff 	mov.w	r2, #4294967295
20000d6c:	4623      	mov	r3, r4
20000d6e:	f7ff fbab 	bl	200004c8 <setServoPin>
20000d72:	e01d      	b.n	20000db0 <main+0x6ac>
			}
			else if(turrent_orient_v < 0x6E){
20000d74:	2c6d      	cmp	r4, #109	; 0x6d
				setServoPin(1,turrent_orient_h,1,turrent_orient_v); // northeast
20000d76:	f04f 0001 	mov.w	r0, #1
20000d7a:	4639      	mov	r1, r7
20000d7c:	bf94      	ite	ls
20000d7e:	4602      	movls	r2, r0
			}
			else{
				setServoPin(1,turrent_orient_h,0,turrent_orient_v); // east
20000d80:	4642      	movhi	r2, r8
20000d82:	4623      	mov	r3, r4
20000d84:	f7ff fba0 	bl	200004c8 <setServoPin>
20000d88:	e012      	b.n	20000db0 <main+0x6ac>
			}
		}
		else{
			if(turrent_orient_v > 0x90){
20000d8a:	2c90      	cmp	r4, #144	; 0x90
20000d8c:	d907      	bls.n	20000d9e <main+0x69a>
				setServoPin(0,turrent_orient_h,-1,turrent_orient_v); // south
20000d8e:	4640      	mov	r0, r8
20000d90:	4639      	mov	r1, r7
20000d92:	f04f 32ff 	mov.w	r2, #4294967295
20000d96:	4623      	mov	r3, r4
20000d98:	f7ff fb96 	bl	200004c8 <setServoPin>
20000d9c:	e008      	b.n	20000db0 <main+0x6ac>
			}
			else if(turrent_orient_v < 0x6E){
20000d9e:	2c6d      	cmp	r4, #109	; 0x6d
				setServoPin(0,turrent_orient_h,1,turrent_orient_v); // north
20000da0:	4640      	mov	r0, r8
20000da2:	4639      	mov	r1, r7
20000da4:	bf94      	ite	ls
20000da6:	2201      	movls	r2, #1
			}
			else{
				setServoPin(0,turrent_orient_h,0,turrent_orient_v); // stop
20000da8:	4642      	movhi	r2, r8
20000daa:	4623      	mov	r3, r4
20000dac:	f7ff fb8c 	bl	200004c8 <setServoPin>
			}
		}

		if(fire == 0xB && !reload){
20000db0:	9a05      	ldr	r2, [sp, #20]
20000db2:	ea4f 1312 	mov.w	r3, r2, lsr #4
20000db6:	f003 030f 	and.w	r3, r3, #15
20000dba:	2b0b      	cmp	r3, #11
20000dbc:	f47f ae43 	bne.w	20000a46 <main+0x342>
20000dc0:	f649 634c 	movw	r3, #40524	; 0x9e4c
20000dc4:	f2c2 0300 	movt	r3, #8192	; 0x2000
20000dc8:	681b      	ldr	r3, [r3, #0]
20000dca:	2b00      	cmp	r3, #0
20000dcc:	f47f ae3b 	bne.w	20000a46 <main+0x342>
			*fire_addr = 1;
20000dd0:	f649 0380 	movw	r3, #39040	; 0x9880
20000dd4:	f2c2 0300 	movt	r3, #8192	; 0x2000
20000dd8:	681b      	ldr	r3, [r3, #0]
20000dda:	f04f 0201 	mov.w	r2, #1
20000dde:	601a      	str	r2, [r3, #0]
			*led_rg_addr = (1 << 2) + (0 << 1) + 1;
20000de0:	f649 038c 	movw	r3, #39052	; 0x988c
20000de4:	f2c2 0300 	movt	r3, #8192	; 0x2000
20000de8:	681b      	ldr	r3, [r3, #0]
20000dea:	f04f 0105 	mov.w	r1, #5
20000dee:	6019      	str	r1, [r3, #0]
			reload = 1;
20000df0:	f649 634c 	movw	r3, #40524	; 0x9e4c
20000df4:	f2c2 0300 	movt	r3, #8192	; 0x2000
20000df8:	601a      	str	r2, [r3, #0]
			message[0] = 0x66; // 0x66 for A and 0x67 for B
20000dfa:	f04f 0366 	mov.w	r3, #102	; 0x66
20000dfe:	f88a 3000 	strb.w	r3, [sl]
			MSS_UART_polled_tx_string( &g_mss_uart1, message);
20000e02:	f64b 50ac 	movw	r0, #48556	; 0xbdac
20000e06:	f2c2 0000 	movt	r0, #8192	; 0x2000
20000e0a:	4651      	mov	r1, sl
20000e0c:	f000 fae6 	bl	200013dc <MSS_UART_polled_tx_string>
			MYTIMER_enable();
20000e10:	f000 f852 	bl	20000eb8 <MYTIMER_enable>
20000e14:	e617      	b.n	20000a46 <main+0x342>
			//printf("FIRE\r\n");
		}
	}

	MSS_GPIO_set_output(MSS_GPIO_0,1);
20000e16:	f04f 0000 	mov.w	r0, #0
20000e1a:	f04f 0101 	mov.w	r1, #1
20000e1e:	f001 fb3d 	bl	2000249c <MSS_GPIO_set_output>

	MSS_SPI_clear_slave_select( &g_mss_spi1, MSS_SPI_SLAVE_0 );
20000e22:	f64b 50fc 	movw	r0, #48636	; 0xbdfc
20000e26:	f2c2 0000 	movt	r0, #8192	; 0x2000
20000e2a:	f04f 0100 	mov.w	r1, #0
20000e2e:	f000 ff9f 	bl	20001d70 <MSS_SPI_clear_slave_select>

	setMotorPin(0, 0, 0, 0, 0, 0);
20000e32:	f04f 0400 	mov.w	r4, #0
20000e36:	9400      	str	r4, [sp, #0]
20000e38:	9401      	str	r4, [sp, #4]
20000e3a:	4620      	mov	r0, r4
20000e3c:	4621      	mov	r1, r4
20000e3e:	4622      	mov	r2, r4
20000e40:	4623      	mov	r3, r4
20000e42:	f7ff fc1d 	bl	20000680 <setMotorPin>
	setServoPin(0, 0, 0, 0);
20000e46:	4620      	mov	r0, r4
20000e48:	4621      	mov	r1, r4
20000e4a:	4622      	mov	r2, r4
20000e4c:	4623      	mov	r3, r4
20000e4e:	f7ff fb3b 	bl	200004c8 <setServoPin>

	if(message[0] == 0x70){ // 0x70 A wins and 0x71 B wins
20000e52:	f649 6350 	movw	r3, #40528	; 0x9e50
20000e56:	f2c2 0300 	movt	r3, #8192	; 0x2000
20000e5a:	781b      	ldrb	r3, [r3, #0]
20000e5c:	2b70      	cmp	r3, #112	; 0x70
20000e5e:	d11c      	bne.n	20000e9a <main+0x796>
		int color = 0;
		while(1){
			*led_rg_addr = (color << 3) + 1;
20000e60:	f649 058c 	movw	r5, #39052	; 0x988c
20000e64:	f2c2 0500 	movt	r5, #8192	; 0x2000
			color = (color + 1) % 4;
			delay(50000000);
20000e68:	f24f 0680 	movw	r6, #61568	; 0xf080
20000e6c:	f2c0 26fa 	movt	r6, #762	; 0x2fa
	setServoPin(0, 0, 0, 0);

	if(message[0] == 0x70){ // 0x70 A wins and 0x71 B wins
		int color = 0;
		while(1){
			*led_rg_addr = (color << 3) + 1;
20000e70:	682b      	ldr	r3, [r5, #0]
20000e72:	ea4f 02c4 	mov.w	r2, r4, lsl #3
20000e76:	f102 0201 	add.w	r2, r2, #1
20000e7a:	601a      	str	r2, [r3, #0]
			color = (color + 1) % 4;
20000e7c:	f104 0401 	add.w	r4, r4, #1
20000e80:	ea4f 73e4 	mov.w	r3, r4, asr #31
20000e84:	ea4f 7393 	mov.w	r3, r3, lsr #30
20000e88:	441c      	add	r4, r3
20000e8a:	f004 0403 	and.w	r4, r4, #3
20000e8e:	ebc3 0404 	rsb	r4, r3, r4
			delay(50000000);
20000e92:	4630      	mov	r0, r6
20000e94:	f7ff fc1c 	bl	200006d0 <delay>
20000e98:	e7ea      	b.n	20000e70 <main+0x76c>
		}
	}
	else{
		*led_rg_addr = (1 << 2) + (0 << 1) + 1;
20000e9a:	f649 038c 	movw	r3, #39052	; 0x988c
20000e9e:	f2c2 0300 	movt	r3, #8192	; 0x2000
20000ea2:	681b      	ldr	r3, [r3, #0]
20000ea4:	f04f 0205 	mov.w	r2, #5
20000ea8:	601a      	str	r2, [r3, #0]
	}

	return 0;
}
20000eaa:	f04f 0000 	mov.w	r0, #0
20000eae:	b01f      	add	sp, #124	; 0x7c
20000eb0:	e8bd 8ff0 	ldmia.w	sp!, {r4, r5, r6, r7, r8, r9, sl, fp, pc}

20000eb4 <MYTIMER_init>:
#include "my_timer.h"

void MYTIMER_init(void){}
20000eb4:	4770      	bx	lr
20000eb6:	bf00      	nop

20000eb8 <MYTIMER_enable>:

void MYTIMER_enable(void)
{
    MYTIMER->control |= ENABLE_MASK;
20000eb8:	f240 2300 	movw	r3, #512	; 0x200
20000ebc:	f2c4 0305 	movt	r3, #16389	; 0x4005
20000ec0:	689a      	ldr	r2, [r3, #8]
20000ec2:	f042 0201 	orr.w	r2, r2, #1
20000ec6:	609a      	str	r2, [r3, #8]
}
20000ec8:	4770      	bx	lr
20000eca:	bf00      	nop

20000ecc <MYTIMER_disable>:

void MYTIMER_disable(void)
{
    MYTIMER->control &= ~ENABLE_MASK;
20000ecc:	f240 2300 	movw	r3, #512	; 0x200
20000ed0:	f2c4 0305 	movt	r3, #16389	; 0x4005
20000ed4:	689a      	ldr	r2, [r3, #8]
20000ed6:	f022 0201 	bic.w	r2, r2, #1
20000eda:	609a      	str	r2, [r3, #8]
}
20000edc:	4770      	bx	lr
20000ede:	bf00      	nop

20000ee0 <MYTIMER_setOverflowVal>:

void MYTIMER_setOverflowVal(uint32_t value)
{
    uint32_t * timerAddr = (uint32_t*)(MYTIMER);
    *timerAddr = value; // overflowReg is at offset 0x0
20000ee0:	f240 2300 	movw	r3, #512	; 0x200
20000ee4:	f2c4 0305 	movt	r3, #16389	; 0x4005
20000ee8:	6018      	str	r0, [r3, #0]
}
20000eea:	4770      	bx	lr

20000eec <DELAY_init>:
{
    uint32_t * timerAddr = (uint32_t*)(MYTIMER);
    return *(timerAddr+1); // counterReg is at offset 0x4
}

void DELAY_init(void){}
20000eec:	4770      	bx	lr
20000eee:	bf00      	nop

20000ef0 <DELAY_enable>:

void DELAY_enable(void)
{
	DELAY->control |= ENABLE_MASK;
20000ef0:	f240 3300 	movw	r3, #768	; 0x300
20000ef4:	f2c4 0305 	movt	r3, #16389	; 0x4005
20000ef8:	689a      	ldr	r2, [r3, #8]
20000efa:	f042 0201 	orr.w	r2, r2, #1
20000efe:	609a      	str	r2, [r3, #8]
}
20000f00:	4770      	bx	lr
20000f02:	bf00      	nop

20000f04 <DELAY_disable>:

void DELAY_disable(void)
{
	DELAY->control &= ~ENABLE_MASK;
20000f04:	f240 3300 	movw	r3, #768	; 0x300
20000f08:	f2c4 0305 	movt	r3, #16389	; 0x4005
20000f0c:	689a      	ldr	r2, [r3, #8]
20000f0e:	f022 0201 	bic.w	r2, r2, #1
20000f12:	609a      	str	r2, [r3, #8]
}
20000f14:	4770      	bx	lr
20000f16:	bf00      	nop

20000f18 <DELAY_setOverflowVal>:

void DELAY_setOverflowVal(uint32_t value)
{
    uint32_t * delayAddr = (uint32_t*)(DELAY);
    *delayAddr = value; // overflowReg is at offset 0x0
20000f18:	f240 3300 	movw	r3, #768	; 0x300
20000f1c:	f2c4 0305 	movt	r3, #16389	; 0x4005
20000f20:	6018      	str	r0, [r3, #0]
}
20000f22:	4770      	bx	lr

20000f24 <DELAY_getCounterVal>:

uint32_t DELAY_getCounterVal(void)
{
    uint32_t * delayAddr = (uint32_t*)(DELAY);
    return *(delayAddr+1); // counterReg is at offset 0x4
20000f24:	f240 3304 	movw	r3, #772	; 0x304
20000f28:	f2c4 0305 	movt	r3, #16389	; 0x4005
}
20000f2c:	6818      	ldr	r0, [r3, #0]
20000f2e:	4770      	bx	lr

20000f30 <_close>:
20000f30:	b480      	push	{r7}
20000f32:	b083      	sub	sp, #12
20000f34:	af00      	add	r7, sp, #0
20000f36:	6078      	str	r0, [r7, #4]
20000f38:	f04f 33ff 	mov.w	r3, #4294967295
20000f3c:	4618      	mov	r0, r3
20000f3e:	f107 070c 	add.w	r7, r7, #12
20000f42:	46bd      	mov	sp, r7
20000f44:	bc80      	pop	{r7}
20000f46:	4770      	bx	lr

20000f48 <_exit>:
20000f48:	b480      	push	{r7}
20000f4a:	b083      	sub	sp, #12
20000f4c:	af00      	add	r7, sp, #0
20000f4e:	6078      	str	r0, [r7, #4]
20000f50:	e7fe      	b.n	20000f50 <_exit+0x8>
20000f52:	bf00      	nop

20000f54 <_fstat>:
20000f54:	b480      	push	{r7}
20000f56:	b083      	sub	sp, #12
20000f58:	af00      	add	r7, sp, #0
20000f5a:	6078      	str	r0, [r7, #4]
20000f5c:	6039      	str	r1, [r7, #0]
20000f5e:	683b      	ldr	r3, [r7, #0]
20000f60:	f44f 5200 	mov.w	r2, #8192	; 0x2000
20000f64:	605a      	str	r2, [r3, #4]
20000f66:	f04f 0300 	mov.w	r3, #0
20000f6a:	4618      	mov	r0, r3
20000f6c:	f107 070c 	add.w	r7, r7, #12
20000f70:	46bd      	mov	sp, r7
20000f72:	bc80      	pop	{r7}
20000f74:	4770      	bx	lr
20000f76:	bf00      	nop

20000f78 <_isatty>:
20000f78:	b480      	push	{r7}
20000f7a:	b083      	sub	sp, #12
20000f7c:	af00      	add	r7, sp, #0
20000f7e:	6078      	str	r0, [r7, #4]
20000f80:	f04f 0301 	mov.w	r3, #1
20000f84:	4618      	mov	r0, r3
20000f86:	f107 070c 	add.w	r7, r7, #12
20000f8a:	46bd      	mov	sp, r7
20000f8c:	bc80      	pop	{r7}
20000f8e:	4770      	bx	lr

20000f90 <_lseek>:
20000f90:	b480      	push	{r7}
20000f92:	b085      	sub	sp, #20
20000f94:	af00      	add	r7, sp, #0
20000f96:	60f8      	str	r0, [r7, #12]
20000f98:	60b9      	str	r1, [r7, #8]
20000f9a:	607a      	str	r2, [r7, #4]
20000f9c:	f04f 0300 	mov.w	r3, #0
20000fa0:	4618      	mov	r0, r3
20000fa2:	f107 0714 	add.w	r7, r7, #20
20000fa6:	46bd      	mov	sp, r7
20000fa8:	bc80      	pop	{r7}
20000faa:	4770      	bx	lr

20000fac <_read>:
20000fac:	b480      	push	{r7}
20000fae:	b085      	sub	sp, #20
20000fb0:	af00      	add	r7, sp, #0
20000fb2:	60f8      	str	r0, [r7, #12]
20000fb4:	60b9      	str	r1, [r7, #8]
20000fb6:	607a      	str	r2, [r7, #4]
20000fb8:	f04f 0300 	mov.w	r3, #0
20000fbc:	4618      	mov	r0, r3
20000fbe:	f107 0714 	add.w	r7, r7, #20
20000fc2:	46bd      	mov	sp, r7
20000fc4:	bc80      	pop	{r7}
20000fc6:	4770      	bx	lr

20000fc8 <_write_r>:
20000fc8:	b580      	push	{r7, lr}
20000fca:	b084      	sub	sp, #16
20000fcc:	af00      	add	r7, sp, #0
20000fce:	60f8      	str	r0, [r7, #12]
20000fd0:	60b9      	str	r1, [r7, #8]
20000fd2:	607a      	str	r2, [r7, #4]
20000fd4:	603b      	str	r3, [r7, #0]
20000fd6:	f649 53f8 	movw	r3, #40440	; 0x9df8
20000fda:	f2c2 0300 	movt	r3, #8192	; 0x2000
20000fde:	681b      	ldr	r3, [r3, #0]
20000fe0:	2b00      	cmp	r3, #0
20000fe2:	d110      	bne.n	20001006 <_write_r+0x3e>
20000fe4:	f64b 50d4 	movw	r0, #48596	; 0xbdd4
20000fe8:	f2c2 0000 	movt	r0, #8192	; 0x2000
20000fec:	f44f 4161 	mov.w	r1, #57600	; 0xe100
20000ff0:	f04f 0203 	mov.w	r2, #3
20000ff4:	f000 f87e 	bl	200010f4 <MSS_UART_init>
20000ff8:	f649 53f8 	movw	r3, #40440	; 0x9df8
20000ffc:	f2c2 0300 	movt	r3, #8192	; 0x2000
20001000:	f04f 0201 	mov.w	r2, #1
20001004:	601a      	str	r2, [r3, #0]
20001006:	683b      	ldr	r3, [r7, #0]
20001008:	f64b 50d4 	movw	r0, #48596	; 0xbdd4
2000100c:	f2c2 0000 	movt	r0, #8192	; 0x2000
20001010:	6879      	ldr	r1, [r7, #4]
20001012:	461a      	mov	r2, r3
20001014:	f000 f970 	bl	200012f8 <MSS_UART_polled_tx>
20001018:	683b      	ldr	r3, [r7, #0]
2000101a:	4618      	mov	r0, r3
2000101c:	f107 0710 	add.w	r7, r7, #16
20001020:	46bd      	mov	sp, r7
20001022:	bd80      	pop	{r7, pc}

20001024 <_sbrk>:
20001024:	b580      	push	{r7, lr}
20001026:	b084      	sub	sp, #16
20001028:	af00      	add	r7, sp, #0
2000102a:	6078      	str	r0, [r7, #4]
2000102c:	f649 53fc 	movw	r3, #40444	; 0x9dfc
20001030:	f2c2 0300 	movt	r3, #8192	; 0x2000
20001034:	681b      	ldr	r3, [r3, #0]
20001036:	2b00      	cmp	r3, #0
20001038:	d108      	bne.n	2000104c <_sbrk+0x28>
2000103a:	f649 53fc 	movw	r3, #40444	; 0x9dfc
2000103e:	f2c2 0300 	movt	r3, #8192	; 0x2000
20001042:	f64b 7208 	movw	r2, #48904	; 0xbf08
20001046:	f2c2 0200 	movt	r2, #8192	; 0x2000
2000104a:	601a      	str	r2, [r3, #0]
2000104c:	f649 53fc 	movw	r3, #40444	; 0x9dfc
20001050:	f2c2 0300 	movt	r3, #8192	; 0x2000
20001054:	681b      	ldr	r3, [r3, #0]
20001056:	60bb      	str	r3, [r7, #8]
20001058:	f3ef 8308 	mrs	r3, MSP
2000105c:	60fb      	str	r3, [r7, #12]
2000105e:	f649 53fc 	movw	r3, #40444	; 0x9dfc
20001062:	f2c2 0300 	movt	r3, #8192	; 0x2000
20001066:	681a      	ldr	r2, [r3, #0]
20001068:	687b      	ldr	r3, [r7, #4]
2000106a:	441a      	add	r2, r3
2000106c:	68fb      	ldr	r3, [r7, #12]
2000106e:	429a      	cmp	r2, r3
20001070:	d90f      	bls.n	20001092 <_sbrk+0x6e>
20001072:	f04f 0000 	mov.w	r0, #0
20001076:	f04f 0101 	mov.w	r1, #1
2000107a:	f249 4268 	movw	r2, #37992	; 0x9468
2000107e:	f2c2 0200 	movt	r2, #8192	; 0x2000
20001082:	f04f 0319 	mov.w	r3, #25
20001086:	f7ff ff9f 	bl	20000fc8 <_write_r>
2000108a:	f04f 0001 	mov.w	r0, #1
2000108e:	f7ff ff5b 	bl	20000f48 <_exit>
20001092:	f649 53fc 	movw	r3, #40444	; 0x9dfc
20001096:	f2c2 0300 	movt	r3, #8192	; 0x2000
2000109a:	681a      	ldr	r2, [r3, #0]
2000109c:	687b      	ldr	r3, [r7, #4]
2000109e:	441a      	add	r2, r3
200010a0:	f649 53fc 	movw	r3, #40444	; 0x9dfc
200010a4:	f2c2 0300 	movt	r3, #8192	; 0x2000
200010a8:	601a      	str	r2, [r3, #0]
200010aa:	68bb      	ldr	r3, [r7, #8]
200010ac:	4618      	mov	r0, r3
200010ae:	f107 0710 	add.w	r7, r7, #16
200010b2:	46bd      	mov	sp, r7
200010b4:	bd80      	pop	{r7, pc}
200010b6:	bf00      	nop

200010b8 <NVIC_ClearPendingIRQ>:
200010b8:	b480      	push	{r7}
200010ba:	b083      	sub	sp, #12
200010bc:	af00      	add	r7, sp, #0
200010be:	4603      	mov	r3, r0
200010c0:	80fb      	strh	r3, [r7, #6]
200010c2:	f24e 1300 	movw	r3, #57600	; 0xe100
200010c6:	f2ce 0300 	movt	r3, #57344	; 0xe000
200010ca:	f9b7 2006 	ldrsh.w	r2, [r7, #6]
200010ce:	ea4f 1252 	mov.w	r2, r2, lsr #5
200010d2:	88f9      	ldrh	r1, [r7, #6]
200010d4:	f001 011f 	and.w	r1, r1, #31
200010d8:	f04f 0001 	mov.w	r0, #1
200010dc:	fa00 f101 	lsl.w	r1, r0, r1
200010e0:	f102 0260 	add.w	r2, r2, #96	; 0x60
200010e4:	f843 1022 	str.w	r1, [r3, r2, lsl #2]
200010e8:	f107 070c 	add.w	r7, r7, #12
200010ec:	46bd      	mov	sp, r7
200010ee:	bc80      	pop	{r7}
200010f0:	4770      	bx	lr
200010f2:	bf00      	nop

200010f4 <MSS_UART_init>:
200010f4:	b580      	push	{r7, lr}
200010f6:	b088      	sub	sp, #32
200010f8:	af00      	add	r7, sp, #0
200010fa:	60f8      	str	r0, [r7, #12]
200010fc:	60b9      	str	r1, [r7, #8]
200010fe:	4613      	mov	r3, r2
20001100:	71fb      	strb	r3, [r7, #7]
20001102:	f04f 0301 	mov.w	r3, #1
20001106:	82fb      	strh	r3, [r7, #22]
20001108:	f04f 0300 	mov.w	r3, #0
2000110c:	61bb      	str	r3, [r7, #24]
2000110e:	68fa      	ldr	r2, [r7, #12]
20001110:	f64b 53d4 	movw	r3, #48596	; 0xbdd4
20001114:	f2c2 0300 	movt	r3, #8192	; 0x2000
20001118:	429a      	cmp	r2, r3
2000111a:	d007      	beq.n	2000112c <MSS_UART_init+0x38>
2000111c:	68fa      	ldr	r2, [r7, #12]
2000111e:	f64b 53ac 	movw	r3, #48556	; 0xbdac
20001122:	f2c2 0300 	movt	r3, #8192	; 0x2000
20001126:	429a      	cmp	r2, r3
20001128:	d000      	beq.n	2000112c <MSS_UART_init+0x38>
2000112a:	be00      	bkpt	0x0000
2000112c:	68bb      	ldr	r3, [r7, #8]
2000112e:	2b00      	cmp	r3, #0
20001130:	d100      	bne.n	20001134 <MSS_UART_init+0x40>
20001132:	be00      	bkpt	0x0000
20001134:	f001 fa9e 	bl	20002674 <SystemCoreClockUpdate>
20001138:	68fa      	ldr	r2, [r7, #12]
2000113a:	f64b 53d4 	movw	r3, #48596	; 0xbdd4
2000113e:	f2c2 0300 	movt	r3, #8192	; 0x2000
20001142:	429a      	cmp	r2, r3
20001144:	d12e      	bne.n	200011a4 <MSS_UART_init+0xb0>
20001146:	68fb      	ldr	r3, [r7, #12]
20001148:	f04f 4280 	mov.w	r2, #1073741824	; 0x40000000
2000114c:	601a      	str	r2, [r3, #0]
2000114e:	68fb      	ldr	r3, [r7, #12]
20001150:	f04f 4284 	mov.w	r2, #1107296256	; 0x42000000
20001154:	605a      	str	r2, [r3, #4]
20001156:	68fb      	ldr	r3, [r7, #12]
20001158:	f04f 020a 	mov.w	r2, #10
2000115c:	811a      	strh	r2, [r3, #8]
2000115e:	f649 039c 	movw	r3, #39068	; 0x989c
20001162:	f2c2 0300 	movt	r3, #8192	; 0x2000
20001166:	681b      	ldr	r3, [r3, #0]
20001168:	61bb      	str	r3, [r7, #24]
2000116a:	f242 0300 	movw	r3, #8192	; 0x2000
2000116e:	f2ce 0304 	movt	r3, #57348	; 0xe004
20001172:	f242 0200 	movw	r2, #8192	; 0x2000
20001176:	f2ce 0204 	movt	r2, #57348	; 0xe004
2000117a:	6b12      	ldr	r2, [r2, #48]	; 0x30
2000117c:	f042 0280 	orr.w	r2, r2, #128	; 0x80
20001180:	631a      	str	r2, [r3, #48]	; 0x30
20001182:	f04f 000a 	mov.w	r0, #10
20001186:	f7ff ff97 	bl	200010b8 <NVIC_ClearPendingIRQ>
2000118a:	f242 0300 	movw	r3, #8192	; 0x2000
2000118e:	f2ce 0304 	movt	r3, #57348	; 0xe004
20001192:	f242 0200 	movw	r2, #8192	; 0x2000
20001196:	f2ce 0204 	movt	r2, #57348	; 0xe004
2000119a:	6b12      	ldr	r2, [r2, #48]	; 0x30
2000119c:	f022 0280 	bic.w	r2, r2, #128	; 0x80
200011a0:	631a      	str	r2, [r3, #48]	; 0x30
200011a2:	e031      	b.n	20001208 <MSS_UART_init+0x114>
200011a4:	68fa      	ldr	r2, [r7, #12]
200011a6:	f240 0300 	movw	r3, #0
200011aa:	f2c4 0301 	movt	r3, #16385	; 0x4001
200011ae:	6013      	str	r3, [r2, #0]
200011b0:	68fa      	ldr	r2, [r7, #12]
200011b2:	f240 0300 	movw	r3, #0
200011b6:	f2c4 2320 	movt	r3, #16928	; 0x4220
200011ba:	6053      	str	r3, [r2, #4]
200011bc:	68fb      	ldr	r3, [r7, #12]
200011be:	f04f 020b 	mov.w	r2, #11
200011c2:	811a      	strh	r2, [r3, #8]
200011c4:	f649 03a0 	movw	r3, #39072	; 0x98a0
200011c8:	f2c2 0300 	movt	r3, #8192	; 0x2000
200011cc:	681b      	ldr	r3, [r3, #0]
200011ce:	61bb      	str	r3, [r7, #24]
200011d0:	f242 0300 	movw	r3, #8192	; 0x2000
200011d4:	f2ce 0304 	movt	r3, #57348	; 0xe004
200011d8:	f242 0200 	movw	r2, #8192	; 0x2000
200011dc:	f2ce 0204 	movt	r2, #57348	; 0xe004
200011e0:	6b12      	ldr	r2, [r2, #48]	; 0x30
200011e2:	f442 7280 	orr.w	r2, r2, #256	; 0x100
200011e6:	631a      	str	r2, [r3, #48]	; 0x30
200011e8:	f04f 000b 	mov.w	r0, #11
200011ec:	f7ff ff64 	bl	200010b8 <NVIC_ClearPendingIRQ>
200011f0:	f242 0300 	movw	r3, #8192	; 0x2000
200011f4:	f2ce 0304 	movt	r3, #57348	; 0xe004
200011f8:	f242 0200 	movw	r2, #8192	; 0x2000
200011fc:	f2ce 0204 	movt	r2, #57348	; 0xe004
20001200:	6b12      	ldr	r2, [r2, #48]	; 0x30
20001202:	f422 7280 	bic.w	r2, r2, #256	; 0x100
20001206:	631a      	str	r2, [r3, #48]	; 0x30
20001208:	68fb      	ldr	r3, [r7, #12]
2000120a:	681b      	ldr	r3, [r3, #0]
2000120c:	f04f 0200 	mov.w	r2, #0
20001210:	711a      	strb	r2, [r3, #4]
20001212:	68bb      	ldr	r3, [r7, #8]
20001214:	2b00      	cmp	r3, #0
20001216:	d021      	beq.n	2000125c <MSS_UART_init+0x168>
20001218:	69ba      	ldr	r2, [r7, #24]
2000121a:	68bb      	ldr	r3, [r7, #8]
2000121c:	fbb2 f3f3 	udiv	r3, r2, r3
20001220:	61fb      	str	r3, [r7, #28]
20001222:	69fb      	ldr	r3, [r7, #28]
20001224:	f003 0308 	and.w	r3, r3, #8
20001228:	2b00      	cmp	r3, #0
2000122a:	d006      	beq.n	2000123a <MSS_UART_init+0x146>
2000122c:	69fb      	ldr	r3, [r7, #28]
2000122e:	ea4f 1313 	mov.w	r3, r3, lsr #4
20001232:	f103 0301 	add.w	r3, r3, #1
20001236:	61fb      	str	r3, [r7, #28]
20001238:	e003      	b.n	20001242 <MSS_UART_init+0x14e>
2000123a:	69fb      	ldr	r3, [r7, #28]
2000123c:	ea4f 1313 	mov.w	r3, r3, lsr #4
20001240:	61fb      	str	r3, [r7, #28]
20001242:	69fa      	ldr	r2, [r7, #28]
20001244:	f64f 73ff 	movw	r3, #65535	; 0xffff
20001248:	429a      	cmp	r2, r3
2000124a:	d900      	bls.n	2000124e <MSS_UART_init+0x15a>
2000124c:	be00      	bkpt	0x0000
2000124e:	69fa      	ldr	r2, [r7, #28]
20001250:	f64f 73ff 	movw	r3, #65535	; 0xffff
20001254:	429a      	cmp	r2, r3
20001256:	d801      	bhi.n	2000125c <MSS_UART_init+0x168>
20001258:	69fb      	ldr	r3, [r7, #28]
2000125a:	82fb      	strh	r3, [r7, #22]
2000125c:	68fb      	ldr	r3, [r7, #12]
2000125e:	685b      	ldr	r3, [r3, #4]
20001260:	f04f 0201 	mov.w	r2, #1
20001264:	f8c3 219c 	str.w	r2, [r3, #412]	; 0x19c
20001268:	68fb      	ldr	r3, [r7, #12]
2000126a:	681b      	ldr	r3, [r3, #0]
2000126c:	8afa      	ldrh	r2, [r7, #22]
2000126e:	ea4f 2212 	mov.w	r2, r2, lsr #8
20001272:	b292      	uxth	r2, r2
20001274:	b2d2      	uxtb	r2, r2
20001276:	711a      	strb	r2, [r3, #4]
20001278:	68fb      	ldr	r3, [r7, #12]
2000127a:	681b      	ldr	r3, [r3, #0]
2000127c:	8afa      	ldrh	r2, [r7, #22]
2000127e:	b2d2      	uxtb	r2, r2
20001280:	701a      	strb	r2, [r3, #0]
20001282:	68fb      	ldr	r3, [r7, #12]
20001284:	685b      	ldr	r3, [r3, #4]
20001286:	f04f 0200 	mov.w	r2, #0
2000128a:	f8c3 219c 	str.w	r2, [r3, #412]	; 0x19c
2000128e:	68fb      	ldr	r3, [r7, #12]
20001290:	681b      	ldr	r3, [r3, #0]
20001292:	79fa      	ldrb	r2, [r7, #7]
20001294:	731a      	strb	r2, [r3, #12]
20001296:	68fb      	ldr	r3, [r7, #12]
20001298:	681b      	ldr	r3, [r3, #0]
2000129a:	f04f 020e 	mov.w	r2, #14
2000129e:	721a      	strb	r2, [r3, #8]
200012a0:	68fb      	ldr	r3, [r7, #12]
200012a2:	685b      	ldr	r3, [r3, #4]
200012a4:	f04f 0200 	mov.w	r2, #0
200012a8:	f8c3 2210 	str.w	r2, [r3, #528]	; 0x210
200012ac:	68fb      	ldr	r3, [r7, #12]
200012ae:	f04f 0200 	mov.w	r2, #0
200012b2:	611a      	str	r2, [r3, #16]
200012b4:	68fb      	ldr	r3, [r7, #12]
200012b6:	f04f 0200 	mov.w	r2, #0
200012ba:	60da      	str	r2, [r3, #12]
200012bc:	68fb      	ldr	r3, [r7, #12]
200012be:	f04f 0200 	mov.w	r2, #0
200012c2:	615a      	str	r2, [r3, #20]
200012c4:	68fb      	ldr	r3, [r7, #12]
200012c6:	f04f 0200 	mov.w	r2, #0
200012ca:	61da      	str	r2, [r3, #28]
200012cc:	68fa      	ldr	r2, [r7, #12]
200012ce:	f241 63a5 	movw	r3, #5797	; 0x16a5
200012d2:	f2c2 0300 	movt	r3, #8192	; 0x2000
200012d6:	6213      	str	r3, [r2, #32]
200012d8:	68fb      	ldr	r3, [r7, #12]
200012da:	f04f 0200 	mov.w	r2, #0
200012de:	619a      	str	r2, [r3, #24]
200012e0:	68fb      	ldr	r3, [r7, #12]
200012e2:	f04f 0200 	mov.w	r2, #0
200012e6:	625a      	str	r2, [r3, #36]	; 0x24
200012e8:	68fb      	ldr	r3, [r7, #12]
200012ea:	f04f 0200 	mov.w	r2, #0
200012ee:	729a      	strb	r2, [r3, #10]
200012f0:	f107 0720 	add.w	r7, r7, #32
200012f4:	46bd      	mov	sp, r7
200012f6:	bd80      	pop	{r7, pc}

200012f8 <MSS_UART_polled_tx>:
200012f8:	b480      	push	{r7}
200012fa:	b089      	sub	sp, #36	; 0x24
200012fc:	af00      	add	r7, sp, #0
200012fe:	60f8      	str	r0, [r7, #12]
20001300:	60b9      	str	r1, [r7, #8]
20001302:	607a      	str	r2, [r7, #4]
20001304:	f04f 0300 	mov.w	r3, #0
20001308:	613b      	str	r3, [r7, #16]
2000130a:	68fa      	ldr	r2, [r7, #12]
2000130c:	f64b 53d4 	movw	r3, #48596	; 0xbdd4
20001310:	f2c2 0300 	movt	r3, #8192	; 0x2000
20001314:	429a      	cmp	r2, r3
20001316:	d007      	beq.n	20001328 <MSS_UART_polled_tx+0x30>
20001318:	68fa      	ldr	r2, [r7, #12]
2000131a:	f64b 53ac 	movw	r3, #48556	; 0xbdac
2000131e:	f2c2 0300 	movt	r3, #8192	; 0x2000
20001322:	429a      	cmp	r2, r3
20001324:	d000      	beq.n	20001328 <MSS_UART_polled_tx+0x30>
20001326:	be00      	bkpt	0x0000
20001328:	68bb      	ldr	r3, [r7, #8]
2000132a:	2b00      	cmp	r3, #0
2000132c:	d100      	bne.n	20001330 <MSS_UART_polled_tx+0x38>
2000132e:	be00      	bkpt	0x0000
20001330:	687b      	ldr	r3, [r7, #4]
20001332:	2b00      	cmp	r3, #0
20001334:	d100      	bne.n	20001338 <MSS_UART_polled_tx+0x40>
20001336:	be00      	bkpt	0x0000
20001338:	68fa      	ldr	r2, [r7, #12]
2000133a:	f64b 53d4 	movw	r3, #48596	; 0xbdd4
2000133e:	f2c2 0300 	movt	r3, #8192	; 0x2000
20001342:	429a      	cmp	r2, r3
20001344:	d006      	beq.n	20001354 <MSS_UART_polled_tx+0x5c>
20001346:	68fa      	ldr	r2, [r7, #12]
20001348:	f64b 53ac 	movw	r3, #48556	; 0xbdac
2000134c:	f2c2 0300 	movt	r3, #8192	; 0x2000
20001350:	429a      	cmp	r2, r3
20001352:	d13d      	bne.n	200013d0 <MSS_UART_polled_tx+0xd8>
20001354:	68bb      	ldr	r3, [r7, #8]
20001356:	2b00      	cmp	r3, #0
20001358:	d03a      	beq.n	200013d0 <MSS_UART_polled_tx+0xd8>
2000135a:	687b      	ldr	r3, [r7, #4]
2000135c:	2b00      	cmp	r3, #0
2000135e:	d037      	beq.n	200013d0 <MSS_UART_polled_tx+0xd8>
20001360:	68fb      	ldr	r3, [r7, #12]
20001362:	681b      	ldr	r3, [r3, #0]
20001364:	7d1b      	ldrb	r3, [r3, #20]
20001366:	76fb      	strb	r3, [r7, #27]
20001368:	68fb      	ldr	r3, [r7, #12]
2000136a:	7a9a      	ldrb	r2, [r3, #10]
2000136c:	7efb      	ldrb	r3, [r7, #27]
2000136e:	ea42 0303 	orr.w	r3, r2, r3
20001372:	b2da      	uxtb	r2, r3
20001374:	68fb      	ldr	r3, [r7, #12]
20001376:	729a      	strb	r2, [r3, #10]
20001378:	7efb      	ldrb	r3, [r7, #27]
2000137a:	f003 0320 	and.w	r3, r3, #32
2000137e:	2b00      	cmp	r3, #0
20001380:	d023      	beq.n	200013ca <MSS_UART_polled_tx+0xd2>
20001382:	f04f 0310 	mov.w	r3, #16
20001386:	61fb      	str	r3, [r7, #28]
20001388:	687b      	ldr	r3, [r7, #4]
2000138a:	2b0f      	cmp	r3, #15
2000138c:	d801      	bhi.n	20001392 <MSS_UART_polled_tx+0x9a>
2000138e:	687b      	ldr	r3, [r7, #4]
20001390:	61fb      	str	r3, [r7, #28]
20001392:	f04f 0300 	mov.w	r3, #0
20001396:	617b      	str	r3, [r7, #20]
20001398:	e00e      	b.n	200013b8 <MSS_UART_polled_tx+0xc0>
2000139a:	68fb      	ldr	r3, [r7, #12]
2000139c:	681b      	ldr	r3, [r3, #0]
2000139e:	68b9      	ldr	r1, [r7, #8]
200013a0:	693a      	ldr	r2, [r7, #16]
200013a2:	440a      	add	r2, r1
200013a4:	7812      	ldrb	r2, [r2, #0]
200013a6:	701a      	strb	r2, [r3, #0]
200013a8:	693b      	ldr	r3, [r7, #16]
200013aa:	f103 0301 	add.w	r3, r3, #1
200013ae:	613b      	str	r3, [r7, #16]
200013b0:	697b      	ldr	r3, [r7, #20]
200013b2:	f103 0301 	add.w	r3, r3, #1
200013b6:	617b      	str	r3, [r7, #20]
200013b8:	697a      	ldr	r2, [r7, #20]
200013ba:	69fb      	ldr	r3, [r7, #28]
200013bc:	429a      	cmp	r2, r3
200013be:	d3ec      	bcc.n	2000139a <MSS_UART_polled_tx+0xa2>
200013c0:	687a      	ldr	r2, [r7, #4]
200013c2:	697b      	ldr	r3, [r7, #20]
200013c4:	ebc3 0302 	rsb	r3, r3, r2
200013c8:	607b      	str	r3, [r7, #4]
200013ca:	687b      	ldr	r3, [r7, #4]
200013cc:	2b00      	cmp	r3, #0
200013ce:	d1c7      	bne.n	20001360 <MSS_UART_polled_tx+0x68>
200013d0:	f107 0724 	add.w	r7, r7, #36	; 0x24
200013d4:	46bd      	mov	sp, r7
200013d6:	bc80      	pop	{r7}
200013d8:	4770      	bx	lr
200013da:	bf00      	nop

200013dc <MSS_UART_polled_tx_string>:
200013dc:	b480      	push	{r7}
200013de:	b087      	sub	sp, #28
200013e0:	af00      	add	r7, sp, #0
200013e2:	6078      	str	r0, [r7, #4]
200013e4:	6039      	str	r1, [r7, #0]
200013e6:	f04f 0300 	mov.w	r3, #0
200013ea:	60bb      	str	r3, [r7, #8]
200013ec:	687a      	ldr	r2, [r7, #4]
200013ee:	f64b 53d4 	movw	r3, #48596	; 0xbdd4
200013f2:	f2c2 0300 	movt	r3, #8192	; 0x2000
200013f6:	429a      	cmp	r2, r3
200013f8:	d007      	beq.n	2000140a <MSS_UART_polled_tx_string+0x2e>
200013fa:	687a      	ldr	r2, [r7, #4]
200013fc:	f64b 53ac 	movw	r3, #48556	; 0xbdac
20001400:	f2c2 0300 	movt	r3, #8192	; 0x2000
20001404:	429a      	cmp	r2, r3
20001406:	d000      	beq.n	2000140a <MSS_UART_polled_tx_string+0x2e>
20001408:	be00      	bkpt	0x0000
2000140a:	683b      	ldr	r3, [r7, #0]
2000140c:	2b00      	cmp	r3, #0
2000140e:	d100      	bne.n	20001412 <MSS_UART_polled_tx_string+0x36>
20001410:	be00      	bkpt	0x0000
20001412:	687a      	ldr	r2, [r7, #4]
20001414:	f64b 53d4 	movw	r3, #48596	; 0xbdd4
20001418:	f2c2 0300 	movt	r3, #8192	; 0x2000
2000141c:	429a      	cmp	r2, r3
2000141e:	d006      	beq.n	2000142e <MSS_UART_polled_tx_string+0x52>
20001420:	687a      	ldr	r2, [r7, #4]
20001422:	f64b 53ac 	movw	r3, #48556	; 0xbdac
20001426:	f2c2 0300 	movt	r3, #8192	; 0x2000
2000142a:	429a      	cmp	r2, r3
2000142c:	d138      	bne.n	200014a0 <MSS_UART_polled_tx_string+0xc4>
2000142e:	683b      	ldr	r3, [r7, #0]
20001430:	2b00      	cmp	r3, #0
20001432:	d035      	beq.n	200014a0 <MSS_UART_polled_tx_string+0xc4>
20001434:	683a      	ldr	r2, [r7, #0]
20001436:	68bb      	ldr	r3, [r7, #8]
20001438:	4413      	add	r3, r2
2000143a:	781b      	ldrb	r3, [r3, #0]
2000143c:	613b      	str	r3, [r7, #16]
2000143e:	e02c      	b.n	2000149a <MSS_UART_polled_tx_string+0xbe>
20001440:	687b      	ldr	r3, [r7, #4]
20001442:	681b      	ldr	r3, [r3, #0]
20001444:	7d1b      	ldrb	r3, [r3, #20]
20001446:	75fb      	strb	r3, [r7, #23]
20001448:	687b      	ldr	r3, [r7, #4]
2000144a:	7a9a      	ldrb	r2, [r3, #10]
2000144c:	7dfb      	ldrb	r3, [r7, #23]
2000144e:	ea42 0303 	orr.w	r3, r2, r3
20001452:	b2da      	uxtb	r2, r3
20001454:	687b      	ldr	r3, [r7, #4]
20001456:	729a      	strb	r2, [r3, #10]
20001458:	7dfb      	ldrb	r3, [r7, #23]
2000145a:	f003 0320 	and.w	r3, r3, #32
2000145e:	2b00      	cmp	r3, #0
20001460:	d0ee      	beq.n	20001440 <MSS_UART_polled_tx_string+0x64>
20001462:	f04f 0300 	mov.w	r3, #0
20001466:	60fb      	str	r3, [r7, #12]
20001468:	e011      	b.n	2000148e <MSS_UART_polled_tx_string+0xb2>
2000146a:	687b      	ldr	r3, [r7, #4]
2000146c:	681b      	ldr	r3, [r3, #0]
2000146e:	693a      	ldr	r2, [r7, #16]
20001470:	b2d2      	uxtb	r2, r2
20001472:	701a      	strb	r2, [r3, #0]
20001474:	68fb      	ldr	r3, [r7, #12]
20001476:	f103 0301 	add.w	r3, r3, #1
2000147a:	60fb      	str	r3, [r7, #12]
2000147c:	68bb      	ldr	r3, [r7, #8]
2000147e:	f103 0301 	add.w	r3, r3, #1
20001482:	60bb      	str	r3, [r7, #8]
20001484:	683a      	ldr	r2, [r7, #0]
20001486:	68bb      	ldr	r3, [r7, #8]
20001488:	4413      	add	r3, r2
2000148a:	781b      	ldrb	r3, [r3, #0]
2000148c:	613b      	str	r3, [r7, #16]
2000148e:	693b      	ldr	r3, [r7, #16]
20001490:	2b00      	cmp	r3, #0
20001492:	d002      	beq.n	2000149a <MSS_UART_polled_tx_string+0xbe>
20001494:	68fb      	ldr	r3, [r7, #12]
20001496:	2b0f      	cmp	r3, #15
20001498:	d9e7      	bls.n	2000146a <MSS_UART_polled_tx_string+0x8e>
2000149a:	693b      	ldr	r3, [r7, #16]
2000149c:	2b00      	cmp	r3, #0
2000149e:	d1cf      	bne.n	20001440 <MSS_UART_polled_tx_string+0x64>
200014a0:	f107 071c 	add.w	r7, r7, #28
200014a4:	46bd      	mov	sp, r7
200014a6:	bc80      	pop	{r7}
200014a8:	4770      	bx	lr
200014aa:	bf00      	nop

200014ac <MSS_UART_get_rx>:
200014ac:	b480      	push	{r7}
200014ae:	b087      	sub	sp, #28
200014b0:	af00      	add	r7, sp, #0
200014b2:	60f8      	str	r0, [r7, #12]
200014b4:	60b9      	str	r1, [r7, #8]
200014b6:	607a      	str	r2, [r7, #4]
200014b8:	f04f 0300 	mov.w	r3, #0
200014bc:	613b      	str	r3, [r7, #16]
200014be:	f04f 0300 	mov.w	r3, #0
200014c2:	75fb      	strb	r3, [r7, #23]
200014c4:	68fa      	ldr	r2, [r7, #12]
200014c6:	f64b 53d4 	movw	r3, #48596	; 0xbdd4
200014ca:	f2c2 0300 	movt	r3, #8192	; 0x2000
200014ce:	429a      	cmp	r2, r3
200014d0:	d007      	beq.n	200014e2 <MSS_UART_get_rx+0x36>
200014d2:	68fa      	ldr	r2, [r7, #12]
200014d4:	f64b 53ac 	movw	r3, #48556	; 0xbdac
200014d8:	f2c2 0300 	movt	r3, #8192	; 0x2000
200014dc:	429a      	cmp	r2, r3
200014de:	d000      	beq.n	200014e2 <MSS_UART_get_rx+0x36>
200014e0:	be00      	bkpt	0x0000
200014e2:	68bb      	ldr	r3, [r7, #8]
200014e4:	2b00      	cmp	r3, #0
200014e6:	d100      	bne.n	200014ea <MSS_UART_get_rx+0x3e>
200014e8:	be00      	bkpt	0x0000
200014ea:	687b      	ldr	r3, [r7, #4]
200014ec:	2b00      	cmp	r3, #0
200014ee:	d100      	bne.n	200014f2 <MSS_UART_get_rx+0x46>
200014f0:	be00      	bkpt	0x0000
200014f2:	68fa      	ldr	r2, [r7, #12]
200014f4:	f64b 53d4 	movw	r3, #48596	; 0xbdd4
200014f8:	f2c2 0300 	movt	r3, #8192	; 0x2000
200014fc:	429a      	cmp	r2, r3
200014fe:	d006      	beq.n	2000150e <MSS_UART_get_rx+0x62>
20001500:	68fa      	ldr	r2, [r7, #12]
20001502:	f64b 53ac 	movw	r3, #48556	; 0xbdac
20001506:	f2c2 0300 	movt	r3, #8192	; 0x2000
2000150a:	429a      	cmp	r2, r3
2000150c:	d134      	bne.n	20001578 <MSS_UART_get_rx+0xcc>
2000150e:	68bb      	ldr	r3, [r7, #8]
20001510:	2b00      	cmp	r3, #0
20001512:	d031      	beq.n	20001578 <MSS_UART_get_rx+0xcc>
20001514:	687b      	ldr	r3, [r7, #4]
20001516:	2b00      	cmp	r3, #0
20001518:	d02e      	beq.n	20001578 <MSS_UART_get_rx+0xcc>
2000151a:	68fb      	ldr	r3, [r7, #12]
2000151c:	681b      	ldr	r3, [r3, #0]
2000151e:	7d1b      	ldrb	r3, [r3, #20]
20001520:	75fb      	strb	r3, [r7, #23]
20001522:	68fb      	ldr	r3, [r7, #12]
20001524:	7a9a      	ldrb	r2, [r3, #10]
20001526:	7dfb      	ldrb	r3, [r7, #23]
20001528:	ea42 0303 	orr.w	r3, r2, r3
2000152c:	b2da      	uxtb	r2, r3
2000152e:	68fb      	ldr	r3, [r7, #12]
20001530:	729a      	strb	r2, [r3, #10]
20001532:	e017      	b.n	20001564 <MSS_UART_get_rx+0xb8>
20001534:	68ba      	ldr	r2, [r7, #8]
20001536:	693b      	ldr	r3, [r7, #16]
20001538:	4413      	add	r3, r2
2000153a:	68fa      	ldr	r2, [r7, #12]
2000153c:	6812      	ldr	r2, [r2, #0]
2000153e:	7812      	ldrb	r2, [r2, #0]
20001540:	b2d2      	uxtb	r2, r2
20001542:	701a      	strb	r2, [r3, #0]
20001544:	693b      	ldr	r3, [r7, #16]
20001546:	f103 0301 	add.w	r3, r3, #1
2000154a:	613b      	str	r3, [r7, #16]
2000154c:	68fb      	ldr	r3, [r7, #12]
2000154e:	681b      	ldr	r3, [r3, #0]
20001550:	7d1b      	ldrb	r3, [r3, #20]
20001552:	75fb      	strb	r3, [r7, #23]
20001554:	68fb      	ldr	r3, [r7, #12]
20001556:	7a9a      	ldrb	r2, [r3, #10]
20001558:	7dfb      	ldrb	r3, [r7, #23]
2000155a:	ea42 0303 	orr.w	r3, r2, r3
2000155e:	b2da      	uxtb	r2, r3
20001560:	68fb      	ldr	r3, [r7, #12]
20001562:	729a      	strb	r2, [r3, #10]
20001564:	7dfb      	ldrb	r3, [r7, #23]
20001566:	f003 0301 	and.w	r3, r3, #1
2000156a:	b2db      	uxtb	r3, r3
2000156c:	2b00      	cmp	r3, #0
2000156e:	d003      	beq.n	20001578 <MSS_UART_get_rx+0xcc>
20001570:	693a      	ldr	r2, [r7, #16]
20001572:	687b      	ldr	r3, [r7, #4]
20001574:	429a      	cmp	r2, r3
20001576:	d3dd      	bcc.n	20001534 <MSS_UART_get_rx+0x88>
20001578:	693b      	ldr	r3, [r7, #16]
2000157a:	4618      	mov	r0, r3
2000157c:	f107 071c 	add.w	r7, r7, #28
20001580:	46bd      	mov	sp, r7
20001582:	bc80      	pop	{r7}
20001584:	4770      	bx	lr
20001586:	bf00      	nop

20001588 <MSS_UART_isr>:
20001588:	b580      	push	{r7, lr}
2000158a:	b084      	sub	sp, #16
2000158c:	af00      	add	r7, sp, #0
2000158e:	6078      	str	r0, [r7, #4]
20001590:	687a      	ldr	r2, [r7, #4]
20001592:	f64b 53d4 	movw	r3, #48596	; 0xbdd4
20001596:	f2c2 0300 	movt	r3, #8192	; 0x2000
2000159a:	429a      	cmp	r2, r3
2000159c:	d007      	beq.n	200015ae <MSS_UART_isr+0x26>
2000159e:	687a      	ldr	r2, [r7, #4]
200015a0:	f64b 53ac 	movw	r3, #48556	; 0xbdac
200015a4:	f2c2 0300 	movt	r3, #8192	; 0x2000
200015a8:	429a      	cmp	r2, r3
200015aa:	d000      	beq.n	200015ae <MSS_UART_isr+0x26>
200015ac:	be00      	bkpt	0x0000
200015ae:	687a      	ldr	r2, [r7, #4]
200015b0:	f64b 53d4 	movw	r3, #48596	; 0xbdd4
200015b4:	f2c2 0300 	movt	r3, #8192	; 0x2000
200015b8:	429a      	cmp	r2, r3
200015ba:	d006      	beq.n	200015ca <MSS_UART_isr+0x42>
200015bc:	687a      	ldr	r2, [r7, #4]
200015be:	f64b 53ac 	movw	r3, #48556	; 0xbdac
200015c2:	f2c2 0300 	movt	r3, #8192	; 0x2000
200015c6:	429a      	cmp	r2, r3
200015c8:	d167      	bne.n	2000169a <MSS_UART_isr+0x112>
200015ca:	687b      	ldr	r3, [r7, #4]
200015cc:	681b      	ldr	r3, [r3, #0]
200015ce:	7a1b      	ldrb	r3, [r3, #8]
200015d0:	b2db      	uxtb	r3, r3
200015d2:	f003 030f 	and.w	r3, r3, #15
200015d6:	73fb      	strb	r3, [r7, #15]
200015d8:	7bfb      	ldrb	r3, [r7, #15]
200015da:	2b0c      	cmp	r3, #12
200015dc:	d854      	bhi.n	20001688 <MSS_UART_isr+0x100>
200015de:	a201      	add	r2, pc, #4	; (adr r2, 200015e4 <MSS_UART_isr+0x5c>)
200015e0:	f852 f023 	ldr.w	pc, [r2, r3, lsl #2]
200015e4:	20001619 	.word	0x20001619
200015e8:	20001689 	.word	0x20001689
200015ec:	20001635 	.word	0x20001635
200015f0:	20001689 	.word	0x20001689
200015f4:	20001651 	.word	0x20001651
200015f8:	20001689 	.word	0x20001689
200015fc:	2000166d 	.word	0x2000166d
20001600:	20001689 	.word	0x20001689
20001604:	20001689 	.word	0x20001689
20001608:	20001689 	.word	0x20001689
2000160c:	20001689 	.word	0x20001689
20001610:	20001689 	.word	0x20001689
20001614:	20001651 	.word	0x20001651
20001618:	687b      	ldr	r3, [r7, #4]
2000161a:	6a5b      	ldr	r3, [r3, #36]	; 0x24
2000161c:	2b00      	cmp	r3, #0
2000161e:	d100      	bne.n	20001622 <MSS_UART_isr+0x9a>
20001620:	be00      	bkpt	0x0000
20001622:	687b      	ldr	r3, [r7, #4]
20001624:	6a5b      	ldr	r3, [r3, #36]	; 0x24
20001626:	2b00      	cmp	r3, #0
20001628:	d030      	beq.n	2000168c <MSS_UART_isr+0x104>
2000162a:	687b      	ldr	r3, [r7, #4]
2000162c:	6a5b      	ldr	r3, [r3, #36]	; 0x24
2000162e:	6878      	ldr	r0, [r7, #4]
20001630:	4798      	blx	r3
20001632:	e032      	b.n	2000169a <MSS_UART_isr+0x112>
20001634:	687b      	ldr	r3, [r7, #4]
20001636:	6a1b      	ldr	r3, [r3, #32]
20001638:	2b00      	cmp	r3, #0
2000163a:	d100      	bne.n	2000163e <MSS_UART_isr+0xb6>
2000163c:	be00      	bkpt	0x0000
2000163e:	687b      	ldr	r3, [r7, #4]
20001640:	6a1b      	ldr	r3, [r3, #32]
20001642:	2b00      	cmp	r3, #0
20001644:	d024      	beq.n	20001690 <MSS_UART_isr+0x108>
20001646:	687b      	ldr	r3, [r7, #4]
20001648:	6a1b      	ldr	r3, [r3, #32]
2000164a:	6878      	ldr	r0, [r7, #4]
2000164c:	4798      	blx	r3
2000164e:	e024      	b.n	2000169a <MSS_UART_isr+0x112>
20001650:	687b      	ldr	r3, [r7, #4]
20001652:	69db      	ldr	r3, [r3, #28]
20001654:	2b00      	cmp	r3, #0
20001656:	d100      	bne.n	2000165a <MSS_UART_isr+0xd2>
20001658:	be00      	bkpt	0x0000
2000165a:	687b      	ldr	r3, [r7, #4]
2000165c:	69db      	ldr	r3, [r3, #28]
2000165e:	2b00      	cmp	r3, #0
20001660:	d018      	beq.n	20001694 <MSS_UART_isr+0x10c>
20001662:	687b      	ldr	r3, [r7, #4]
20001664:	69db      	ldr	r3, [r3, #28]
20001666:	6878      	ldr	r0, [r7, #4]
20001668:	4798      	blx	r3
2000166a:	e016      	b.n	2000169a <MSS_UART_isr+0x112>
2000166c:	687b      	ldr	r3, [r7, #4]
2000166e:	699b      	ldr	r3, [r3, #24]
20001670:	2b00      	cmp	r3, #0
20001672:	d100      	bne.n	20001676 <MSS_UART_isr+0xee>
20001674:	be00      	bkpt	0x0000
20001676:	687b      	ldr	r3, [r7, #4]
20001678:	699b      	ldr	r3, [r3, #24]
2000167a:	2b00      	cmp	r3, #0
2000167c:	d00c      	beq.n	20001698 <MSS_UART_isr+0x110>
2000167e:	687b      	ldr	r3, [r7, #4]
20001680:	699b      	ldr	r3, [r3, #24]
20001682:	6878      	ldr	r0, [r7, #4]
20001684:	4798      	blx	r3
20001686:	e008      	b.n	2000169a <MSS_UART_isr+0x112>
20001688:	be00      	bkpt	0x0000
2000168a:	e006      	b.n	2000169a <MSS_UART_isr+0x112>
2000168c:	bf00      	nop
2000168e:	e004      	b.n	2000169a <MSS_UART_isr+0x112>
20001690:	bf00      	nop
20001692:	e002      	b.n	2000169a <MSS_UART_isr+0x112>
20001694:	bf00      	nop
20001696:	e000      	b.n	2000169a <MSS_UART_isr+0x112>
20001698:	bf00      	nop
2000169a:	f107 0710 	add.w	r7, r7, #16
2000169e:	46bd      	mov	sp, r7
200016a0:	bd80      	pop	{r7, pc}
200016a2:	bf00      	nop

200016a4 <default_tx_handler>:
200016a4:	b480      	push	{r7}
200016a6:	b087      	sub	sp, #28
200016a8:	af00      	add	r7, sp, #0
200016aa:	6078      	str	r0, [r7, #4]
200016ac:	687a      	ldr	r2, [r7, #4]
200016ae:	f64b 53d4 	movw	r3, #48596	; 0xbdd4
200016b2:	f2c2 0300 	movt	r3, #8192	; 0x2000
200016b6:	429a      	cmp	r2, r3
200016b8:	d007      	beq.n	200016ca <default_tx_handler+0x26>
200016ba:	687a      	ldr	r2, [r7, #4]
200016bc:	f64b 53ac 	movw	r3, #48556	; 0xbdac
200016c0:	f2c2 0300 	movt	r3, #8192	; 0x2000
200016c4:	429a      	cmp	r2, r3
200016c6:	d000      	beq.n	200016ca <default_tx_handler+0x26>
200016c8:	be00      	bkpt	0x0000
200016ca:	687b      	ldr	r3, [r7, #4]
200016cc:	68db      	ldr	r3, [r3, #12]
200016ce:	2b00      	cmp	r3, #0
200016d0:	d100      	bne.n	200016d4 <default_tx_handler+0x30>
200016d2:	be00      	bkpt	0x0000
200016d4:	687b      	ldr	r3, [r7, #4]
200016d6:	691b      	ldr	r3, [r3, #16]
200016d8:	2b00      	cmp	r3, #0
200016da:	d100      	bne.n	200016de <default_tx_handler+0x3a>
200016dc:	be00      	bkpt	0x0000
200016de:	687a      	ldr	r2, [r7, #4]
200016e0:	f64b 53d4 	movw	r3, #48596	; 0xbdd4
200016e4:	f2c2 0300 	movt	r3, #8192	; 0x2000
200016e8:	429a      	cmp	r2, r3
200016ea:	d006      	beq.n	200016fa <default_tx_handler+0x56>
200016ec:	687a      	ldr	r2, [r7, #4]
200016ee:	f64b 53ac 	movw	r3, #48556	; 0xbdac
200016f2:	f2c2 0300 	movt	r3, #8192	; 0x2000
200016f6:	429a      	cmp	r2, r3
200016f8:	d152      	bne.n	200017a0 <default_tx_handler+0xfc>
200016fa:	687b      	ldr	r3, [r7, #4]
200016fc:	68db      	ldr	r3, [r3, #12]
200016fe:	2b00      	cmp	r3, #0
20001700:	d04e      	beq.n	200017a0 <default_tx_handler+0xfc>
20001702:	687b      	ldr	r3, [r7, #4]
20001704:	691b      	ldr	r3, [r3, #16]
20001706:	2b00      	cmp	r3, #0
20001708:	d04a      	beq.n	200017a0 <default_tx_handler+0xfc>
2000170a:	687b      	ldr	r3, [r7, #4]
2000170c:	681b      	ldr	r3, [r3, #0]
2000170e:	7d1b      	ldrb	r3, [r3, #20]
20001710:	72fb      	strb	r3, [r7, #11]
20001712:	687b      	ldr	r3, [r7, #4]
20001714:	7a9a      	ldrb	r2, [r3, #10]
20001716:	7afb      	ldrb	r3, [r7, #11]
20001718:	ea42 0303 	orr.w	r3, r2, r3
2000171c:	b2da      	uxtb	r2, r3
2000171e:	687b      	ldr	r3, [r7, #4]
20001720:	729a      	strb	r2, [r3, #10]
20001722:	7afb      	ldrb	r3, [r7, #11]
20001724:	f003 0320 	and.w	r3, r3, #32
20001728:	2b00      	cmp	r3, #0
2000172a:	d029      	beq.n	20001780 <default_tx_handler+0xdc>
2000172c:	f04f 0310 	mov.w	r3, #16
20001730:	613b      	str	r3, [r7, #16]
20001732:	687b      	ldr	r3, [r7, #4]
20001734:	691a      	ldr	r2, [r3, #16]
20001736:	687b      	ldr	r3, [r7, #4]
20001738:	695b      	ldr	r3, [r3, #20]
2000173a:	ebc3 0302 	rsb	r3, r3, r2
2000173e:	617b      	str	r3, [r7, #20]
20001740:	697b      	ldr	r3, [r7, #20]
20001742:	2b0f      	cmp	r3, #15
20001744:	d801      	bhi.n	2000174a <default_tx_handler+0xa6>
20001746:	697b      	ldr	r3, [r7, #20]
20001748:	613b      	str	r3, [r7, #16]
2000174a:	f04f 0300 	mov.w	r3, #0
2000174e:	60fb      	str	r3, [r7, #12]
20001750:	e012      	b.n	20001778 <default_tx_handler+0xd4>
20001752:	687b      	ldr	r3, [r7, #4]
20001754:	681b      	ldr	r3, [r3, #0]
20001756:	687a      	ldr	r2, [r7, #4]
20001758:	68d1      	ldr	r1, [r2, #12]
2000175a:	687a      	ldr	r2, [r7, #4]
2000175c:	6952      	ldr	r2, [r2, #20]
2000175e:	440a      	add	r2, r1
20001760:	7812      	ldrb	r2, [r2, #0]
20001762:	701a      	strb	r2, [r3, #0]
20001764:	687b      	ldr	r3, [r7, #4]
20001766:	695b      	ldr	r3, [r3, #20]
20001768:	f103 0201 	add.w	r2, r3, #1
2000176c:	687b      	ldr	r3, [r7, #4]
2000176e:	615a      	str	r2, [r3, #20]
20001770:	68fb      	ldr	r3, [r7, #12]
20001772:	f103 0301 	add.w	r3, r3, #1
20001776:	60fb      	str	r3, [r7, #12]
20001778:	68fa      	ldr	r2, [r7, #12]
2000177a:	693b      	ldr	r3, [r7, #16]
2000177c:	429a      	cmp	r2, r3
2000177e:	d3e8      	bcc.n	20001752 <default_tx_handler+0xae>
20001780:	687b      	ldr	r3, [r7, #4]
20001782:	695a      	ldr	r2, [r3, #20]
20001784:	687b      	ldr	r3, [r7, #4]
20001786:	691b      	ldr	r3, [r3, #16]
20001788:	429a      	cmp	r2, r3
2000178a:	d109      	bne.n	200017a0 <default_tx_handler+0xfc>
2000178c:	687b      	ldr	r3, [r7, #4]
2000178e:	f04f 0200 	mov.w	r2, #0
20001792:	611a      	str	r2, [r3, #16]
20001794:	687b      	ldr	r3, [r7, #4]
20001796:	685b      	ldr	r3, [r3, #4]
20001798:	f04f 0200 	mov.w	r2, #0
2000179c:	f8c3 2084 	str.w	r2, [r3, #132]	; 0x84
200017a0:	f107 071c 	add.w	r7, r7, #28
200017a4:	46bd      	mov	sp, r7
200017a6:	bc80      	pop	{r7}
200017a8:	4770      	bx	lr
200017aa:	bf00      	nop

200017ac <UART0_IRQHandler>:
200017ac:	4668      	mov	r0, sp
200017ae:	f020 0107 	bic.w	r1, r0, #7
200017b2:	468d      	mov	sp, r1
200017b4:	b589      	push	{r0, r3, r7, lr}
200017b6:	af00      	add	r7, sp, #0
200017b8:	f64b 50d4 	movw	r0, #48596	; 0xbdd4
200017bc:	f2c2 0000 	movt	r0, #8192	; 0x2000
200017c0:	f7ff fee2 	bl	20001588 <MSS_UART_isr>
200017c4:	f04f 000a 	mov.w	r0, #10
200017c8:	f7ff fc76 	bl	200010b8 <NVIC_ClearPendingIRQ>
200017cc:	46bd      	mov	sp, r7
200017ce:	e8bd 4089 	ldmia.w	sp!, {r0, r3, r7, lr}
200017d2:	4685      	mov	sp, r0
200017d4:	4770      	bx	lr
200017d6:	bf00      	nop

200017d8 <UART1_IRQHandler>:
200017d8:	4668      	mov	r0, sp
200017da:	f020 0107 	bic.w	r1, r0, #7
200017de:	468d      	mov	sp, r1
200017e0:	b589      	push	{r0, r3, r7, lr}
200017e2:	af00      	add	r7, sp, #0
200017e4:	f64b 50ac 	movw	r0, #48556	; 0xbdac
200017e8:	f2c2 0000 	movt	r0, #8192	; 0x2000
200017ec:	f7ff fecc 	bl	20001588 <MSS_UART_isr>
200017f0:	f04f 000b 	mov.w	r0, #11
200017f4:	f7ff fc60 	bl	200010b8 <NVIC_ClearPendingIRQ>
200017f8:	46bd      	mov	sp, r7
200017fa:	e8bd 4089 	ldmia.w	sp!, {r0, r3, r7, lr}
200017fe:	4685      	mov	sp, r0
20001800:	4770      	bx	lr
20001802:	bf00      	nop

20001804 <NVIC_EnableIRQ>:
20001804:	b480      	push	{r7}
20001806:	b083      	sub	sp, #12
20001808:	af00      	add	r7, sp, #0
2000180a:	4603      	mov	r3, r0
2000180c:	80fb      	strh	r3, [r7, #6]
2000180e:	f24e 1300 	movw	r3, #57600	; 0xe100
20001812:	f2ce 0300 	movt	r3, #57344	; 0xe000
20001816:	f9b7 2006 	ldrsh.w	r2, [r7, #6]
2000181a:	ea4f 1252 	mov.w	r2, r2, lsr #5
2000181e:	88f9      	ldrh	r1, [r7, #6]
20001820:	f001 011f 	and.w	r1, r1, #31
20001824:	f04f 0001 	mov.w	r0, #1
20001828:	fa00 f101 	lsl.w	r1, r0, r1
2000182c:	f843 1022 	str.w	r1, [r3, r2, lsl #2]
20001830:	f107 070c 	add.w	r7, r7, #12
20001834:	46bd      	mov	sp, r7
20001836:	bc80      	pop	{r7}
20001838:	4770      	bx	lr
2000183a:	bf00      	nop

2000183c <NVIC_DisableIRQ>:
2000183c:	b480      	push	{r7}
2000183e:	b083      	sub	sp, #12
20001840:	af00      	add	r7, sp, #0
20001842:	4603      	mov	r3, r0
20001844:	80fb      	strh	r3, [r7, #6]
20001846:	f24e 1300 	movw	r3, #57600	; 0xe100
2000184a:	f2ce 0300 	movt	r3, #57344	; 0xe000
2000184e:	f9b7 2006 	ldrsh.w	r2, [r7, #6]
20001852:	ea4f 1252 	mov.w	r2, r2, lsr #5
20001856:	88f9      	ldrh	r1, [r7, #6]
20001858:	f001 011f 	and.w	r1, r1, #31
2000185c:	f04f 0001 	mov.w	r0, #1
20001860:	fa00 f101 	lsl.w	r1, r0, r1
20001864:	f102 0220 	add.w	r2, r2, #32
20001868:	f843 1022 	str.w	r1, [r3, r2, lsl #2]
2000186c:	f107 070c 	add.w	r7, r7, #12
20001870:	46bd      	mov	sp, r7
20001872:	bc80      	pop	{r7}
20001874:	4770      	bx	lr
20001876:	bf00      	nop

20001878 <NVIC_ClearPendingIRQ>:
20001878:	b480      	push	{r7}
2000187a:	b083      	sub	sp, #12
2000187c:	af00      	add	r7, sp, #0
2000187e:	4603      	mov	r3, r0
20001880:	80fb      	strh	r3, [r7, #6]
20001882:	f24e 1300 	movw	r3, #57600	; 0xe100
20001886:	f2ce 0300 	movt	r3, #57344	; 0xe000
2000188a:	f9b7 2006 	ldrsh.w	r2, [r7, #6]
2000188e:	ea4f 1252 	mov.w	r2, r2, lsr #5
20001892:	88f9      	ldrh	r1, [r7, #6]
20001894:	f001 011f 	and.w	r1, r1, #31
20001898:	f04f 0001 	mov.w	r0, #1
2000189c:	fa00 f101 	lsl.w	r1, r0, r1
200018a0:	f102 0260 	add.w	r2, r2, #96	; 0x60
200018a4:	f843 1022 	str.w	r1, [r3, r2, lsl #2]
200018a8:	f107 070c 	add.w	r7, r7, #12
200018ac:	46bd      	mov	sp, r7
200018ae:	bc80      	pop	{r7}
200018b0:	4770      	bx	lr
200018b2:	bf00      	nop

200018b4 <MSS_SPI_init>:
200018b4:	b580      	push	{r7, lr}
200018b6:	b084      	sub	sp, #16
200018b8:	af00      	add	r7, sp, #0
200018ba:	6078      	str	r0, [r7, #4]
200018bc:	687a      	ldr	r2, [r7, #4]
200018be:	f64b 6380 	movw	r3, #48768	; 0xbe80
200018c2:	f2c2 0300 	movt	r3, #8192	; 0x2000
200018c6:	429a      	cmp	r2, r3
200018c8:	d007      	beq.n	200018da <MSS_SPI_init+0x26>
200018ca:	687a      	ldr	r2, [r7, #4]
200018cc:	f64b 53fc 	movw	r3, #48636	; 0xbdfc
200018d0:	f2c2 0300 	movt	r3, #8192	; 0x2000
200018d4:	429a      	cmp	r2, r3
200018d6:	d000      	beq.n	200018da <MSS_SPI_init+0x26>
200018d8:	be00      	bkpt	0x0000
200018da:	687b      	ldr	r3, [r7, #4]
200018dc:	889b      	ldrh	r3, [r3, #4]
200018de:	b21b      	sxth	r3, r3
200018e0:	4618      	mov	r0, r3
200018e2:	f7ff ffab 	bl	2000183c <NVIC_DisableIRQ>
200018e6:	6878      	ldr	r0, [r7, #4]
200018e8:	f04f 0100 	mov.w	r1, #0
200018ec:	f04f 0284 	mov.w	r2, #132	; 0x84
200018f0:	f001 fb8c 	bl	2000300c <memset>
200018f4:	687b      	ldr	r3, [r7, #4]
200018f6:	f04f 0201 	mov.w	r2, #1
200018fa:	625a      	str	r2, [r3, #36]	; 0x24
200018fc:	f04f 0300 	mov.w	r3, #0
20001900:	81fb      	strh	r3, [r7, #14]
20001902:	e00d      	b.n	20001920 <MSS_SPI_init+0x6c>
20001904:	89fb      	ldrh	r3, [r7, #14]
20001906:	687a      	ldr	r2, [r7, #4]
20001908:	f103 0306 	add.w	r3, r3, #6
2000190c:	ea4f 03c3 	mov.w	r3, r3, lsl #3
20001910:	4413      	add	r3, r2
20001912:	f04f 32ff 	mov.w	r2, #4294967295
20001916:	605a      	str	r2, [r3, #4]
20001918:	89fb      	ldrh	r3, [r7, #14]
2000191a:	f103 0301 	add.w	r3, r3, #1
2000191e:	81fb      	strh	r3, [r7, #14]
20001920:	89fb      	ldrh	r3, [r7, #14]
20001922:	2b07      	cmp	r3, #7
20001924:	d9ee      	bls.n	20001904 <MSS_SPI_init+0x50>
20001926:	687a      	ldr	r2, [r7, #4]
20001928:	f64b 6380 	movw	r3, #48768	; 0xbe80
2000192c:	f2c2 0300 	movt	r3, #8192	; 0x2000
20001930:	429a      	cmp	r2, r3
20001932:	d126      	bne.n	20001982 <MSS_SPI_init+0xce>
20001934:	687a      	ldr	r2, [r7, #4]
20001936:	f241 0300 	movw	r3, #4096	; 0x1000
2000193a:	f2c4 0300 	movt	r3, #16384	; 0x4000
2000193e:	6013      	str	r3, [r2, #0]
20001940:	687b      	ldr	r3, [r7, #4]
20001942:	f04f 020c 	mov.w	r2, #12
20001946:	809a      	strh	r2, [r3, #4]
20001948:	f242 0300 	movw	r3, #8192	; 0x2000
2000194c:	f2ce 0304 	movt	r3, #57348	; 0xe004
20001950:	f242 0200 	movw	r2, #8192	; 0x2000
20001954:	f2ce 0204 	movt	r2, #57348	; 0xe004
20001958:	6b12      	ldr	r2, [r2, #48]	; 0x30
2000195a:	f442 7200 	orr.w	r2, r2, #512	; 0x200
2000195e:	631a      	str	r2, [r3, #48]	; 0x30
20001960:	f04f 000c 	mov.w	r0, #12
20001964:	f7ff ff88 	bl	20001878 <NVIC_ClearPendingIRQ>
20001968:	f242 0300 	movw	r3, #8192	; 0x2000
2000196c:	f2ce 0304 	movt	r3, #57348	; 0xe004
20001970:	f242 0200 	movw	r2, #8192	; 0x2000
20001974:	f2ce 0204 	movt	r2, #57348	; 0xe004
20001978:	6b12      	ldr	r2, [r2, #48]	; 0x30
2000197a:	f422 7200 	bic.w	r2, r2, #512	; 0x200
2000197e:	631a      	str	r2, [r3, #48]	; 0x30
20001980:	e025      	b.n	200019ce <MSS_SPI_init+0x11a>
20001982:	687a      	ldr	r2, [r7, #4]
20001984:	f241 0300 	movw	r3, #4096	; 0x1000
20001988:	f2c4 0301 	movt	r3, #16385	; 0x4001
2000198c:	6013      	str	r3, [r2, #0]
2000198e:	687b      	ldr	r3, [r7, #4]
20001990:	f04f 020d 	mov.w	r2, #13
20001994:	809a      	strh	r2, [r3, #4]
20001996:	f242 0300 	movw	r3, #8192	; 0x2000
2000199a:	f2ce 0304 	movt	r3, #57348	; 0xe004
2000199e:	f242 0200 	movw	r2, #8192	; 0x2000
200019a2:	f2ce 0204 	movt	r2, #57348	; 0xe004
200019a6:	6b12      	ldr	r2, [r2, #48]	; 0x30
200019a8:	f442 6280 	orr.w	r2, r2, #1024	; 0x400
200019ac:	631a      	str	r2, [r3, #48]	; 0x30
200019ae:	f04f 000d 	mov.w	r0, #13
200019b2:	f7ff ff61 	bl	20001878 <NVIC_ClearPendingIRQ>
200019b6:	f242 0300 	movw	r3, #8192	; 0x2000
200019ba:	f2ce 0304 	movt	r3, #57348	; 0xe004
200019be:	f242 0200 	movw	r2, #8192	; 0x2000
200019c2:	f2ce 0204 	movt	r2, #57348	; 0xe004
200019c6:	6b12      	ldr	r2, [r2, #48]	; 0x30
200019c8:	f422 6280 	bic.w	r2, r2, #1024	; 0x400
200019cc:	631a      	str	r2, [r3, #48]	; 0x30
200019ce:	687b      	ldr	r3, [r7, #4]
200019d0:	681b      	ldr	r3, [r3, #0]
200019d2:	687a      	ldr	r2, [r7, #4]
200019d4:	6812      	ldr	r2, [r2, #0]
200019d6:	6812      	ldr	r2, [r2, #0]
200019d8:	f022 4200 	bic.w	r2, r2, #2147483648	; 0x80000000
200019dc:	601a      	str	r2, [r3, #0]
200019de:	f107 0710 	add.w	r7, r7, #16
200019e2:	46bd      	mov	sp, r7
200019e4:	bd80      	pop	{r7, pc}
200019e6:	bf00      	nop

200019e8 <recover_from_rx_overflow>:
200019e8:	b580      	push	{r7, lr}
200019ea:	b08a      	sub	sp, #40	; 0x28
200019ec:	af00      	add	r7, sp, #0
200019ee:	6078      	str	r0, [r7, #4]
200019f0:	687b      	ldr	r3, [r7, #4]
200019f2:	681b      	ldr	r3, [r3, #0]
200019f4:	681b      	ldr	r3, [r3, #0]
200019f6:	60fb      	str	r3, [r7, #12]
200019f8:	687b      	ldr	r3, [r7, #4]
200019fa:	681b      	ldr	r3, [r3, #0]
200019fc:	699b      	ldr	r3, [r3, #24]
200019fe:	613b      	str	r3, [r7, #16]
20001a00:	687b      	ldr	r3, [r7, #4]
20001a02:	681b      	ldr	r3, [r3, #0]
20001a04:	685b      	ldr	r3, [r3, #4]
20001a06:	617b      	str	r3, [r7, #20]
20001a08:	687b      	ldr	r3, [r7, #4]
20001a0a:	681b      	ldr	r3, [r3, #0]
20001a0c:	6a9b      	ldr	r3, [r3, #40]	; 0x28
20001a0e:	61bb      	str	r3, [r7, #24]
20001a10:	687b      	ldr	r3, [r7, #4]
20001a12:	681b      	ldr	r3, [r3, #0]
20001a14:	6b1b      	ldr	r3, [r3, #48]	; 0x30
20001a16:	61fb      	str	r3, [r7, #28]
20001a18:	687b      	ldr	r3, [r7, #4]
20001a1a:	681b      	ldr	r3, [r3, #0]
20001a1c:	6b5b      	ldr	r3, [r3, #52]	; 0x34
20001a1e:	623b      	str	r3, [r7, #32]
20001a20:	687b      	ldr	r3, [r7, #4]
20001a22:	681b      	ldr	r3, [r3, #0]
20001a24:	69db      	ldr	r3, [r3, #28]
20001a26:	627b      	str	r3, [r7, #36]	; 0x24
20001a28:	687a      	ldr	r2, [r7, #4]
20001a2a:	f64b 6380 	movw	r3, #48768	; 0xbe80
20001a2e:	f2c2 0300 	movt	r3, #8192	; 0x2000
20001a32:	429a      	cmp	r2, r3
20001a34:	d12e      	bne.n	20001a94 <recover_from_rx_overflow+0xac>
20001a36:	687a      	ldr	r2, [r7, #4]
20001a38:	f241 0300 	movw	r3, #4096	; 0x1000
20001a3c:	f2c4 0300 	movt	r3, #16384	; 0x4000
20001a40:	6013      	str	r3, [r2, #0]
20001a42:	687b      	ldr	r3, [r7, #4]
20001a44:	f04f 020c 	mov.w	r2, #12
20001a48:	809a      	strh	r2, [r3, #4]
20001a4a:	f242 0300 	movw	r3, #8192	; 0x2000
20001a4e:	f2ce 0304 	movt	r3, #57348	; 0xe004
20001a52:	f242 0200 	movw	r2, #8192	; 0x2000
20001a56:	f2ce 0204 	movt	r2, #57348	; 0xe004
20001a5a:	6b12      	ldr	r2, [r2, #48]	; 0x30
20001a5c:	f442 7200 	orr.w	r2, r2, #512	; 0x200
20001a60:	631a      	str	r2, [r3, #48]	; 0x30
20001a62:	f04f 000c 	mov.w	r0, #12
20001a66:	f7ff ff07 	bl	20001878 <NVIC_ClearPendingIRQ>
20001a6a:	f242 0300 	movw	r3, #8192	; 0x2000
20001a6e:	f2ce 0304 	movt	r3, #57348	; 0xe004
20001a72:	f242 0200 	movw	r2, #8192	; 0x2000
20001a76:	f2ce 0204 	movt	r2, #57348	; 0xe004
20001a7a:	6b12      	ldr	r2, [r2, #48]	; 0x30
20001a7c:	f422 7200 	bic.w	r2, r2, #512	; 0x200
20001a80:	631a      	str	r2, [r3, #48]	; 0x30
20001a82:	687b      	ldr	r3, [r7, #4]
20001a84:	681b      	ldr	r3, [r3, #0]
20001a86:	687a      	ldr	r2, [r7, #4]
20001a88:	6812      	ldr	r2, [r2, #0]
20001a8a:	6812      	ldr	r2, [r2, #0]
20001a8c:	f022 4200 	bic.w	r2, r2, #2147483648	; 0x80000000
20001a90:	601a      	str	r2, [r3, #0]
20001a92:	e02d      	b.n	20001af0 <recover_from_rx_overflow+0x108>
20001a94:	687a      	ldr	r2, [r7, #4]
20001a96:	f241 0300 	movw	r3, #4096	; 0x1000
20001a9a:	f2c4 0301 	movt	r3, #16385	; 0x4001
20001a9e:	6013      	str	r3, [r2, #0]
20001aa0:	687b      	ldr	r3, [r7, #4]
20001aa2:	f04f 020d 	mov.w	r2, #13
20001aa6:	809a      	strh	r2, [r3, #4]
20001aa8:	f242 0300 	movw	r3, #8192	; 0x2000
20001aac:	f2ce 0304 	movt	r3, #57348	; 0xe004
20001ab0:	f242 0200 	movw	r2, #8192	; 0x2000
20001ab4:	f2ce 0204 	movt	r2, #57348	; 0xe004
20001ab8:	6b12      	ldr	r2, [r2, #48]	; 0x30
20001aba:	f442 6280 	orr.w	r2, r2, #1024	; 0x400
20001abe:	631a      	str	r2, [r3, #48]	; 0x30
20001ac0:	f04f 000d 	mov.w	r0, #13
20001ac4:	f7ff fed8 	bl	20001878 <NVIC_ClearPendingIRQ>
20001ac8:	f242 0300 	movw	r3, #8192	; 0x2000
20001acc:	f2ce 0304 	movt	r3, #57348	; 0xe004
20001ad0:	f242 0200 	movw	r2, #8192	; 0x2000
20001ad4:	f2ce 0204 	movt	r2, #57348	; 0xe004
20001ad8:	6b12      	ldr	r2, [r2, #48]	; 0x30
20001ada:	f422 6280 	bic.w	r2, r2, #1024	; 0x400
20001ade:	631a      	str	r2, [r3, #48]	; 0x30
20001ae0:	687b      	ldr	r3, [r7, #4]
20001ae2:	681b      	ldr	r3, [r3, #0]
20001ae4:	687a      	ldr	r2, [r7, #4]
20001ae6:	6812      	ldr	r2, [r2, #0]
20001ae8:	6812      	ldr	r2, [r2, #0]
20001aea:	f022 4200 	bic.w	r2, r2, #2147483648	; 0x80000000
20001aee:	601a      	str	r2, [r3, #0]
20001af0:	68fb      	ldr	r3, [r7, #12]
20001af2:	f023 0301 	bic.w	r3, r3, #1
20001af6:	60fb      	str	r3, [r7, #12]
20001af8:	687b      	ldr	r3, [r7, #4]
20001afa:	681b      	ldr	r3, [r3, #0]
20001afc:	68fa      	ldr	r2, [r7, #12]
20001afe:	601a      	str	r2, [r3, #0]
20001b00:	687b      	ldr	r3, [r7, #4]
20001b02:	681b      	ldr	r3, [r3, #0]
20001b04:	693a      	ldr	r2, [r7, #16]
20001b06:	619a      	str	r2, [r3, #24]
20001b08:	687b      	ldr	r3, [r7, #4]
20001b0a:	681b      	ldr	r3, [r3, #0]
20001b0c:	697a      	ldr	r2, [r7, #20]
20001b0e:	605a      	str	r2, [r3, #4]
20001b10:	687b      	ldr	r3, [r7, #4]
20001b12:	681b      	ldr	r3, [r3, #0]
20001b14:	687a      	ldr	r2, [r7, #4]
20001b16:	6812      	ldr	r2, [r2, #0]
20001b18:	6812      	ldr	r2, [r2, #0]
20001b1a:	f042 0201 	orr.w	r2, r2, #1
20001b1e:	601a      	str	r2, [r3, #0]
20001b20:	687b      	ldr	r3, [r7, #4]
20001b22:	681b      	ldr	r3, [r3, #0]
20001b24:	69ba      	ldr	r2, [r7, #24]
20001b26:	629a      	str	r2, [r3, #40]	; 0x28
20001b28:	687b      	ldr	r3, [r7, #4]
20001b2a:	681b      	ldr	r3, [r3, #0]
20001b2c:	69fa      	ldr	r2, [r7, #28]
20001b2e:	631a      	str	r2, [r3, #48]	; 0x30
20001b30:	687b      	ldr	r3, [r7, #4]
20001b32:	681b      	ldr	r3, [r3, #0]
20001b34:	6a3a      	ldr	r2, [r7, #32]
20001b36:	635a      	str	r2, [r3, #52]	; 0x34
20001b38:	687b      	ldr	r3, [r7, #4]
20001b3a:	681b      	ldr	r3, [r3, #0]
20001b3c:	6a7a      	ldr	r2, [r7, #36]	; 0x24
20001b3e:	61da      	str	r2, [r3, #28]
20001b40:	f107 0728 	add.w	r7, r7, #40	; 0x28
20001b44:	46bd      	mov	sp, r7
20001b46:	bd80      	pop	{r7, pc}

20001b48 <MSS_SPI_configure_master_mode>:
20001b48:	b580      	push	{r7, lr}
20001b4a:	b084      	sub	sp, #16
20001b4c:	af00      	add	r7, sp, #0
20001b4e:	60f8      	str	r0, [r7, #12]
20001b50:	607a      	str	r2, [r7, #4]
20001b52:	460a      	mov	r2, r1
20001b54:	72fa      	strb	r2, [r7, #11]
20001b56:	70fb      	strb	r3, [r7, #3]
20001b58:	68fa      	ldr	r2, [r7, #12]
20001b5a:	f64b 6380 	movw	r3, #48768	; 0xbe80
20001b5e:	f2c2 0300 	movt	r3, #8192	; 0x2000
20001b62:	429a      	cmp	r2, r3
20001b64:	d007      	beq.n	20001b76 <MSS_SPI_configure_master_mode+0x2e>
20001b66:	68fa      	ldr	r2, [r7, #12]
20001b68:	f64b 53fc 	movw	r3, #48636	; 0xbdfc
20001b6c:	f2c2 0300 	movt	r3, #8192	; 0x2000
20001b70:	429a      	cmp	r2, r3
20001b72:	d000      	beq.n	20001b76 <MSS_SPI_configure_master_mode+0x2e>
20001b74:	be00      	bkpt	0x0000
20001b76:	7afb      	ldrb	r3, [r7, #11]
20001b78:	2b07      	cmp	r3, #7
20001b7a:	d900      	bls.n	20001b7e <MSS_SPI_configure_master_mode+0x36>
20001b7c:	be00      	bkpt	0x0000
20001b7e:	7e3b      	ldrb	r3, [r7, #24]
20001b80:	2b20      	cmp	r3, #32
20001b82:	d900      	bls.n	20001b86 <MSS_SPI_configure_master_mode+0x3e>
20001b84:	be00      	bkpt	0x0000
20001b86:	68fb      	ldr	r3, [r7, #12]
20001b88:	889b      	ldrh	r3, [r3, #4]
20001b8a:	b21b      	sxth	r3, r3
20001b8c:	4618      	mov	r0, r3
20001b8e:	f7ff fe55 	bl	2000183c <NVIC_DisableIRQ>
20001b92:	68fb      	ldr	r3, [r7, #12]
20001b94:	f04f 0200 	mov.w	r2, #0
20001b98:	f883 2080 	strb.w	r2, [r3, #128]	; 0x80
20001b9c:	68fb      	ldr	r3, [r7, #12]
20001b9e:	681b      	ldr	r3, [r3, #0]
20001ba0:	68fa      	ldr	r2, [r7, #12]
20001ba2:	6812      	ldr	r2, [r2, #0]
20001ba4:	6812      	ldr	r2, [r2, #0]
20001ba6:	f022 0201 	bic.w	r2, r2, #1
20001baa:	601a      	str	r2, [r3, #0]
20001bac:	68fb      	ldr	r3, [r7, #12]
20001bae:	681b      	ldr	r3, [r3, #0]
20001bb0:	68fa      	ldr	r2, [r7, #12]
20001bb2:	6812      	ldr	r2, [r2, #0]
20001bb4:	6812      	ldr	r2, [r2, #0]
20001bb6:	f042 0202 	orr.w	r2, r2, #2
20001bba:	601a      	str	r2, [r3, #0]
20001bbc:	68fb      	ldr	r3, [r7, #12]
20001bbe:	681b      	ldr	r3, [r3, #0]
20001bc0:	68fa      	ldr	r2, [r7, #12]
20001bc2:	6812      	ldr	r2, [r2, #0]
20001bc4:	6812      	ldr	r2, [r2, #0]
20001bc6:	f042 0201 	orr.w	r2, r2, #1
20001bca:	601a      	str	r2, [r3, #0]
20001bcc:	7afb      	ldrb	r3, [r7, #11]
20001bce:	2b07      	cmp	r3, #7
20001bd0:	d83f      	bhi.n	20001c52 <MSS_SPI_configure_master_mode+0x10a>
20001bd2:	687b      	ldr	r3, [r7, #4]
20001bd4:	2b00      	cmp	r3, #0
20001bd6:	d00b      	beq.n	20001bf0 <MSS_SPI_configure_master_mode+0xa8>
20001bd8:	687b      	ldr	r3, [r7, #4]
20001bda:	f1b3 7f00 	cmp.w	r3, #33554432	; 0x2000000
20001bde:	d007      	beq.n	20001bf0 <MSS_SPI_configure_master_mode+0xa8>
20001be0:	687b      	ldr	r3, [r7, #4]
20001be2:	f1b3 7f80 	cmp.w	r3, #16777216	; 0x1000000
20001be6:	d003      	beq.n	20001bf0 <MSS_SPI_configure_master_mode+0xa8>
20001be8:	687b      	ldr	r3, [r7, #4]
20001bea:	f1b3 7f40 	cmp.w	r3, #50331648	; 0x3000000
20001bee:	d10f      	bne.n	20001c10 <MSS_SPI_configure_master_mode+0xc8>
20001bf0:	7afa      	ldrb	r2, [r7, #11]
20001bf2:	6879      	ldr	r1, [r7, #4]
20001bf4:	f240 1302 	movw	r3, #258	; 0x102
20001bf8:	f2c2 4300 	movt	r3, #9216	; 0x2400
20001bfc:	ea41 0303 	orr.w	r3, r1, r3
20001c00:	68f9      	ldr	r1, [r7, #12]
20001c02:	f102 0206 	add.w	r2, r2, #6
20001c06:	ea4f 02c2 	mov.w	r2, r2, lsl #3
20001c0a:	440a      	add	r2, r1
20001c0c:	6053      	str	r3, [r2, #4]
20001c0e:	e00e      	b.n	20001c2e <MSS_SPI_configure_master_mode+0xe6>
20001c10:	7afa      	ldrb	r2, [r7, #11]
20001c12:	6879      	ldr	r1, [r7, #4]
20001c14:	f240 1302 	movw	r3, #258	; 0x102
20001c18:	f2c2 0300 	movt	r3, #8192	; 0x2000
20001c1c:	ea41 0303 	orr.w	r3, r1, r3
20001c20:	68f9      	ldr	r1, [r7, #12]
20001c22:	f102 0206 	add.w	r2, r2, #6
20001c26:	ea4f 02c2 	mov.w	r2, r2, lsl #3
20001c2a:	440a      	add	r2, r1
20001c2c:	6053      	str	r3, [r2, #4]
20001c2e:	7afb      	ldrb	r3, [r7, #11]
20001c30:	68fa      	ldr	r2, [r7, #12]
20001c32:	f103 0306 	add.w	r3, r3, #6
20001c36:	ea4f 03c3 	mov.w	r3, r3, lsl #3
20001c3a:	4413      	add	r3, r2
20001c3c:	7e3a      	ldrb	r2, [r7, #24]
20001c3e:	721a      	strb	r2, [r3, #8]
20001c40:	7afb      	ldrb	r3, [r7, #11]
20001c42:	68fa      	ldr	r2, [r7, #12]
20001c44:	f103 0306 	add.w	r3, r3, #6
20001c48:	ea4f 03c3 	mov.w	r3, r3, lsl #3
20001c4c:	4413      	add	r3, r2
20001c4e:	78fa      	ldrb	r2, [r7, #3]
20001c50:	725a      	strb	r2, [r3, #9]
20001c52:	68fb      	ldr	r3, [r7, #12]
20001c54:	889b      	ldrh	r3, [r3, #4]
20001c56:	b21b      	sxth	r3, r3
20001c58:	4618      	mov	r0, r3
20001c5a:	f7ff fdd3 	bl	20001804 <NVIC_EnableIRQ>
20001c5e:	f107 0710 	add.w	r7, r7, #16
20001c62:	46bd      	mov	sp, r7
20001c64:	bd80      	pop	{r7, pc}
20001c66:	bf00      	nop

20001c68 <MSS_SPI_set_slave_select>:
20001c68:	b580      	push	{r7, lr}
20001c6a:	b084      	sub	sp, #16
20001c6c:	af00      	add	r7, sp, #0
20001c6e:	6078      	str	r0, [r7, #4]
20001c70:	460b      	mov	r3, r1
20001c72:	70fb      	strb	r3, [r7, #3]
20001c74:	687a      	ldr	r2, [r7, #4]
20001c76:	f64b 6380 	movw	r3, #48768	; 0xbe80
20001c7a:	f2c2 0300 	movt	r3, #8192	; 0x2000
20001c7e:	429a      	cmp	r2, r3
20001c80:	d007      	beq.n	20001c92 <MSS_SPI_set_slave_select+0x2a>
20001c82:	687a      	ldr	r2, [r7, #4]
20001c84:	f64b 53fc 	movw	r3, #48636	; 0xbdfc
20001c88:	f2c2 0300 	movt	r3, #8192	; 0x2000
20001c8c:	429a      	cmp	r2, r3
20001c8e:	d000      	beq.n	20001c92 <MSS_SPI_set_slave_select+0x2a>
20001c90:	be00      	bkpt	0x0000
20001c92:	687b      	ldr	r3, [r7, #4]
20001c94:	681b      	ldr	r3, [r3, #0]
20001c96:	681b      	ldr	r3, [r3, #0]
20001c98:	f003 0302 	and.w	r3, r3, #2
20001c9c:	2b00      	cmp	r3, #0
20001c9e:	d100      	bne.n	20001ca2 <MSS_SPI_set_slave_select+0x3a>
20001ca0:	be00      	bkpt	0x0000
20001ca2:	78fb      	ldrb	r3, [r7, #3]
20001ca4:	687a      	ldr	r2, [r7, #4]
20001ca6:	f103 0306 	add.w	r3, r3, #6
20001caa:	ea4f 03c3 	mov.w	r3, r3, lsl #3
20001cae:	4413      	add	r3, r2
20001cb0:	685b      	ldr	r3, [r3, #4]
20001cb2:	f1b3 3fff 	cmp.w	r3, #4294967295
20001cb6:	d100      	bne.n	20001cba <MSS_SPI_set_slave_select+0x52>
20001cb8:	be00      	bkpt	0x0000
20001cba:	687b      	ldr	r3, [r7, #4]
20001cbc:	889b      	ldrh	r3, [r3, #4]
20001cbe:	b21b      	sxth	r3, r3
20001cc0:	4618      	mov	r0, r3
20001cc2:	f7ff fdbb 	bl	2000183c <NVIC_DisableIRQ>
20001cc6:	687b      	ldr	r3, [r7, #4]
20001cc8:	681b      	ldr	r3, [r3, #0]
20001cca:	689b      	ldr	r3, [r3, #8]
20001ccc:	f003 0304 	and.w	r3, r3, #4
20001cd0:	60fb      	str	r3, [r7, #12]
20001cd2:	68fb      	ldr	r3, [r7, #12]
20001cd4:	2b00      	cmp	r3, #0
20001cd6:	d002      	beq.n	20001cde <MSS_SPI_set_slave_select+0x76>
20001cd8:	6878      	ldr	r0, [r7, #4]
20001cda:	f7ff fe85 	bl	200019e8 <recover_from_rx_overflow>
20001cde:	687b      	ldr	r3, [r7, #4]
20001ce0:	681b      	ldr	r3, [r3, #0]
20001ce2:	687a      	ldr	r2, [r7, #4]
20001ce4:	6812      	ldr	r2, [r2, #0]
20001ce6:	6812      	ldr	r2, [r2, #0]
20001ce8:	f022 0201 	bic.w	r2, r2, #1
20001cec:	601a      	str	r2, [r3, #0]
20001cee:	687b      	ldr	r3, [r7, #4]
20001cf0:	681a      	ldr	r2, [r3, #0]
20001cf2:	78fb      	ldrb	r3, [r7, #3]
20001cf4:	6879      	ldr	r1, [r7, #4]
20001cf6:	f103 0306 	add.w	r3, r3, #6
20001cfa:	ea4f 03c3 	mov.w	r3, r3, lsl #3
20001cfe:	440b      	add	r3, r1
20001d00:	685b      	ldr	r3, [r3, #4]
20001d02:	6013      	str	r3, [r2, #0]
20001d04:	687b      	ldr	r3, [r7, #4]
20001d06:	681a      	ldr	r2, [r3, #0]
20001d08:	78fb      	ldrb	r3, [r7, #3]
20001d0a:	6879      	ldr	r1, [r7, #4]
20001d0c:	f103 0306 	add.w	r3, r3, #6
20001d10:	ea4f 03c3 	mov.w	r3, r3, lsl #3
20001d14:	440b      	add	r3, r1
20001d16:	7a5b      	ldrb	r3, [r3, #9]
20001d18:	6193      	str	r3, [r2, #24]
20001d1a:	687b      	ldr	r3, [r7, #4]
20001d1c:	681a      	ldr	r2, [r3, #0]
20001d1e:	78fb      	ldrb	r3, [r7, #3]
20001d20:	6879      	ldr	r1, [r7, #4]
20001d22:	f103 0306 	add.w	r3, r3, #6
20001d26:	ea4f 03c3 	mov.w	r3, r3, lsl #3
20001d2a:	440b      	add	r3, r1
20001d2c:	7a1b      	ldrb	r3, [r3, #8]
20001d2e:	6053      	str	r3, [r2, #4]
20001d30:	687b      	ldr	r3, [r7, #4]
20001d32:	681b      	ldr	r3, [r3, #0]
20001d34:	687a      	ldr	r2, [r7, #4]
20001d36:	6812      	ldr	r2, [r2, #0]
20001d38:	6812      	ldr	r2, [r2, #0]
20001d3a:	f042 0201 	orr.w	r2, r2, #1
20001d3e:	601a      	str	r2, [r3, #0]
20001d40:	687b      	ldr	r3, [r7, #4]
20001d42:	681b      	ldr	r3, [r3, #0]
20001d44:	687a      	ldr	r2, [r7, #4]
20001d46:	6812      	ldr	r2, [r2, #0]
20001d48:	69d1      	ldr	r1, [r2, #28]
20001d4a:	78fa      	ldrb	r2, [r7, #3]
20001d4c:	f04f 0001 	mov.w	r0, #1
20001d50:	fa00 f202 	lsl.w	r2, r0, r2
20001d54:	ea41 0202 	orr.w	r2, r1, r2
20001d58:	61da      	str	r2, [r3, #28]
20001d5a:	687b      	ldr	r3, [r7, #4]
20001d5c:	889b      	ldrh	r3, [r3, #4]
20001d5e:	b21b      	sxth	r3, r3
20001d60:	4618      	mov	r0, r3
20001d62:	f7ff fd4f 	bl	20001804 <NVIC_EnableIRQ>
20001d66:	f107 0710 	add.w	r7, r7, #16
20001d6a:	46bd      	mov	sp, r7
20001d6c:	bd80      	pop	{r7, pc}
20001d6e:	bf00      	nop

20001d70 <MSS_SPI_clear_slave_select>:
20001d70:	b580      	push	{r7, lr}
20001d72:	b084      	sub	sp, #16
20001d74:	af00      	add	r7, sp, #0
20001d76:	6078      	str	r0, [r7, #4]
20001d78:	460b      	mov	r3, r1
20001d7a:	70fb      	strb	r3, [r7, #3]
20001d7c:	687a      	ldr	r2, [r7, #4]
20001d7e:	f64b 6380 	movw	r3, #48768	; 0xbe80
20001d82:	f2c2 0300 	movt	r3, #8192	; 0x2000
20001d86:	429a      	cmp	r2, r3
20001d88:	d007      	beq.n	20001d9a <MSS_SPI_clear_slave_select+0x2a>
20001d8a:	687a      	ldr	r2, [r7, #4]
20001d8c:	f64b 53fc 	movw	r3, #48636	; 0xbdfc
20001d90:	f2c2 0300 	movt	r3, #8192	; 0x2000
20001d94:	429a      	cmp	r2, r3
20001d96:	d000      	beq.n	20001d9a <MSS_SPI_clear_slave_select+0x2a>
20001d98:	be00      	bkpt	0x0000
20001d9a:	687b      	ldr	r3, [r7, #4]
20001d9c:	681b      	ldr	r3, [r3, #0]
20001d9e:	681b      	ldr	r3, [r3, #0]
20001da0:	f003 0302 	and.w	r3, r3, #2
20001da4:	2b00      	cmp	r3, #0
20001da6:	d100      	bne.n	20001daa <MSS_SPI_clear_slave_select+0x3a>
20001da8:	be00      	bkpt	0x0000
20001daa:	687b      	ldr	r3, [r7, #4]
20001dac:	889b      	ldrh	r3, [r3, #4]
20001dae:	b21b      	sxth	r3, r3
20001db0:	4618      	mov	r0, r3
20001db2:	f7ff fd43 	bl	2000183c <NVIC_DisableIRQ>
20001db6:	687b      	ldr	r3, [r7, #4]
20001db8:	681b      	ldr	r3, [r3, #0]
20001dba:	689b      	ldr	r3, [r3, #8]
20001dbc:	f003 0304 	and.w	r3, r3, #4
20001dc0:	60fb      	str	r3, [r7, #12]
20001dc2:	68fb      	ldr	r3, [r7, #12]
20001dc4:	2b00      	cmp	r3, #0
20001dc6:	d002      	beq.n	20001dce <MSS_SPI_clear_slave_select+0x5e>
20001dc8:	6878      	ldr	r0, [r7, #4]
20001dca:	f7ff fe0d 	bl	200019e8 <recover_from_rx_overflow>
20001dce:	687b      	ldr	r3, [r7, #4]
20001dd0:	681b      	ldr	r3, [r3, #0]
20001dd2:	687a      	ldr	r2, [r7, #4]
20001dd4:	6812      	ldr	r2, [r2, #0]
20001dd6:	69d1      	ldr	r1, [r2, #28]
20001dd8:	78fa      	ldrb	r2, [r7, #3]
20001dda:	f04f 0001 	mov.w	r0, #1
20001dde:	fa00 f202 	lsl.w	r2, r0, r2
20001de2:	ea6f 0202 	mvn.w	r2, r2
20001de6:	ea01 0202 	and.w	r2, r1, r2
20001dea:	61da      	str	r2, [r3, #28]
20001dec:	687b      	ldr	r3, [r7, #4]
20001dee:	889b      	ldrh	r3, [r3, #4]
20001df0:	b21b      	sxth	r3, r3
20001df2:	4618      	mov	r0, r3
20001df4:	f7ff fd06 	bl	20001804 <NVIC_EnableIRQ>
20001df8:	f107 0710 	add.w	r7, r7, #16
20001dfc:	46bd      	mov	sp, r7
20001dfe:	bd80      	pop	{r7, pc}

20001e00 <MSS_SPI_transfer_frame>:
20001e00:	b480      	push	{r7}
20001e02:	b087      	sub	sp, #28
20001e04:	af00      	add	r7, sp, #0
20001e06:	6078      	str	r0, [r7, #4]
20001e08:	6039      	str	r1, [r7, #0]
20001e0a:	687a      	ldr	r2, [r7, #4]
20001e0c:	f64b 6380 	movw	r3, #48768	; 0xbe80
20001e10:	f2c2 0300 	movt	r3, #8192	; 0x2000
20001e14:	429a      	cmp	r2, r3
20001e16:	d007      	beq.n	20001e28 <MSS_SPI_transfer_frame+0x28>
20001e18:	687a      	ldr	r2, [r7, #4]
20001e1a:	f64b 53fc 	movw	r3, #48636	; 0xbdfc
20001e1e:	f2c2 0300 	movt	r3, #8192	; 0x2000
20001e22:	429a      	cmp	r2, r3
20001e24:	d000      	beq.n	20001e28 <MSS_SPI_transfer_frame+0x28>
20001e26:	be00      	bkpt	0x0000
20001e28:	687b      	ldr	r3, [r7, #4]
20001e2a:	681b      	ldr	r3, [r3, #0]
20001e2c:	681b      	ldr	r3, [r3, #0]
20001e2e:	f003 0302 	and.w	r3, r3, #2
20001e32:	2b00      	cmp	r3, #0
20001e34:	d100      	bne.n	20001e38 <MSS_SPI_transfer_frame+0x38>
20001e36:	be00      	bkpt	0x0000
20001e38:	687b      	ldr	r3, [r7, #4]
20001e3a:	681a      	ldr	r2, [r3, #0]
20001e3c:	687b      	ldr	r3, [r7, #4]
20001e3e:	681b      	ldr	r3, [r3, #0]
20001e40:	6819      	ldr	r1, [r3, #0]
20001e42:	f240 03ff 	movw	r3, #255	; 0xff
20001e46:	f6cf 7300 	movt	r3, #65280	; 0xff00
20001e4a:	ea01 0303 	and.w	r3, r1, r3
20001e4e:	f443 7380 	orr.w	r3, r3, #256	; 0x100
20001e52:	6013      	str	r3, [r2, #0]
20001e54:	687b      	ldr	r3, [r7, #4]
20001e56:	681b      	ldr	r3, [r3, #0]
20001e58:	687a      	ldr	r2, [r7, #4]
20001e5a:	6812      	ldr	r2, [r2, #0]
20001e5c:	6ad2      	ldr	r2, [r2, #44]	; 0x2c
20001e5e:	f042 020c 	orr.w	r2, r2, #12
20001e62:	62da      	str	r2, [r3, #44]	; 0x2c
20001e64:	687b      	ldr	r3, [r7, #4]
20001e66:	681b      	ldr	r3, [r3, #0]
20001e68:	689b      	ldr	r3, [r3, #8]
20001e6a:	f003 0340 	and.w	r3, r3, #64	; 0x40
20001e6e:	60fb      	str	r3, [r7, #12]
20001e70:	e00b      	b.n	20001e8a <MSS_SPI_transfer_frame+0x8a>
20001e72:	687b      	ldr	r3, [r7, #4]
20001e74:	681b      	ldr	r3, [r3, #0]
20001e76:	691b      	ldr	r3, [r3, #16]
20001e78:	60bb      	str	r3, [r7, #8]
20001e7a:	68bb      	ldr	r3, [r7, #8]
20001e7c:	60bb      	str	r3, [r7, #8]
20001e7e:	687b      	ldr	r3, [r7, #4]
20001e80:	681b      	ldr	r3, [r3, #0]
20001e82:	689b      	ldr	r3, [r3, #8]
20001e84:	f003 0340 	and.w	r3, r3, #64	; 0x40
20001e88:	60fb      	str	r3, [r7, #12]
20001e8a:	68fb      	ldr	r3, [r7, #12]
20001e8c:	2b00      	cmp	r3, #0
20001e8e:	d0f0      	beq.n	20001e72 <MSS_SPI_transfer_frame+0x72>
20001e90:	687b      	ldr	r3, [r7, #4]
20001e92:	681b      	ldr	r3, [r3, #0]
20001e94:	683a      	ldr	r2, [r7, #0]
20001e96:	615a      	str	r2, [r3, #20]
20001e98:	687b      	ldr	r3, [r7, #4]
20001e9a:	681b      	ldr	r3, [r3, #0]
20001e9c:	689b      	ldr	r3, [r3, #8]
20001e9e:	f003 0301 	and.w	r3, r3, #1
20001ea2:	617b      	str	r3, [r7, #20]
20001ea4:	e005      	b.n	20001eb2 <MSS_SPI_transfer_frame+0xb2>
20001ea6:	687b      	ldr	r3, [r7, #4]
20001ea8:	681b      	ldr	r3, [r3, #0]
20001eaa:	689b      	ldr	r3, [r3, #8]
20001eac:	f003 0301 	and.w	r3, r3, #1
20001eb0:	617b      	str	r3, [r7, #20]
20001eb2:	697b      	ldr	r3, [r7, #20]
20001eb4:	2b00      	cmp	r3, #0
20001eb6:	d0f6      	beq.n	20001ea6 <MSS_SPI_transfer_frame+0xa6>
20001eb8:	687b      	ldr	r3, [r7, #4]
20001eba:	681b      	ldr	r3, [r3, #0]
20001ebc:	689b      	ldr	r3, [r3, #8]
20001ebe:	f003 0302 	and.w	r3, r3, #2
20001ec2:	613b      	str	r3, [r7, #16]
20001ec4:	e005      	b.n	20001ed2 <MSS_SPI_transfer_frame+0xd2>
20001ec6:	687b      	ldr	r3, [r7, #4]
20001ec8:	681b      	ldr	r3, [r3, #0]
20001eca:	689b      	ldr	r3, [r3, #8]
20001ecc:	f003 0302 	and.w	r3, r3, #2
20001ed0:	613b      	str	r3, [r7, #16]
20001ed2:	693b      	ldr	r3, [r7, #16]
20001ed4:	2b00      	cmp	r3, #0
20001ed6:	d0f6      	beq.n	20001ec6 <MSS_SPI_transfer_frame+0xc6>
20001ed8:	687b      	ldr	r3, [r7, #4]
20001eda:	681b      	ldr	r3, [r3, #0]
20001edc:	691b      	ldr	r3, [r3, #16]
20001ede:	4618      	mov	r0, r3
20001ee0:	f107 071c 	add.w	r7, r7, #28
20001ee4:	46bd      	mov	sp, r7
20001ee6:	bc80      	pop	{r7}
20001ee8:	4770      	bx	lr
20001eea:	bf00      	nop

20001eec <fill_slave_tx_fifo>:
20001eec:	b480      	push	{r7}
20001eee:	b085      	sub	sp, #20
20001ef0:	af00      	add	r7, sp, #0
20001ef2:	6078      	str	r0, [r7, #4]
20001ef4:	f04f 0300 	mov.w	r3, #0
20001ef8:	60fb      	str	r3, [r7, #12]
20001efa:	e00e      	b.n	20001f1a <fill_slave_tx_fifo+0x2e>
20001efc:	687b      	ldr	r3, [r7, #4]
20001efe:	681b      	ldr	r3, [r3, #0]
20001f00:	687a      	ldr	r2, [r7, #4]
20001f02:	6891      	ldr	r1, [r2, #8]
20001f04:	687a      	ldr	r2, [r7, #4]
20001f06:	6912      	ldr	r2, [r2, #16]
20001f08:	440a      	add	r2, r1
20001f0a:	7812      	ldrb	r2, [r2, #0]
20001f0c:	615a      	str	r2, [r3, #20]
20001f0e:	687b      	ldr	r3, [r7, #4]
20001f10:	691b      	ldr	r3, [r3, #16]
20001f12:	f103 0201 	add.w	r2, r3, #1
20001f16:	687b      	ldr	r3, [r7, #4]
20001f18:	611a      	str	r2, [r3, #16]
20001f1a:	687b      	ldr	r3, [r7, #4]
20001f1c:	681b      	ldr	r3, [r3, #0]
20001f1e:	689b      	ldr	r3, [r3, #8]
20001f20:	f403 7380 	and.w	r3, r3, #256	; 0x100
20001f24:	2b00      	cmp	r3, #0
20001f26:	d105      	bne.n	20001f34 <fill_slave_tx_fifo+0x48>
20001f28:	687b      	ldr	r3, [r7, #4]
20001f2a:	691a      	ldr	r2, [r3, #16]
20001f2c:	687b      	ldr	r3, [r7, #4]
20001f2e:	68db      	ldr	r3, [r3, #12]
20001f30:	429a      	cmp	r2, r3
20001f32:	d3e3      	bcc.n	20001efc <fill_slave_tx_fifo+0x10>
20001f34:	687b      	ldr	r3, [r7, #4]
20001f36:	691a      	ldr	r2, [r3, #16]
20001f38:	687b      	ldr	r3, [r7, #4]
20001f3a:	68db      	ldr	r3, [r3, #12]
20001f3c:	429a      	cmp	r2, r3
20001f3e:	d31c      	bcc.n	20001f7a <fill_slave_tx_fifo+0x8e>
20001f40:	e00e      	b.n	20001f60 <fill_slave_tx_fifo+0x74>
20001f42:	687b      	ldr	r3, [r7, #4]
20001f44:	681b      	ldr	r3, [r3, #0]
20001f46:	687a      	ldr	r2, [r7, #4]
20001f48:	6951      	ldr	r1, [r2, #20]
20001f4a:	687a      	ldr	r2, [r7, #4]
20001f4c:	69d2      	ldr	r2, [r2, #28]
20001f4e:	440a      	add	r2, r1
20001f50:	7812      	ldrb	r2, [r2, #0]
20001f52:	615a      	str	r2, [r3, #20]
20001f54:	687b      	ldr	r3, [r7, #4]
20001f56:	69db      	ldr	r3, [r3, #28]
20001f58:	f103 0201 	add.w	r2, r3, #1
20001f5c:	687b      	ldr	r3, [r7, #4]
20001f5e:	61da      	str	r2, [r3, #28]
20001f60:	687b      	ldr	r3, [r7, #4]
20001f62:	681b      	ldr	r3, [r3, #0]
20001f64:	689b      	ldr	r3, [r3, #8]
20001f66:	f403 7380 	and.w	r3, r3, #256	; 0x100
20001f6a:	2b00      	cmp	r3, #0
20001f6c:	d105      	bne.n	20001f7a <fill_slave_tx_fifo+0x8e>
20001f6e:	687b      	ldr	r3, [r7, #4]
20001f70:	69da      	ldr	r2, [r3, #28]
20001f72:	687b      	ldr	r3, [r7, #4]
20001f74:	699b      	ldr	r3, [r3, #24]
20001f76:	429a      	cmp	r2, r3
20001f78:	d3e3      	bcc.n	20001f42 <fill_slave_tx_fifo+0x56>
20001f7a:	687b      	ldr	r3, [r7, #4]
20001f7c:	6a5b      	ldr	r3, [r3, #36]	; 0x24
20001f7e:	2b00      	cmp	r3, #0
20001f80:	d01f      	beq.n	20001fc2 <fill_slave_tx_fifo+0xd6>
20001f82:	687b      	ldr	r3, [r7, #4]
20001f84:	691a      	ldr	r2, [r3, #16]
20001f86:	687b      	ldr	r3, [r7, #4]
20001f88:	68db      	ldr	r3, [r3, #12]
20001f8a:	429a      	cmp	r2, r3
20001f8c:	d319      	bcc.n	20001fc2 <fill_slave_tx_fifo+0xd6>
20001f8e:	687b      	ldr	r3, [r7, #4]
20001f90:	69da      	ldr	r2, [r3, #28]
20001f92:	687b      	ldr	r3, [r7, #4]
20001f94:	699b      	ldr	r3, [r3, #24]
20001f96:	429a      	cmp	r2, r3
20001f98:	d313      	bcc.n	20001fc2 <fill_slave_tx_fifo+0xd6>
20001f9a:	e008      	b.n	20001fae <fill_slave_tx_fifo+0xc2>
20001f9c:	687b      	ldr	r3, [r7, #4]
20001f9e:	681b      	ldr	r3, [r3, #0]
20001fa0:	f04f 0200 	mov.w	r2, #0
20001fa4:	615a      	str	r2, [r3, #20]
20001fa6:	68fb      	ldr	r3, [r7, #12]
20001fa8:	f103 0301 	add.w	r3, r3, #1
20001fac:	60fb      	str	r3, [r7, #12]
20001fae:	687b      	ldr	r3, [r7, #4]
20001fb0:	681b      	ldr	r3, [r3, #0]
20001fb2:	689b      	ldr	r3, [r3, #8]
20001fb4:	f403 7380 	and.w	r3, r3, #256	; 0x100
20001fb8:	2b00      	cmp	r3, #0
20001fba:	d102      	bne.n	20001fc2 <fill_slave_tx_fifo+0xd6>
20001fbc:	68fb      	ldr	r3, [r7, #12]
20001fbe:	2b1f      	cmp	r3, #31
20001fc0:	d9ec      	bls.n	20001f9c <fill_slave_tx_fifo+0xb0>
20001fc2:	f107 0714 	add.w	r7, r7, #20
20001fc6:	46bd      	mov	sp, r7
20001fc8:	bc80      	pop	{r7}
20001fca:	4770      	bx	lr

20001fcc <read_slave_rx_fifo>:
20001fcc:	b580      	push	{r7, lr}
20001fce:	b084      	sub	sp, #16
20001fd0:	af00      	add	r7, sp, #0
20001fd2:	6078      	str	r0, [r7, #4]
20001fd4:	687b      	ldr	r3, [r7, #4]
20001fd6:	f893 3080 	ldrb.w	r3, [r3, #128]	; 0x80
20001fda:	2b02      	cmp	r3, #2
20001fdc:	d115      	bne.n	2000200a <read_slave_rx_fifo+0x3e>
20001fde:	e00c      	b.n	20001ffa <read_slave_rx_fifo+0x2e>
20001fe0:	687b      	ldr	r3, [r7, #4]
20001fe2:	681b      	ldr	r3, [r3, #0]
20001fe4:	691b      	ldr	r3, [r3, #16]
20001fe6:	60fb      	str	r3, [r7, #12]
20001fe8:	687b      	ldr	r3, [r7, #4]
20001fea:	6f5b      	ldr	r3, [r3, #116]	; 0x74
20001fec:	2b00      	cmp	r3, #0
20001fee:	d004      	beq.n	20001ffa <read_slave_rx_fifo+0x2e>
20001ff0:	687b      	ldr	r3, [r7, #4]
20001ff2:	6f5b      	ldr	r3, [r3, #116]	; 0x74
20001ff4:	68fa      	ldr	r2, [r7, #12]
20001ff6:	4610      	mov	r0, r2
20001ff8:	4798      	blx	r3
20001ffa:	687b      	ldr	r3, [r7, #4]
20001ffc:	681b      	ldr	r3, [r3, #0]
20001ffe:	689b      	ldr	r3, [r3, #8]
20002000:	f003 0340 	and.w	r3, r3, #64	; 0x40
20002004:	2b00      	cmp	r3, #0
20002006:	d0eb      	beq.n	20001fe0 <read_slave_rx_fifo+0x14>
20002008:	e032      	b.n	20002070 <read_slave_rx_fifo+0xa4>
2000200a:	687b      	ldr	r3, [r7, #4]
2000200c:	f893 3080 	ldrb.w	r3, [r3, #128]	; 0x80
20002010:	2b01      	cmp	r3, #1
20002012:	d125      	bne.n	20002060 <read_slave_rx_fifo+0x94>
20002014:	e017      	b.n	20002046 <read_slave_rx_fifo+0x7a>
20002016:	687b      	ldr	r3, [r7, #4]
20002018:	681b      	ldr	r3, [r3, #0]
2000201a:	691b      	ldr	r3, [r3, #16]
2000201c:	60fb      	str	r3, [r7, #12]
2000201e:	687b      	ldr	r3, [r7, #4]
20002020:	6b1a      	ldr	r2, [r3, #48]	; 0x30
20002022:	687b      	ldr	r3, [r7, #4]
20002024:	6adb      	ldr	r3, [r3, #44]	; 0x2c
20002026:	429a      	cmp	r2, r3
20002028:	d207      	bcs.n	2000203a <read_slave_rx_fifo+0x6e>
2000202a:	687b      	ldr	r3, [r7, #4]
2000202c:	6a9a      	ldr	r2, [r3, #40]	; 0x28
2000202e:	687b      	ldr	r3, [r7, #4]
20002030:	6b1b      	ldr	r3, [r3, #48]	; 0x30
20002032:	4413      	add	r3, r2
20002034:	68fa      	ldr	r2, [r7, #12]
20002036:	b2d2      	uxtb	r2, r2
20002038:	701a      	strb	r2, [r3, #0]
2000203a:	687b      	ldr	r3, [r7, #4]
2000203c:	6b1b      	ldr	r3, [r3, #48]	; 0x30
2000203e:	f103 0201 	add.w	r2, r3, #1
20002042:	687b      	ldr	r3, [r7, #4]
20002044:	631a      	str	r2, [r3, #48]	; 0x30
20002046:	687b      	ldr	r3, [r7, #4]
20002048:	681b      	ldr	r3, [r3, #0]
2000204a:	689b      	ldr	r3, [r3, #8]
2000204c:	f003 0340 	and.w	r3, r3, #64	; 0x40
20002050:	2b00      	cmp	r3, #0
20002052:	d0e0      	beq.n	20002016 <read_slave_rx_fifo+0x4a>
20002054:	e00c      	b.n	20002070 <read_slave_rx_fifo+0xa4>
20002056:	687b      	ldr	r3, [r7, #4]
20002058:	681b      	ldr	r3, [r3, #0]
2000205a:	691b      	ldr	r3, [r3, #16]
2000205c:	60fb      	str	r3, [r7, #12]
2000205e:	e000      	b.n	20002062 <read_slave_rx_fifo+0x96>
20002060:	bf00      	nop
20002062:	687b      	ldr	r3, [r7, #4]
20002064:	681b      	ldr	r3, [r3, #0]
20002066:	689b      	ldr	r3, [r3, #8]
20002068:	f003 0340 	and.w	r3, r3, #64	; 0x40
2000206c:	2b00      	cmp	r3, #0
2000206e:	d0f2      	beq.n	20002056 <read_slave_rx_fifo+0x8a>
20002070:	f107 0710 	add.w	r7, r7, #16
20002074:	46bd      	mov	sp, r7
20002076:	bd80      	pop	{r7, pc}

20002078 <mss_spi_isr>:
20002078:	b580      	push	{r7, lr}
2000207a:	b086      	sub	sp, #24
2000207c:	af00      	add	r7, sp, #0
2000207e:	6078      	str	r0, [r7, #4]
20002080:	687b      	ldr	r3, [r7, #4]
20002082:	681b      	ldr	r3, [r3, #0]
20002084:	f103 0320 	add.w	r3, r3, #32
20002088:	613b      	str	r3, [r7, #16]
2000208a:	687a      	ldr	r2, [r7, #4]
2000208c:	f64b 6380 	movw	r3, #48768	; 0xbe80
20002090:	f2c2 0300 	movt	r3, #8192	; 0x2000
20002094:	429a      	cmp	r2, r3
20002096:	d007      	beq.n	200020a8 <mss_spi_isr+0x30>
20002098:	687a      	ldr	r2, [r7, #4]
2000209a:	f64b 53fc 	movw	r3, #48636	; 0xbdfc
2000209e:	f2c2 0300 	movt	r3, #8192	; 0x2000
200020a2:	429a      	cmp	r2, r3
200020a4:	d000      	beq.n	200020a8 <mss_spi_isr+0x30>
200020a6:	be00      	bkpt	0x0000
200020a8:	693b      	ldr	r3, [r7, #16]
200020aa:	681b      	ldr	r3, [r3, #0]
200020ac:	f003 0302 	and.w	r3, r3, #2
200020b0:	2b00      	cmp	r3, #0
200020b2:	d052      	beq.n	2000215a <mss_spi_isr+0xe2>
200020b4:	687b      	ldr	r3, [r7, #4]
200020b6:	f893 3080 	ldrb.w	r3, [r3, #128]	; 0x80
200020ba:	2b02      	cmp	r3, #2
200020bc:	d115      	bne.n	200020ea <mss_spi_isr+0x72>
200020be:	e00c      	b.n	200020da <mss_spi_isr+0x62>
200020c0:	687b      	ldr	r3, [r7, #4]
200020c2:	681b      	ldr	r3, [r3, #0]
200020c4:	691b      	ldr	r3, [r3, #16]
200020c6:	60fb      	str	r3, [r7, #12]
200020c8:	687b      	ldr	r3, [r7, #4]
200020ca:	6f5b      	ldr	r3, [r3, #116]	; 0x74
200020cc:	2b00      	cmp	r3, #0
200020ce:	d004      	beq.n	200020da <mss_spi_isr+0x62>
200020d0:	687b      	ldr	r3, [r7, #4]
200020d2:	6f5b      	ldr	r3, [r3, #116]	; 0x74
200020d4:	68fa      	ldr	r2, [r7, #12]
200020d6:	4610      	mov	r0, r2
200020d8:	4798      	blx	r3
200020da:	687b      	ldr	r3, [r7, #4]
200020dc:	681b      	ldr	r3, [r3, #0]
200020de:	689b      	ldr	r3, [r3, #8]
200020e0:	f003 0340 	and.w	r3, r3, #64	; 0x40
200020e4:	2b00      	cmp	r3, #0
200020e6:	d0eb      	beq.n	200020c0 <mss_spi_isr+0x48>
200020e8:	e032      	b.n	20002150 <mss_spi_isr+0xd8>
200020ea:	687b      	ldr	r3, [r7, #4]
200020ec:	f893 3080 	ldrb.w	r3, [r3, #128]	; 0x80
200020f0:	2b01      	cmp	r3, #1
200020f2:	d125      	bne.n	20002140 <mss_spi_isr+0xc8>
200020f4:	e017      	b.n	20002126 <mss_spi_isr+0xae>
200020f6:	687b      	ldr	r3, [r7, #4]
200020f8:	681b      	ldr	r3, [r3, #0]
200020fa:	691b      	ldr	r3, [r3, #16]
200020fc:	60fb      	str	r3, [r7, #12]
200020fe:	687b      	ldr	r3, [r7, #4]
20002100:	6b1a      	ldr	r2, [r3, #48]	; 0x30
20002102:	687b      	ldr	r3, [r7, #4]
20002104:	6adb      	ldr	r3, [r3, #44]	; 0x2c
20002106:	429a      	cmp	r2, r3
20002108:	d207      	bcs.n	2000211a <mss_spi_isr+0xa2>
2000210a:	687b      	ldr	r3, [r7, #4]
2000210c:	6a9a      	ldr	r2, [r3, #40]	; 0x28
2000210e:	687b      	ldr	r3, [r7, #4]
20002110:	6b1b      	ldr	r3, [r3, #48]	; 0x30
20002112:	4413      	add	r3, r2
20002114:	68fa      	ldr	r2, [r7, #12]
20002116:	b2d2      	uxtb	r2, r2
20002118:	701a      	strb	r2, [r3, #0]
2000211a:	687b      	ldr	r3, [r7, #4]
2000211c:	6b1b      	ldr	r3, [r3, #48]	; 0x30
2000211e:	f103 0201 	add.w	r2, r3, #1
20002122:	687b      	ldr	r3, [r7, #4]
20002124:	631a      	str	r2, [r3, #48]	; 0x30
20002126:	687b      	ldr	r3, [r7, #4]
20002128:	681b      	ldr	r3, [r3, #0]
2000212a:	689b      	ldr	r3, [r3, #8]
2000212c:	f003 0340 	and.w	r3, r3, #64	; 0x40
20002130:	2b00      	cmp	r3, #0
20002132:	d0e0      	beq.n	200020f6 <mss_spi_isr+0x7e>
20002134:	e00c      	b.n	20002150 <mss_spi_isr+0xd8>
20002136:	687b      	ldr	r3, [r7, #4]
20002138:	681b      	ldr	r3, [r3, #0]
2000213a:	691b      	ldr	r3, [r3, #16]
2000213c:	60fb      	str	r3, [r7, #12]
2000213e:	e000      	b.n	20002142 <mss_spi_isr+0xca>
20002140:	bf00      	nop
20002142:	687b      	ldr	r3, [r7, #4]
20002144:	681b      	ldr	r3, [r3, #0]
20002146:	689b      	ldr	r3, [r3, #8]
20002148:	f003 0340 	and.w	r3, r3, #64	; 0x40
2000214c:	2b00      	cmp	r3, #0
2000214e:	d0f2      	beq.n	20002136 <mss_spi_isr+0xbe>
20002150:	687b      	ldr	r3, [r7, #4]
20002152:	681b      	ldr	r3, [r3, #0]
20002154:	f04f 0202 	mov.w	r2, #2
20002158:	60da      	str	r2, [r3, #12]
2000215a:	693b      	ldr	r3, [r7, #16]
2000215c:	681b      	ldr	r3, [r3, #0]
2000215e:	f003 0301 	and.w	r3, r3, #1
20002162:	b2db      	uxtb	r3, r3
20002164:	2b00      	cmp	r3, #0
20002166:	d012      	beq.n	2000218e <mss_spi_isr+0x116>
20002168:	687b      	ldr	r3, [r7, #4]
2000216a:	f893 3080 	ldrb.w	r3, [r3, #128]	; 0x80
2000216e:	2b02      	cmp	r3, #2
20002170:	d105      	bne.n	2000217e <mss_spi_isr+0x106>
20002172:	687b      	ldr	r3, [r7, #4]
20002174:	681b      	ldr	r3, [r3, #0]
20002176:	687a      	ldr	r2, [r7, #4]
20002178:	6f92      	ldr	r2, [r2, #120]	; 0x78
2000217a:	615a      	str	r2, [r3, #20]
2000217c:	e002      	b.n	20002184 <mss_spi_isr+0x10c>
2000217e:	6878      	ldr	r0, [r7, #4]
20002180:	f7ff feb4 	bl	20001eec <fill_slave_tx_fifo>
20002184:	687b      	ldr	r3, [r7, #4]
20002186:	681b      	ldr	r3, [r3, #0]
20002188:	f04f 0201 	mov.w	r2, #1
2000218c:	60da      	str	r2, [r3, #12]
2000218e:	693b      	ldr	r3, [r7, #16]
20002190:	681b      	ldr	r3, [r3, #0]
20002192:	f003 0310 	and.w	r3, r3, #16
20002196:	2b00      	cmp	r3, #0
20002198:	d023      	beq.n	200021e2 <mss_spi_isr+0x16a>
2000219a:	6878      	ldr	r0, [r7, #4]
2000219c:	f7ff ff16 	bl	20001fcc <read_slave_rx_fifo>
200021a0:	687b      	ldr	r3, [r7, #4]
200021a2:	6a1b      	ldr	r3, [r3, #32]
200021a4:	2b00      	cmp	r3, #0
200021a6:	d00b      	beq.n	200021c0 <mss_spi_isr+0x148>
200021a8:	687b      	ldr	r3, [r7, #4]
200021aa:	6a1b      	ldr	r3, [r3, #32]
200021ac:	687a      	ldr	r2, [r7, #4]
200021ae:	6a91      	ldr	r1, [r2, #40]	; 0x28
200021b0:	687a      	ldr	r2, [r7, #4]
200021b2:	6b12      	ldr	r2, [r2, #48]	; 0x30
200021b4:	4608      	mov	r0, r1
200021b6:	4611      	mov	r1, r2
200021b8:	4798      	blx	r3
200021ba:	6878      	ldr	r0, [r7, #4]
200021bc:	f7ff fe96 	bl	20001eec <fill_slave_tx_fifo>
200021c0:	687b      	ldr	r3, [r7, #4]
200021c2:	f04f 0201 	mov.w	r2, #1
200021c6:	625a      	str	r2, [r3, #36]	; 0x24
200021c8:	687b      	ldr	r3, [r7, #4]
200021ca:	681b      	ldr	r3, [r3, #0]
200021cc:	687a      	ldr	r2, [r7, #4]
200021ce:	6812      	ldr	r2, [r2, #0]
200021d0:	6a92      	ldr	r2, [r2, #40]	; 0x28
200021d2:	f022 0210 	bic.w	r2, r2, #16
200021d6:	629a      	str	r2, [r3, #40]	; 0x28
200021d8:	687b      	ldr	r3, [r7, #4]
200021da:	681b      	ldr	r3, [r3, #0]
200021dc:	f04f 0210 	mov.w	r2, #16
200021e0:	60da      	str	r2, [r3, #12]
200021e2:	693b      	ldr	r3, [r7, #16]
200021e4:	681b      	ldr	r3, [r3, #0]
200021e6:	f003 0304 	and.w	r3, r3, #4
200021ea:	2b00      	cmp	r3, #0
200021ec:	d00f      	beq.n	2000220e <mss_spi_isr+0x196>
200021ee:	687b      	ldr	r3, [r7, #4]
200021f0:	681b      	ldr	r3, [r3, #0]
200021f2:	687a      	ldr	r2, [r7, #4]
200021f4:	6812      	ldr	r2, [r2, #0]
200021f6:	6ad2      	ldr	r2, [r2, #44]	; 0x2c
200021f8:	f042 0204 	orr.w	r2, r2, #4
200021fc:	62da      	str	r2, [r3, #44]	; 0x2c
200021fe:	6878      	ldr	r0, [r7, #4]
20002200:	f7ff fbf2 	bl	200019e8 <recover_from_rx_overflow>
20002204:	687b      	ldr	r3, [r7, #4]
20002206:	681b      	ldr	r3, [r3, #0]
20002208:	f04f 0204 	mov.w	r2, #4
2000220c:	60da      	str	r2, [r3, #12]
2000220e:	693b      	ldr	r3, [r7, #16]
20002210:	681b      	ldr	r3, [r3, #0]
20002212:	f003 0308 	and.w	r3, r3, #8
20002216:	2b00      	cmp	r3, #0
20002218:	d031      	beq.n	2000227e <mss_spi_isr+0x206>
2000221a:	687b      	ldr	r3, [r7, #4]
2000221c:	681b      	ldr	r3, [r3, #0]
2000221e:	687a      	ldr	r2, [r7, #4]
20002220:	6812      	ldr	r2, [r2, #0]
20002222:	6ad2      	ldr	r2, [r2, #44]	; 0x2c
20002224:	f042 0208 	orr.w	r2, r2, #8
20002228:	62da      	str	r2, [r3, #44]	; 0x2c
2000222a:	687b      	ldr	r3, [r7, #4]
2000222c:	f893 3080 	ldrb.w	r3, [r3, #128]	; 0x80
20002230:	2b02      	cmp	r3, #2
20002232:	d113      	bne.n	2000225c <mss_spi_isr+0x1e4>
20002234:	687b      	ldr	r3, [r7, #4]
20002236:	681a      	ldr	r2, [r3, #0]
20002238:	687b      	ldr	r3, [r7, #4]
2000223a:	681b      	ldr	r3, [r3, #0]
2000223c:	6819      	ldr	r1, [r3, #0]
2000223e:	f240 03ff 	movw	r3, #255	; 0xff
20002242:	f6cf 7300 	movt	r3, #65280	; 0xff00
20002246:	ea01 0303 	and.w	r3, r1, r3
2000224a:	f443 7380 	orr.w	r3, r3, #256	; 0x100
2000224e:	6013      	str	r3, [r2, #0]
20002250:	687b      	ldr	r3, [r7, #4]
20002252:	681b      	ldr	r3, [r3, #0]
20002254:	687a      	ldr	r2, [r7, #4]
20002256:	6f92      	ldr	r2, [r2, #120]	; 0x78
20002258:	615a      	str	r2, [r3, #20]
2000225a:	e00b      	b.n	20002274 <mss_spi_isr+0x1fc>
2000225c:	687b      	ldr	r3, [r7, #4]
2000225e:	f893 3080 	ldrb.w	r3, [r3, #128]	; 0x80
20002262:	2b01      	cmp	r3, #1
20002264:	d106      	bne.n	20002274 <mss_spi_isr+0x1fc>
20002266:	687b      	ldr	r3, [r7, #4]
20002268:	f04f 0200 	mov.w	r2, #0
2000226c:	611a      	str	r2, [r3, #16]
2000226e:	6878      	ldr	r0, [r7, #4]
20002270:	f7ff fe3c 	bl	20001eec <fill_slave_tx_fifo>
20002274:	687b      	ldr	r3, [r7, #4]
20002276:	681b      	ldr	r3, [r3, #0]
20002278:	f04f 0208 	mov.w	r2, #8
2000227c:	60da      	str	r2, [r3, #12]
2000227e:	693b      	ldr	r3, [r7, #16]
20002280:	681b      	ldr	r3, [r3, #0]
20002282:	f003 0320 	and.w	r3, r3, #32
20002286:	2b00      	cmp	r3, #0
20002288:	d049      	beq.n	2000231e <mss_spi_isr+0x2a6>
2000228a:	6878      	ldr	r0, [r7, #4]
2000228c:	f7ff fe9e 	bl	20001fcc <read_slave_rx_fifo>
20002290:	687b      	ldr	r3, [r7, #4]
20002292:	6b1b      	ldr	r3, [r3, #48]	; 0x30
20002294:	617b      	str	r3, [r7, #20]
20002296:	687b      	ldr	r3, [r7, #4]
20002298:	6a1b      	ldr	r3, [r3, #32]
2000229a:	2b00      	cmp	r3, #0
2000229c:	d01c      	beq.n	200022d8 <mss_spi_isr+0x260>
2000229e:	687b      	ldr	r3, [r7, #4]
200022a0:	f04f 0200 	mov.w	r2, #0
200022a4:	625a      	str	r2, [r3, #36]	; 0x24
200022a6:	687b      	ldr	r3, [r7, #4]
200022a8:	f04f 0200 	mov.w	r2, #0
200022ac:	615a      	str	r2, [r3, #20]
200022ae:	687b      	ldr	r3, [r7, #4]
200022b0:	f04f 0200 	mov.w	r2, #0
200022b4:	619a      	str	r2, [r3, #24]
200022b6:	687b      	ldr	r3, [r7, #4]
200022b8:	f04f 0200 	mov.w	r2, #0
200022bc:	61da      	str	r2, [r3, #28]
200022be:	687b      	ldr	r3, [r7, #4]
200022c0:	681b      	ldr	r3, [r3, #0]
200022c2:	f04f 0210 	mov.w	r2, #16
200022c6:	60da      	str	r2, [r3, #12]
200022c8:	687b      	ldr	r3, [r7, #4]
200022ca:	681b      	ldr	r3, [r3, #0]
200022cc:	687a      	ldr	r2, [r7, #4]
200022ce:	6812      	ldr	r2, [r2, #0]
200022d0:	6a92      	ldr	r2, [r2, #40]	; 0x28
200022d2:	f042 0210 	orr.w	r2, r2, #16
200022d6:	629a      	str	r2, [r3, #40]	; 0x28
200022d8:	687b      	ldr	r3, [r7, #4]
200022da:	f04f 0200 	mov.w	r2, #0
200022de:	611a      	str	r2, [r3, #16]
200022e0:	687b      	ldr	r3, [r7, #4]
200022e2:	681b      	ldr	r3, [r3, #0]
200022e4:	687a      	ldr	r2, [r7, #4]
200022e6:	6812      	ldr	r2, [r2, #0]
200022e8:	6ad2      	ldr	r2, [r2, #44]	; 0x2c
200022ea:	f042 020c 	orr.w	r2, r2, #12
200022ee:	62da      	str	r2, [r3, #44]	; 0x2c
200022f0:	6878      	ldr	r0, [r7, #4]
200022f2:	f7ff fdfb 	bl	20001eec <fill_slave_tx_fifo>
200022f6:	687b      	ldr	r3, [r7, #4]
200022f8:	f04f 0200 	mov.w	r2, #0
200022fc:	631a      	str	r2, [r3, #48]	; 0x30
200022fe:	687b      	ldr	r3, [r7, #4]
20002300:	6fdb      	ldr	r3, [r3, #124]	; 0x7c
20002302:	2b00      	cmp	r3, #0
20002304:	d006      	beq.n	20002314 <mss_spi_isr+0x29c>
20002306:	687b      	ldr	r3, [r7, #4]
20002308:	6fdb      	ldr	r3, [r3, #124]	; 0x7c
2000230a:	687a      	ldr	r2, [r7, #4]
2000230c:	6a92      	ldr	r2, [r2, #40]	; 0x28
2000230e:	4610      	mov	r0, r2
20002310:	6979      	ldr	r1, [r7, #20]
20002312:	4798      	blx	r3
20002314:	687b      	ldr	r3, [r7, #4]
20002316:	681b      	ldr	r3, [r3, #0]
20002318:	f04f 0220 	mov.w	r2, #32
2000231c:	60da      	str	r2, [r3, #12]
2000231e:	f107 0718 	add.w	r7, r7, #24
20002322:	46bd      	mov	sp, r7
20002324:	bd80      	pop	{r7, pc}
20002326:	bf00      	nop

20002328 <SPI0_IRQHandler>:
20002328:	4668      	mov	r0, sp
2000232a:	f020 0107 	bic.w	r1, r0, #7
2000232e:	468d      	mov	sp, r1
20002330:	b589      	push	{r0, r3, r7, lr}
20002332:	af00      	add	r7, sp, #0
20002334:	f64b 6080 	movw	r0, #48768	; 0xbe80
20002338:	f2c2 0000 	movt	r0, #8192	; 0x2000
2000233c:	f7ff fe9c 	bl	20002078 <mss_spi_isr>
20002340:	f04f 000c 	mov.w	r0, #12
20002344:	f7ff fa98 	bl	20001878 <NVIC_ClearPendingIRQ>
20002348:	46bd      	mov	sp, r7
2000234a:	e8bd 4089 	ldmia.w	sp!, {r0, r3, r7, lr}
2000234e:	4685      	mov	sp, r0
20002350:	4770      	bx	lr
20002352:	bf00      	nop

20002354 <SPI1_IRQHandler>:
20002354:	4668      	mov	r0, sp
20002356:	f020 0107 	bic.w	r1, r0, #7
2000235a:	468d      	mov	sp, r1
2000235c:	b589      	push	{r0, r3, r7, lr}
2000235e:	af00      	add	r7, sp, #0
20002360:	f64b 50fc 	movw	r0, #48636	; 0xbdfc
20002364:	f2c2 0000 	movt	r0, #8192	; 0x2000
20002368:	f7ff fe86 	bl	20002078 <mss_spi_isr>
2000236c:	f04f 000d 	mov.w	r0, #13
20002370:	f7ff fa82 	bl	20001878 <NVIC_ClearPendingIRQ>
20002374:	46bd      	mov	sp, r7
20002376:	e8bd 4089 	ldmia.w	sp!, {r0, r3, r7, lr}
2000237a:	4685      	mov	sp, r0
2000237c:	4770      	bx	lr
2000237e:	bf00      	nop

20002380 <NVIC_EnableIRQ>:
20002380:	b480      	push	{r7}
20002382:	b083      	sub	sp, #12
20002384:	af00      	add	r7, sp, #0
20002386:	4603      	mov	r3, r0
20002388:	80fb      	strh	r3, [r7, #6]
2000238a:	f24e 1300 	movw	r3, #57600	; 0xe100
2000238e:	f2ce 0300 	movt	r3, #57344	; 0xe000
20002392:	f9b7 2006 	ldrsh.w	r2, [r7, #6]
20002396:	ea4f 1252 	mov.w	r2, r2, lsr #5
2000239a:	88f9      	ldrh	r1, [r7, #6]
2000239c:	f001 011f 	and.w	r1, r1, #31
200023a0:	f04f 0001 	mov.w	r0, #1
200023a4:	fa00 f101 	lsl.w	r1, r0, r1
200023a8:	f843 1022 	str.w	r1, [r3, r2, lsl #2]
200023ac:	f107 070c 	add.w	r7, r7, #12
200023b0:	46bd      	mov	sp, r7
200023b2:	bc80      	pop	{r7}
200023b4:	4770      	bx	lr
200023b6:	bf00      	nop

200023b8 <NVIC_ClearPendingIRQ>:
200023b8:	b480      	push	{r7}
200023ba:	b083      	sub	sp, #12
200023bc:	af00      	add	r7, sp, #0
200023be:	4603      	mov	r3, r0
200023c0:	80fb      	strh	r3, [r7, #6]
200023c2:	f24e 1300 	movw	r3, #57600	; 0xe100
200023c6:	f2ce 0300 	movt	r3, #57344	; 0xe000
200023ca:	f9b7 2006 	ldrsh.w	r2, [r7, #6]
200023ce:	ea4f 1252 	mov.w	r2, r2, lsr #5
200023d2:	88f9      	ldrh	r1, [r7, #6]
200023d4:	f001 011f 	and.w	r1, r1, #31
200023d8:	f04f 0001 	mov.w	r0, #1
200023dc:	fa00 f101 	lsl.w	r1, r0, r1
200023e0:	f102 0260 	add.w	r2, r2, #96	; 0x60
200023e4:	f843 1022 	str.w	r1, [r3, r2, lsl #2]
200023e8:	f107 070c 	add.w	r7, r7, #12
200023ec:	46bd      	mov	sp, r7
200023ee:	bc80      	pop	{r7}
200023f0:	4770      	bx	lr
200023f2:	bf00      	nop

200023f4 <MSS_GPIO_init>:
200023f4:	b580      	push	{r7, lr}
200023f6:	b082      	sub	sp, #8
200023f8:	af00      	add	r7, sp, #0
200023fa:	f242 0300 	movw	r3, #8192	; 0x2000
200023fe:	f2ce 0304 	movt	r3, #57348	; 0xe004
20002402:	f242 0200 	movw	r2, #8192	; 0x2000
20002406:	f2ce 0204 	movt	r2, #57348	; 0xe004
2000240a:	6b12      	ldr	r2, [r2, #48]	; 0x30
2000240c:	f442 4280 	orr.w	r2, r2, #16384	; 0x4000
20002410:	631a      	str	r2, [r3, #48]	; 0x30
20002412:	f04f 0300 	mov.w	r3, #0
20002416:	607b      	str	r3, [r7, #4]
20002418:	e00e      	b.n	20002438 <MSS_GPIO_init+0x44>
2000241a:	687a      	ldr	r2, [r7, #4]
2000241c:	f249 5304 	movw	r3, #38148	; 0x9504
20002420:	f2c2 0300 	movt	r3, #8192	; 0x2000
20002424:	f833 3012 	ldrh.w	r3, [r3, r2, lsl #1]
20002428:	b21b      	sxth	r3, r3
2000242a:	4618      	mov	r0, r3
2000242c:	f7ff ffc4 	bl	200023b8 <NVIC_ClearPendingIRQ>
20002430:	687b      	ldr	r3, [r7, #4]
20002432:	f103 0301 	add.w	r3, r3, #1
20002436:	607b      	str	r3, [r7, #4]
20002438:	687b      	ldr	r3, [r7, #4]
2000243a:	2b1f      	cmp	r3, #31
2000243c:	d9ed      	bls.n	2000241a <MSS_GPIO_init+0x26>
2000243e:	f242 0300 	movw	r3, #8192	; 0x2000
20002442:	f2ce 0304 	movt	r3, #57348	; 0xe004
20002446:	f242 0200 	movw	r2, #8192	; 0x2000
2000244a:	f2ce 0204 	movt	r2, #57348	; 0xe004
2000244e:	6b12      	ldr	r2, [r2, #48]	; 0x30
20002450:	f422 4280 	bic.w	r2, r2, #16384	; 0x4000
20002454:	631a      	str	r2, [r3, #48]	; 0x30
20002456:	f107 0708 	add.w	r7, r7, #8
2000245a:	46bd      	mov	sp, r7
2000245c:	bd80      	pop	{r7, pc}
2000245e:	bf00      	nop

20002460 <MSS_GPIO_config>:
20002460:	b480      	push	{r7}
20002462:	b085      	sub	sp, #20
20002464:	af00      	add	r7, sp, #0
20002466:	4603      	mov	r3, r0
20002468:	6039      	str	r1, [r7, #0]
2000246a:	71fb      	strb	r3, [r7, #7]
2000246c:	79fb      	ldrb	r3, [r7, #7]
2000246e:	60fb      	str	r3, [r7, #12]
20002470:	68fb      	ldr	r3, [r7, #12]
20002472:	2b1f      	cmp	r3, #31
20002474:	d900      	bls.n	20002478 <MSS_GPIO_config+0x18>
20002476:	be00      	bkpt	0x0000
20002478:	68fb      	ldr	r3, [r7, #12]
2000247a:	2b1f      	cmp	r3, #31
2000247c:	d808      	bhi.n	20002490 <MSS_GPIO_config+0x30>
2000247e:	68fa      	ldr	r2, [r7, #12]
20002480:	f249 4384 	movw	r3, #38020	; 0x9484
20002484:	f2c2 0300 	movt	r3, #8192	; 0x2000
20002488:	f853 3022 	ldr.w	r3, [r3, r2, lsl #2]
2000248c:	683a      	ldr	r2, [r7, #0]
2000248e:	601a      	str	r2, [r3, #0]
20002490:	f107 0714 	add.w	r7, r7, #20
20002494:	46bd      	mov	sp, r7
20002496:	bc80      	pop	{r7}
20002498:	4770      	bx	lr
2000249a:	bf00      	nop

2000249c <MSS_GPIO_set_output>:
2000249c:	b480      	push	{r7}
2000249e:	b085      	sub	sp, #20
200024a0:	af00      	add	r7, sp, #0
200024a2:	4602      	mov	r2, r0
200024a4:	460b      	mov	r3, r1
200024a6:	71fa      	strb	r2, [r7, #7]
200024a8:	71bb      	strb	r3, [r7, #6]
200024aa:	79fb      	ldrb	r3, [r7, #7]
200024ac:	60fb      	str	r3, [r7, #12]
200024ae:	68fb      	ldr	r3, [r7, #12]
200024b0:	2b1f      	cmp	r3, #31
200024b2:	d900      	bls.n	200024b6 <MSS_GPIO_set_output+0x1a>
200024b4:	be00      	bkpt	0x0000
200024b6:	68fb      	ldr	r3, [r7, #12]
200024b8:	2b1f      	cmp	r3, #31
200024ba:	d809      	bhi.n	200024d0 <MSS_GPIO_set_output+0x34>
200024bc:	f240 0300 	movw	r3, #0
200024c0:	f2c4 2326 	movt	r3, #16934	; 0x4226
200024c4:	68fa      	ldr	r2, [r7, #12]
200024c6:	79b9      	ldrb	r1, [r7, #6]
200024c8:	f502 6288 	add.w	r2, r2, #1088	; 0x440
200024cc:	f843 1022 	str.w	r1, [r3, r2, lsl #2]
200024d0:	f107 0714 	add.w	r7, r7, #20
200024d4:	46bd      	mov	sp, r7
200024d6:	bc80      	pop	{r7}
200024d8:	4770      	bx	lr
200024da:	bf00      	nop

200024dc <MSS_GPIO_enable_irq>:
200024dc:	b580      	push	{r7, lr}
200024de:	b084      	sub	sp, #16
200024e0:	af00      	add	r7, sp, #0
200024e2:	4603      	mov	r3, r0
200024e4:	71fb      	strb	r3, [r7, #7]
200024e6:	79fb      	ldrb	r3, [r7, #7]
200024e8:	60fb      	str	r3, [r7, #12]
200024ea:	68fb      	ldr	r3, [r7, #12]
200024ec:	2b1f      	cmp	r3, #31
200024ee:	d900      	bls.n	200024f2 <MSS_GPIO_enable_irq+0x16>
200024f0:	be00      	bkpt	0x0000
200024f2:	68fb      	ldr	r3, [r7, #12]
200024f4:	2b1f      	cmp	r3, #31
200024f6:	d81e      	bhi.n	20002536 <MSS_GPIO_enable_irq+0x5a>
200024f8:	68fa      	ldr	r2, [r7, #12]
200024fa:	f249 4384 	movw	r3, #38020	; 0x9484
200024fe:	f2c2 0300 	movt	r3, #8192	; 0x2000
20002502:	f853 3022 	ldr.w	r3, [r3, r2, lsl #2]
20002506:	681b      	ldr	r3, [r3, #0]
20002508:	60bb      	str	r3, [r7, #8]
2000250a:	68fa      	ldr	r2, [r7, #12]
2000250c:	f249 4384 	movw	r3, #38020	; 0x9484
20002510:	f2c2 0300 	movt	r3, #8192	; 0x2000
20002514:	f853 3022 	ldr.w	r3, [r3, r2, lsl #2]
20002518:	68ba      	ldr	r2, [r7, #8]
2000251a:	f042 0208 	orr.w	r2, r2, #8
2000251e:	601a      	str	r2, [r3, #0]
20002520:	68fa      	ldr	r2, [r7, #12]
20002522:	f249 5304 	movw	r3, #38148	; 0x9504
20002526:	f2c2 0300 	movt	r3, #8192	; 0x2000
2000252a:	f833 3012 	ldrh.w	r3, [r3, r2, lsl #1]
2000252e:	b21b      	sxth	r3, r3
20002530:	4618      	mov	r0, r3
20002532:	f7ff ff25 	bl	20002380 <NVIC_EnableIRQ>
20002536:	f107 0710 	add.w	r7, r7, #16
2000253a:	46bd      	mov	sp, r7
2000253c:	bd80      	pop	{r7, pc}
2000253e:	bf00      	nop

20002540 <MSS_GPIO_clear_irq>:
20002540:	b580      	push	{r7, lr}
20002542:	b084      	sub	sp, #16
20002544:	af00      	add	r7, sp, #0
20002546:	4603      	mov	r3, r0
20002548:	71fb      	strb	r3, [r7, #7]
2000254a:	79fb      	ldrb	r3, [r7, #7]
2000254c:	60fb      	str	r3, [r7, #12]
2000254e:	68fb      	ldr	r3, [r7, #12]
20002550:	2b1f      	cmp	r3, #31
20002552:	d900      	bls.n	20002556 <MSS_GPIO_clear_irq+0x16>
20002554:	be00      	bkpt	0x0000
20002556:	68fb      	ldr	r3, [r7, #12]
20002558:	2b1f      	cmp	r3, #31
2000255a:	d815      	bhi.n	20002588 <MSS_GPIO_clear_irq+0x48>
2000255c:	f243 0300 	movw	r3, #12288	; 0x3000
20002560:	f2c4 0301 	movt	r3, #16385	; 0x4001
20002564:	68fa      	ldr	r2, [r7, #12]
20002566:	f04f 0101 	mov.w	r1, #1
2000256a:	fa01 f202 	lsl.w	r2, r1, r2
2000256e:	f8c3 2080 	str.w	r2, [r3, #128]	; 0x80
20002572:	68fa      	ldr	r2, [r7, #12]
20002574:	f249 5304 	movw	r3, #38148	; 0x9504
20002578:	f2c2 0300 	movt	r3, #8192	; 0x2000
2000257c:	f833 3012 	ldrh.w	r3, [r3, r2, lsl #1]
20002580:	b21b      	sxth	r3, r3
20002582:	4618      	mov	r0, r3
20002584:	f7ff ff18 	bl	200023b8 <NVIC_ClearPendingIRQ>
20002588:	f107 0710 	add.w	r7, r7, #16
2000258c:	46bd      	mov	sp, r7
2000258e:	bd80      	pop	{r7, pc}

20002590 <ACE_init>:
20002590:	b580      	push	{r7, lr}
20002592:	af00      	add	r7, sp, #0
20002594:	f000 fa82 	bl	20002a9c <ace_init_flags>
20002598:	f000 f988 	bl	200028ac <ace_init_convert>
2000259c:	bd80      	pop	{r7, pc}
2000259e:	bf00      	nop

200025a0 <ACE_get_channel_handle>:
200025a0:	b580      	push	{r7, lr}
200025a2:	b084      	sub	sp, #16
200025a4:	af00      	add	r7, sp, #0
200025a6:	6078      	str	r0, [r7, #4]
200025a8:	f04f 0304 	mov.w	r3, #4
200025ac:	72fb      	strb	r3, [r7, #11]
200025ae:	f04f 0300 	mov.w	r3, #0
200025b2:	813b      	strh	r3, [r7, #8]
200025b4:	e025      	b.n	20002602 <ACE_get_channel_handle+0x62>
200025b6:	893a      	ldrh	r2, [r7, #8]
200025b8:	f649 03ac 	movw	r3, #39084	; 0x98ac
200025bc:	f2c2 0300 	movt	r3, #8192	; 0x2000
200025c0:	ea4f 1202 	mov.w	r2, r2, lsl #4
200025c4:	4413      	add	r3, r2
200025c6:	681b      	ldr	r3, [r3, #0]
200025c8:	2b00      	cmp	r3, #0
200025ca:	d016      	beq.n	200025fa <ACE_get_channel_handle+0x5a>
200025cc:	893a      	ldrh	r2, [r7, #8]
200025ce:	f649 03ac 	movw	r3, #39084	; 0x98ac
200025d2:	f2c2 0300 	movt	r3, #8192	; 0x2000
200025d6:	ea4f 1202 	mov.w	r2, r2, lsl #4
200025da:	4413      	add	r3, r2
200025dc:	681b      	ldr	r3, [r3, #0]
200025de:	6878      	ldr	r0, [r7, #4]
200025e0:	4619      	mov	r1, r3
200025e2:	f04f 0210 	mov.w	r2, #16
200025e6:	f000 fdad 	bl	20003144 <strncmp>
200025ea:	4603      	mov	r3, r0
200025ec:	60fb      	str	r3, [r7, #12]
200025ee:	68fb      	ldr	r3, [r7, #12]
200025f0:	2b00      	cmp	r3, #0
200025f2:	d102      	bne.n	200025fa <ACE_get_channel_handle+0x5a>
200025f4:	893b      	ldrh	r3, [r7, #8]
200025f6:	72fb      	strb	r3, [r7, #11]
200025f8:	e006      	b.n	20002608 <ACE_get_channel_handle+0x68>
200025fa:	893b      	ldrh	r3, [r7, #8]
200025fc:	f103 0301 	add.w	r3, r3, #1
20002600:	813b      	strh	r3, [r7, #8]
20002602:	893b      	ldrh	r3, [r7, #8]
20002604:	2b03      	cmp	r3, #3
20002606:	d9d6      	bls.n	200025b6 <ACE_get_channel_handle+0x16>
20002608:	7afb      	ldrb	r3, [r7, #11]
2000260a:	4618      	mov	r0, r3
2000260c:	f107 0710 	add.w	r7, r7, #16
20002610:	46bd      	mov	sp, r7
20002612:	bd80      	pop	{r7, pc}

20002614 <ACE_get_ppe_sample>:
20002614:	b480      	push	{r7}
20002616:	b085      	sub	sp, #20
20002618:	af00      	add	r7, sp, #0
2000261a:	4603      	mov	r3, r0
2000261c:	71fb      	strb	r3, [r7, #7]
2000261e:	79fa      	ldrb	r2, [r7, #7]
20002620:	f649 03ac 	movw	r3, #39084	; 0x98ac
20002624:	f2c2 0300 	movt	r3, #8192	; 0x2000
20002628:	ea4f 1202 	mov.w	r2, r2, lsl #4
2000262c:	4413      	add	r3, r2
2000262e:	88db      	ldrh	r3, [r3, #6]
20002630:	81fb      	strh	r3, [r7, #14]
20002632:	f240 0300 	movw	r3, #0
20002636:	f2c4 0302 	movt	r3, #16386	; 0x4002
2000263a:	89fa      	ldrh	r2, [r7, #14]
2000263c:	f502 62c0 	add.w	r2, r2, #1536	; 0x600
20002640:	f853 3022 	ldr.w	r3, [r3, r2, lsl #2]
20002644:	ea4f 4313 	mov.w	r3, r3, lsr #16
20002648:	81bb      	strh	r3, [r7, #12]
2000264a:	89bb      	ldrh	r3, [r7, #12]
2000264c:	b21b      	sxth	r3, r3
2000264e:	2b00      	cmp	r3, #0
20002650:	da02      	bge.n	20002658 <ACE_get_ppe_sample+0x44>
20002652:	f04f 0300 	mov.w	r3, #0
20002656:	81bb      	strh	r3, [r7, #12]
20002658:	89bb      	ldrh	r3, [r7, #12]
2000265a:	4618      	mov	r0, r3
2000265c:	f107 0714 	add.w	r7, r7, #20
20002660:	46bd      	mov	sp, r7
20002662:	bc80      	pop	{r7}
20002664:	4770      	bx	lr
20002666:	bf00      	nop

20002668 <SystemInit>:
20002668:	b480      	push	{r7}
2000266a:	af00      	add	r7, sp, #0
2000266c:	46bd      	mov	sp, r7
2000266e:	bc80      	pop	{r7}
20002670:	4770      	bx	lr
20002672:	bf00      	nop

20002674 <SystemCoreClockUpdate>:
20002674:	b580      	push	{r7, lr}
20002676:	b08a      	sub	sp, #40	; 0x28
20002678:	af00      	add	r7, sp, #0
2000267a:	f249 5344 	movw	r3, #38212	; 0x9544
2000267e:	f2c2 0300 	movt	r3, #8192	; 0x2000
20002682:	46bc      	mov	ip, r7
20002684:	cb0f      	ldmia	r3!, {r0, r1, r2, r3}
20002686:	e88c 000f 	stmia.w	ip, {r0, r1, r2, r3}
2000268a:	f242 0300 	movw	r3, #8192	; 0x2000
2000268e:	f2ce 0304 	movt	r3, #57348	; 0xe004
20002692:	6c9b      	ldr	r3, [r3, #72]	; 0x48
20002694:	ea4f 0393 	mov.w	r3, r3, lsr #2
20002698:	f003 0303 	and.w	r3, r3, #3
2000269c:	ea4f 0383 	mov.w	r3, r3, lsl #2
200026a0:	f107 0228 	add.w	r2, r7, #40	; 0x28
200026a4:	4413      	add	r3, r2
200026a6:	f853 3c28 	ldr.w	r3, [r3, #-40]
200026aa:	613b      	str	r3, [r7, #16]
200026ac:	f242 0300 	movw	r3, #8192	; 0x2000
200026b0:	f2ce 0304 	movt	r3, #57348	; 0xe004
200026b4:	6c9b      	ldr	r3, [r3, #72]	; 0x48
200026b6:	ea4f 1313 	mov.w	r3, r3, lsr #4
200026ba:	f003 0303 	and.w	r3, r3, #3
200026be:	ea4f 0383 	mov.w	r3, r3, lsl #2
200026c2:	f107 0228 	add.w	r2, r7, #40	; 0x28
200026c6:	4413      	add	r3, r2
200026c8:	f853 3c28 	ldr.w	r3, [r3, #-40]
200026cc:	617b      	str	r3, [r7, #20]
200026ce:	f242 0300 	movw	r3, #8192	; 0x2000
200026d2:	f2ce 0304 	movt	r3, #57348	; 0xe004
200026d6:	6c9b      	ldr	r3, [r3, #72]	; 0x48
200026d8:	ea4f 1393 	mov.w	r3, r3, lsr #6
200026dc:	f003 0303 	and.w	r3, r3, #3
200026e0:	ea4f 0383 	mov.w	r3, r3, lsl #2
200026e4:	f107 0228 	add.w	r2, r7, #40	; 0x28
200026e8:	4413      	add	r3, r2
200026ea:	f853 3c28 	ldr.w	r3, [r3, #-40]
200026ee:	61bb      	str	r3, [r7, #24]
200026f0:	f242 0300 	movw	r3, #8192	; 0x2000
200026f4:	f2ce 0304 	movt	r3, #57348	; 0xe004
200026f8:	6cdb      	ldr	r3, [r3, #76]	; 0x4c
200026fa:	ea4f 2313 	mov.w	r3, r3, lsr #8
200026fe:	f003 031f 	and.w	r3, r3, #31
20002702:	623b      	str	r3, [r7, #32]
20002704:	f242 0300 	movw	r3, #8192	; 0x2000
20002708:	f2ce 0304 	movt	r3, #57348	; 0xe004
2000270c:	6cdb      	ldr	r3, [r3, #76]	; 0x4c
2000270e:	ea4f 3353 	mov.w	r3, r3, lsr #13
20002712:	f003 0301 	and.w	r3, r3, #1
20002716:	627b      	str	r3, [r7, #36]	; 0x24
20002718:	6a3b      	ldr	r3, [r7, #32]
2000271a:	f103 0301 	add.w	r3, r3, #1
2000271e:	61fb      	str	r3, [r7, #28]
20002720:	6a7b      	ldr	r3, [r7, #36]	; 0x24
20002722:	2b00      	cmp	r3, #0
20002724:	d003      	beq.n	2000272e <SystemCoreClockUpdate+0xba>
20002726:	69fb      	ldr	r3, [r7, #28]
20002728:	ea4f 0343 	mov.w	r3, r3, lsl #1
2000272c:	61fb      	str	r3, [r7, #28]
2000272e:	f000 f849 	bl	200027c4 <GetSystemClock>
20002732:	4602      	mov	r2, r0
20002734:	f649 0398 	movw	r3, #39064	; 0x9898
20002738:	f2c2 0300 	movt	r3, #8192	; 0x2000
2000273c:	601a      	str	r2, [r3, #0]
2000273e:	f649 0398 	movw	r3, #39064	; 0x9898
20002742:	f2c2 0300 	movt	r3, #8192	; 0x2000
20002746:	681a      	ldr	r2, [r3, #0]
20002748:	693b      	ldr	r3, [r7, #16]
2000274a:	fbb2 f2f3 	udiv	r2, r2, r3
2000274e:	f649 039c 	movw	r3, #39068	; 0x989c
20002752:	f2c2 0300 	movt	r3, #8192	; 0x2000
20002756:	601a      	str	r2, [r3, #0]
20002758:	f649 0398 	movw	r3, #39064	; 0x9898
2000275c:	f2c2 0300 	movt	r3, #8192	; 0x2000
20002760:	681a      	ldr	r2, [r3, #0]
20002762:	697b      	ldr	r3, [r7, #20]
20002764:	fbb2 f2f3 	udiv	r2, r2, r3
20002768:	f649 03a0 	movw	r3, #39072	; 0x98a0
2000276c:	f2c2 0300 	movt	r3, #8192	; 0x2000
20002770:	601a      	str	r2, [r3, #0]
20002772:	f649 0398 	movw	r3, #39064	; 0x9898
20002776:	f2c2 0300 	movt	r3, #8192	; 0x2000
2000277a:	681a      	ldr	r2, [r3, #0]
2000277c:	69bb      	ldr	r3, [r7, #24]
2000277e:	fbb2 f2f3 	udiv	r2, r2, r3
20002782:	f649 03a4 	movw	r3, #39076	; 0x98a4
20002786:	f2c2 0300 	movt	r3, #8192	; 0x2000
2000278a:	601a      	str	r2, [r3, #0]
2000278c:	f649 0398 	movw	r3, #39064	; 0x9898
20002790:	f2c2 0300 	movt	r3, #8192	; 0x2000
20002794:	681a      	ldr	r2, [r3, #0]
20002796:	69fb      	ldr	r3, [r7, #28]
20002798:	fbb2 f2f3 	udiv	r2, r2, r3
2000279c:	f649 03a8 	movw	r3, #39080	; 0x98a8
200027a0:	f2c2 0300 	movt	r3, #8192	; 0x2000
200027a4:	601a      	str	r2, [r3, #0]
200027a6:	f649 0398 	movw	r3, #39064	; 0x9898
200027aa:	f2c2 0300 	movt	r3, #8192	; 0x2000
200027ae:	681a      	ldr	r2, [r3, #0]
200027b0:	f649 0394 	movw	r3, #39060	; 0x9894
200027b4:	f2c2 0300 	movt	r3, #8192	; 0x2000
200027b8:	601a      	str	r2, [r3, #0]
200027ba:	f107 0728 	add.w	r7, r7, #40	; 0x28
200027be:	46bd      	mov	sp, r7
200027c0:	bd80      	pop	{r7, pc}
200027c2:	bf00      	nop

200027c4 <GetSystemClock>:
200027c4:	b480      	push	{r7}
200027c6:	b08b      	sub	sp, #44	; 0x2c
200027c8:	af00      	add	r7, sp, #0
200027ca:	f04f 0300 	mov.w	r3, #0
200027ce:	607b      	str	r3, [r7, #4]
200027d0:	f640 031c 	movw	r3, #2076	; 0x81c
200027d4:	f2c6 0308 	movt	r3, #24584	; 0x6008
200027d8:	60bb      	str	r3, [r7, #8]
200027da:	f240 2330 	movw	r3, #560	; 0x230
200027de:	f2c6 0308 	movt	r3, #24584	; 0x6008
200027e2:	60fb      	str	r3, [r7, #12]
200027e4:	68fb      	ldr	r3, [r7, #12]
200027e6:	681b      	ldr	r3, [r3, #0]
200027e8:	f023 4370 	bic.w	r3, r3, #4026531840	; 0xf0000000
200027ec:	613b      	str	r3, [r7, #16]
200027ee:	693a      	ldr	r2, [r7, #16]
200027f0:	f241 13cf 	movw	r3, #4559	; 0x11cf
200027f4:	f2c0 53a1 	movt	r3, #1441	; 0x5a1
200027f8:	429a      	cmp	r2, r3
200027fa:	d108      	bne.n	2000280e <GetSystemClock+0x4a>
200027fc:	f64e 732c 	movw	r3, #61228	; 0xef2c
20002800:	f2c6 0301 	movt	r3, #24577	; 0x6001
20002804:	617b      	str	r3, [r7, #20]
20002806:	697b      	ldr	r3, [r7, #20]
20002808:	681b      	ldr	r3, [r3, #0]
2000280a:	607b      	str	r3, [r7, #4]
2000280c:	e03d      	b.n	2000288a <GetSystemClock+0xc6>
2000280e:	68bb      	ldr	r3, [r7, #8]
20002810:	681a      	ldr	r2, [r3, #0]
20002812:	f244 3341 	movw	r3, #17217	; 0x4341
20002816:	f6c4 4354 	movt	r3, #19540	; 0x4c54
2000281a:	429a      	cmp	r2, r3
2000281c:	d135      	bne.n	2000288a <GetSystemClock+0xc6>
2000281e:	f640 0340 	movw	r3, #2112	; 0x840
20002822:	f2c6 0308 	movt	r3, #24584	; 0x6008
20002826:	61bb      	str	r3, [r7, #24]
20002828:	69bb      	ldr	r3, [r7, #24]
2000282a:	681b      	ldr	r3, [r3, #0]
2000282c:	61fb      	str	r3, [r7, #28]
2000282e:	69fb      	ldr	r3, [r7, #28]
20002830:	f023 437f 	bic.w	r3, r3, #4278190080	; 0xff000000
20002834:	61fb      	str	r3, [r7, #28]
20002836:	69fa      	ldr	r2, [r7, #28]
20002838:	f240 3300 	movw	r3, #768	; 0x300
2000283c:	f2c0 0301 	movt	r3, #1
20002840:	429a      	cmp	r2, r3
20002842:	d922      	bls.n	2000288a <GetSystemClock+0xc6>
20002844:	69fa      	ldr	r2, [r7, #28]
20002846:	f64f 73ff 	movw	r3, #65535	; 0xffff
2000284a:	f2c0 0301 	movt	r3, #1
2000284e:	429a      	cmp	r2, r3
20002850:	d808      	bhi.n	20002864 <GetSystemClock+0xa0>
20002852:	f241 632c 	movw	r3, #5676	; 0x162c
20002856:	f2c6 0308 	movt	r3, #24584	; 0x6008
2000285a:	623b      	str	r3, [r7, #32]
2000285c:	6a3b      	ldr	r3, [r7, #32]
2000285e:	681b      	ldr	r3, [r3, #0]
20002860:	607b      	str	r3, [r7, #4]
20002862:	e012      	b.n	2000288a <GetSystemClock+0xc6>
20002864:	69fa      	ldr	r2, [r7, #28]
20002866:	f64f 73ff 	movw	r3, #65535	; 0xffff
2000286a:	f2c0 0302 	movt	r3, #2
2000286e:	429a      	cmp	r2, r3
20002870:	d808      	bhi.n	20002884 <GetSystemClock+0xc0>
20002872:	f641 63ac 	movw	r3, #7852	; 0x1eac
20002876:	f2c6 0308 	movt	r3, #24584	; 0x6008
2000287a:	627b      	str	r3, [r7, #36]	; 0x24
2000287c:	6a7b      	ldr	r3, [r7, #36]	; 0x24
2000287e:	681b      	ldr	r3, [r3, #0]
20002880:	607b      	str	r3, [r7, #4]
20002882:	e002      	b.n	2000288a <GetSystemClock+0xc6>
20002884:	f04f 0300 	mov.w	r3, #0
20002888:	607b      	str	r3, [r7, #4]
2000288a:	687b      	ldr	r3, [r7, #4]
2000288c:	2b00      	cmp	r3, #0
2000288e:	d105      	bne.n	2000289c <GetSystemClock+0xd8>
20002890:	be00      	bkpt	0x0000
20002892:	f647 0340 	movw	r3, #30784	; 0x7840
20002896:	f2c0 137d 	movt	r3, #381	; 0x17d
2000289a:	607b      	str	r3, [r7, #4]
2000289c:	687b      	ldr	r3, [r7, #4]
2000289e:	4618      	mov	r0, r3
200028a0:	f107 072c 	add.w	r7, r7, #44	; 0x2c
200028a4:	46bd      	mov	sp, r7
200028a6:	bc80      	pop	{r7}
200028a8:	4770      	bx	lr
200028aa:	bf00      	nop

200028ac <ace_init_convert>:
200028ac:	b480      	push	{r7}
200028ae:	b087      	sub	sp, #28
200028b0:	af00      	add	r7, sp, #0
200028b2:	f240 0300 	movw	r3, #0
200028b6:	f2c4 0302 	movt	r3, #16386	; 0x4002
200028ba:	f8d3 30c8 	ldr.w	r3, [r3, #200]	; 0xc8
200028be:	60fb      	str	r3, [r7, #12]
200028c0:	f240 0300 	movw	r3, #0
200028c4:	f2c4 0302 	movt	r3, #16386	; 0x4002
200028c8:	f04f 0200 	mov.w	r2, #0
200028cc:	f8c3 20c8 	str.w	r2, [r3, #200]	; 0xc8
200028d0:	f04f 0300 	mov.w	r3, #0
200028d4:	71fb      	strb	r3, [r7, #7]
200028d6:	e039      	b.n	2000294c <ace_init_convert+0xa0>
200028d8:	79fb      	ldrb	r3, [r7, #7]
200028da:	ea4f 0353 	mov.w	r3, r3, lsr #1
200028de:	747b      	strb	r3, [r7, #17]
200028e0:	f240 0200 	movw	r2, #0
200028e4:	f2c4 0202 	movt	r2, #16386	; 0x4002
200028e8:	7c79      	ldrb	r1, [r7, #17]
200028ea:	460b      	mov	r3, r1
200028ec:	ea4f 0343 	mov.w	r3, r3, lsl #1
200028f0:	440b      	add	r3, r1
200028f2:	ea4f 1303 	mov.w	r3, r3, lsl #4
200028f6:	4413      	add	r3, r2
200028f8:	f503 7308 	add.w	r3, r3, #544	; 0x220
200028fc:	791b      	ldrb	r3, [r3, #4]
200028fe:	74bb      	strb	r3, [r7, #18]
20002900:	79fb      	ldrb	r3, [r7, #7]
20002902:	f003 0301 	and.w	r3, r3, #1
20002906:	74fb      	strb	r3, [r7, #19]
20002908:	7cfb      	ldrb	r3, [r7, #19]
2000290a:	2b00      	cmp	r3, #0
2000290c:	d00d      	beq.n	2000292a <ace_init_convert+0x7e>
2000290e:	79f9      	ldrb	r1, [r7, #7]
20002910:	7cbb      	ldrb	r3, [r7, #18]
20002912:	ea4f 1353 	mov.w	r3, r3, lsr #5
20002916:	b2db      	uxtb	r3, r3
20002918:	461a      	mov	r2, r3
2000291a:	f002 0203 	and.w	r2, r2, #3
2000291e:	f649 6300 	movw	r3, #40448	; 0x9e00
20002922:	f2c2 0300 	movt	r3, #8192	; 0x2000
20002926:	545a      	strb	r2, [r3, r1]
20002928:	e00c      	b.n	20002944 <ace_init_convert+0x98>
2000292a:	79f9      	ldrb	r1, [r7, #7]
2000292c:	7cbb      	ldrb	r3, [r7, #18]
2000292e:	ea4f 0353 	mov.w	r3, r3, lsr #1
20002932:	b2db      	uxtb	r3, r3
20002934:	461a      	mov	r2, r3
20002936:	f002 0203 	and.w	r2, r2, #3
2000293a:	f649 6300 	movw	r3, #40448	; 0x9e00
2000293e:	f2c2 0300 	movt	r3, #8192	; 0x2000
20002942:	545a      	strb	r2, [r3, r1]
20002944:	79fb      	ldrb	r3, [r7, #7]
20002946:	f103 0301 	add.w	r3, r3, #1
2000294a:	71fb      	strb	r3, [r7, #7]
2000294c:	79fb      	ldrb	r3, [r7, #7]
2000294e:	2b09      	cmp	r3, #9
20002950:	d9c2      	bls.n	200028d8 <ace_init_convert+0x2c>
20002952:	f04f 0300 	mov.w	r3, #0
20002956:	60bb      	str	r3, [r7, #8]
20002958:	e073      	b.n	20002a42 <ace_init_convert+0x196>
2000295a:	68ba      	ldr	r2, [r7, #8]
2000295c:	f649 03ac 	movw	r3, #39084	; 0x98ac
20002960:	f2c2 0300 	movt	r3, #8192	; 0x2000
20002964:	ea4f 1202 	mov.w	r2, r2, lsl #4
20002968:	4413      	add	r3, r2
2000296a:	791b      	ldrb	r3, [r3, #4]
2000296c:	75bb      	strb	r3, [r7, #22]
2000296e:	7dba      	ldrb	r2, [r7, #22]
20002970:	f249 53d4 	movw	r3, #38356	; 0x95d4
20002974:	f2c2 0300 	movt	r3, #8192	; 0x2000
20002978:	5c9b      	ldrb	r3, [r3, r2]
2000297a:	753b      	strb	r3, [r7, #20]
2000297c:	7dba      	ldrb	r2, [r7, #22]
2000297e:	f249 53a4 	movw	r3, #38308	; 0x95a4
20002982:	f2c2 0300 	movt	r3, #8192	; 0x2000
20002986:	5c9b      	ldrb	r3, [r3, r2]
20002988:	2b01      	cmp	r3, #1
2000298a:	d007      	beq.n	2000299c <ace_init_convert+0xf0>
2000298c:	2b02      	cmp	r3, #2
2000298e:	d027      	beq.n	200029e0 <ace_init_convert+0x134>
20002990:	2b00      	cmp	r3, #0
20002992:	d147      	bne.n	20002a24 <ace_init_convert+0x178>
20002994:	f04f 0300 	mov.w	r3, #0
20002998:	75fb      	strb	r3, [r7, #23]
2000299a:	e047      	b.n	20002a2c <ace_init_convert+0x180>
2000299c:	7d3b      	ldrb	r3, [r7, #20]
2000299e:	2bff      	cmp	r3, #255	; 0xff
200029a0:	d100      	bne.n	200029a4 <ace_init_convert+0xf8>
200029a2:	be00      	bkpt	0x0000
200029a4:	f240 0200 	movw	r2, #0
200029a8:	f2c4 0202 	movt	r2, #16386	; 0x4002
200029ac:	7d39      	ldrb	r1, [r7, #20]
200029ae:	460b      	mov	r3, r1
200029b0:	ea4f 0343 	mov.w	r3, r3, lsl #1
200029b4:	440b      	add	r3, r1
200029b6:	ea4f 1303 	mov.w	r3, r3, lsl #4
200029ba:	4413      	add	r3, r2
200029bc:	f503 7308 	add.w	r3, r3, #544	; 0x220
200029c0:	7a1b      	ldrb	r3, [r3, #8]
200029c2:	757b      	strb	r3, [r7, #21]
200029c4:	7d7b      	ldrb	r3, [r7, #21]
200029c6:	f003 0301 	and.w	r3, r3, #1
200029ca:	b2db      	uxtb	r3, r3
200029cc:	2b00      	cmp	r3, #0
200029ce:	d003      	beq.n	200029d8 <ace_init_convert+0x12c>
200029d0:	f04f 0300 	mov.w	r3, #0
200029d4:	75fb      	strb	r3, [r7, #23]
200029d6:	e029      	b.n	20002a2c <ace_init_convert+0x180>
200029d8:	f04f 0301 	mov.w	r3, #1
200029dc:	75fb      	strb	r3, [r7, #23]
200029de:	e025      	b.n	20002a2c <ace_init_convert+0x180>
200029e0:	7d3b      	ldrb	r3, [r7, #20]
200029e2:	2bff      	cmp	r3, #255	; 0xff
200029e4:	d100      	bne.n	200029e8 <ace_init_convert+0x13c>
200029e6:	be00      	bkpt	0x0000
200029e8:	f240 0200 	movw	r2, #0
200029ec:	f2c4 0202 	movt	r2, #16386	; 0x4002
200029f0:	7d39      	ldrb	r1, [r7, #20]
200029f2:	460b      	mov	r3, r1
200029f4:	ea4f 0343 	mov.w	r3, r3, lsl #1
200029f8:	440b      	add	r3, r1
200029fa:	ea4f 1303 	mov.w	r3, r3, lsl #4
200029fe:	4413      	add	r3, r2
20002a00:	f503 730a 	add.w	r3, r3, #552	; 0x228
20002a04:	791b      	ldrb	r3, [r3, #4]
20002a06:	757b      	strb	r3, [r7, #21]
20002a08:	7d7b      	ldrb	r3, [r7, #21]
20002a0a:	f003 0301 	and.w	r3, r3, #1
20002a0e:	b2db      	uxtb	r3, r3
20002a10:	2b00      	cmp	r3, #0
20002a12:	d003      	beq.n	20002a1c <ace_init_convert+0x170>
20002a14:	f04f 0300 	mov.w	r3, #0
20002a18:	75fb      	strb	r3, [r7, #23]
20002a1a:	e007      	b.n	20002a2c <ace_init_convert+0x180>
20002a1c:	f04f 0302 	mov.w	r3, #2
20002a20:	75fb      	strb	r3, [r7, #23]
20002a22:	e003      	b.n	20002a2c <ace_init_convert+0x180>
20002a24:	be00      	bkpt	0x0000
20002a26:	f04f 0300 	mov.w	r3, #0
20002a2a:	75fb      	strb	r3, [r7, #23]
20002a2c:	68ba      	ldr	r2, [r7, #8]
20002a2e:	f649 630c 	movw	r3, #40460	; 0x9e0c
20002a32:	f2c2 0300 	movt	r3, #8192	; 0x2000
20002a36:	7df9      	ldrb	r1, [r7, #23]
20002a38:	5499      	strb	r1, [r3, r2]
20002a3a:	68bb      	ldr	r3, [r7, #8]
20002a3c:	f103 0301 	add.w	r3, r3, #1
20002a40:	60bb      	str	r3, [r7, #8]
20002a42:	68bb      	ldr	r3, [r7, #8]
20002a44:	2b03      	cmp	r3, #3
20002a46:	dd88      	ble.n	2000295a <ace_init_convert+0xae>
20002a48:	f240 0300 	movw	r3, #0
20002a4c:	f2c4 0302 	movt	r3, #16386	; 0x4002
20002a50:	68fa      	ldr	r2, [r7, #12]
20002a52:	f8c3 20c8 	str.w	r2, [r3, #200]	; 0xc8
20002a56:	f107 071c 	add.w	r7, r7, #28
20002a5a:	46bd      	mov	sp, r7
20002a5c:	bc80      	pop	{r7}
20002a5e:	4770      	bx	lr

20002a60 <NVIC_ClearPendingIRQ>:
20002a60:	b480      	push	{r7}
20002a62:	b083      	sub	sp, #12
20002a64:	af00      	add	r7, sp, #0
20002a66:	4603      	mov	r3, r0
20002a68:	80fb      	strh	r3, [r7, #6]
20002a6a:	f24e 1300 	movw	r3, #57600	; 0xe100
20002a6e:	f2ce 0300 	movt	r3, #57344	; 0xe000
20002a72:	f9b7 2006 	ldrsh.w	r2, [r7, #6]
20002a76:	ea4f 1252 	mov.w	r2, r2, lsr #5
20002a7a:	88f9      	ldrh	r1, [r7, #6]
20002a7c:	f001 011f 	and.w	r1, r1, #31
20002a80:	f04f 0001 	mov.w	r0, #1
20002a84:	fa00 f101 	lsl.w	r1, r0, r1
20002a88:	f102 0260 	add.w	r2, r2, #96	; 0x60
20002a8c:	f843 1022 	str.w	r1, [r3, r2, lsl #2]
20002a90:	f107 070c 	add.w	r7, r7, #12
20002a94:	46bd      	mov	sp, r7
20002a96:	bc80      	pop	{r7}
20002a98:	4770      	bx	lr
20002a9a:	bf00      	nop

20002a9c <ace_init_flags>:
20002a9c:	b480      	push	{r7}
20002a9e:	af00      	add	r7, sp, #0
20002aa0:	46bd      	mov	sp, r7
20002aa2:	bc80      	pop	{r7}
20002aa4:	4770      	bx	lr
20002aa6:	bf00      	nop

20002aa8 <process_flag_irq>:
20002aa8:	b480      	push	{r7}
20002aaa:	b083      	sub	sp, #12
20002aac:	af00      	add	r7, sp, #0
20002aae:	4603      	mov	r3, r0
20002ab0:	71fb      	strb	r3, [r7, #7]
20002ab2:	f107 070c 	add.w	r7, r7, #12
20002ab6:	46bd      	mov	sp, r7
20002ab8:	bc80      	pop	{r7}
20002aba:	4770      	bx	lr

20002abc <ACE_PPE_Flag0_IRQHandler>:
20002abc:	4668      	mov	r0, sp
20002abe:	f020 0107 	bic.w	r1, r0, #7
20002ac2:	468d      	mov	sp, r1
20002ac4:	b589      	push	{r0, r3, r7, lr}
20002ac6:	af00      	add	r7, sp, #0
20002ac8:	f04f 0000 	mov.w	r0, #0
20002acc:	f7ff ffec 	bl	20002aa8 <process_flag_irq>
20002ad0:	f04f 0076 	mov.w	r0, #118	; 0x76
20002ad4:	f7ff ffc4 	bl	20002a60 <NVIC_ClearPendingIRQ>
20002ad8:	46bd      	mov	sp, r7
20002ada:	e8bd 4089 	ldmia.w	sp!, {r0, r3, r7, lr}
20002ade:	4685      	mov	sp, r0
20002ae0:	4770      	bx	lr
20002ae2:	bf00      	nop

20002ae4 <ACE_PPE_Flag1_IRQHandler>:
20002ae4:	4668      	mov	r0, sp
20002ae6:	f020 0107 	bic.w	r1, r0, #7
20002aea:	468d      	mov	sp, r1
20002aec:	b589      	push	{r0, r3, r7, lr}
20002aee:	af00      	add	r7, sp, #0
20002af0:	f04f 0001 	mov.w	r0, #1
20002af4:	f7ff ffd8 	bl	20002aa8 <process_flag_irq>
20002af8:	f04f 0077 	mov.w	r0, #119	; 0x77
20002afc:	f7ff ffb0 	bl	20002a60 <NVIC_ClearPendingIRQ>
20002b00:	46bd      	mov	sp, r7
20002b02:	e8bd 4089 	ldmia.w	sp!, {r0, r3, r7, lr}
20002b06:	4685      	mov	sp, r0
20002b08:	4770      	bx	lr
20002b0a:	bf00      	nop

20002b0c <ACE_PPE_Flag2_IRQHandler>:
20002b0c:	4668      	mov	r0, sp
20002b0e:	f020 0107 	bic.w	r1, r0, #7
20002b12:	468d      	mov	sp, r1
20002b14:	b589      	push	{r0, r3, r7, lr}
20002b16:	af00      	add	r7, sp, #0
20002b18:	f04f 0002 	mov.w	r0, #2
20002b1c:	f7ff ffc4 	bl	20002aa8 <process_flag_irq>
20002b20:	f04f 0078 	mov.w	r0, #120	; 0x78
20002b24:	f7ff ff9c 	bl	20002a60 <NVIC_ClearPendingIRQ>
20002b28:	46bd      	mov	sp, r7
20002b2a:	e8bd 4089 	ldmia.w	sp!, {r0, r3, r7, lr}
20002b2e:	4685      	mov	sp, r0
20002b30:	4770      	bx	lr
20002b32:	bf00      	nop

20002b34 <ACE_PPE_Flag3_IRQHandler>:
20002b34:	4668      	mov	r0, sp
20002b36:	f020 0107 	bic.w	r1, r0, #7
20002b3a:	468d      	mov	sp, r1
20002b3c:	b589      	push	{r0, r3, r7, lr}
20002b3e:	af00      	add	r7, sp, #0
20002b40:	f04f 0003 	mov.w	r0, #3
20002b44:	f7ff ffb0 	bl	20002aa8 <process_flag_irq>
20002b48:	f04f 0079 	mov.w	r0, #121	; 0x79
20002b4c:	f7ff ff88 	bl	20002a60 <NVIC_ClearPendingIRQ>
20002b50:	46bd      	mov	sp, r7
20002b52:	e8bd 4089 	ldmia.w	sp!, {r0, r3, r7, lr}
20002b56:	4685      	mov	sp, r0
20002b58:	4770      	bx	lr
20002b5a:	bf00      	nop

20002b5c <ACE_PPE_Flag4_IRQHandler>:
20002b5c:	4668      	mov	r0, sp
20002b5e:	f020 0107 	bic.w	r1, r0, #7
20002b62:	468d      	mov	sp, r1
20002b64:	b589      	push	{r0, r3, r7, lr}
20002b66:	af00      	add	r7, sp, #0
20002b68:	f04f 0004 	mov.w	r0, #4
20002b6c:	f7ff ff9c 	bl	20002aa8 <process_flag_irq>
20002b70:	f04f 007a 	mov.w	r0, #122	; 0x7a
20002b74:	f7ff ff74 	bl	20002a60 <NVIC_ClearPendingIRQ>
20002b78:	46bd      	mov	sp, r7
20002b7a:	e8bd 4089 	ldmia.w	sp!, {r0, r3, r7, lr}
20002b7e:	4685      	mov	sp, r0
20002b80:	4770      	bx	lr
20002b82:	bf00      	nop

20002b84 <ACE_PPE_Flag5_IRQHandler>:
20002b84:	4668      	mov	r0, sp
20002b86:	f020 0107 	bic.w	r1, r0, #7
20002b8a:	468d      	mov	sp, r1
20002b8c:	b589      	push	{r0, r3, r7, lr}
20002b8e:	af00      	add	r7, sp, #0
20002b90:	f04f 0005 	mov.w	r0, #5
20002b94:	f7ff ff88 	bl	20002aa8 <process_flag_irq>
20002b98:	f04f 007b 	mov.w	r0, #123	; 0x7b
20002b9c:	f7ff ff60 	bl	20002a60 <NVIC_ClearPendingIRQ>
20002ba0:	46bd      	mov	sp, r7
20002ba2:	e8bd 4089 	ldmia.w	sp!, {r0, r3, r7, lr}
20002ba6:	4685      	mov	sp, r0
20002ba8:	4770      	bx	lr
20002baa:	bf00      	nop

20002bac <ACE_PPE_Flag6_IRQHandler>:
20002bac:	4668      	mov	r0, sp
20002bae:	f020 0107 	bic.w	r1, r0, #7
20002bb2:	468d      	mov	sp, r1
20002bb4:	b589      	push	{r0, r3, r7, lr}
20002bb6:	af00      	add	r7, sp, #0
20002bb8:	f04f 0006 	mov.w	r0, #6
20002bbc:	f7ff ff74 	bl	20002aa8 <process_flag_irq>
20002bc0:	f04f 007c 	mov.w	r0, #124	; 0x7c
20002bc4:	f7ff ff4c 	bl	20002a60 <NVIC_ClearPendingIRQ>
20002bc8:	46bd      	mov	sp, r7
20002bca:	e8bd 4089 	ldmia.w	sp!, {r0, r3, r7, lr}
20002bce:	4685      	mov	sp, r0
20002bd0:	4770      	bx	lr
20002bd2:	bf00      	nop

20002bd4 <ACE_PPE_Flag7_IRQHandler>:
20002bd4:	4668      	mov	r0, sp
20002bd6:	f020 0107 	bic.w	r1, r0, #7
20002bda:	468d      	mov	sp, r1
20002bdc:	b589      	push	{r0, r3, r7, lr}
20002bde:	af00      	add	r7, sp, #0
20002be0:	f04f 0007 	mov.w	r0, #7
20002be4:	f7ff ff60 	bl	20002aa8 <process_flag_irq>
20002be8:	f04f 007d 	mov.w	r0, #125	; 0x7d
20002bec:	f7ff ff38 	bl	20002a60 <NVIC_ClearPendingIRQ>
20002bf0:	46bd      	mov	sp, r7
20002bf2:	e8bd 4089 	ldmia.w	sp!, {r0, r3, r7, lr}
20002bf6:	4685      	mov	sp, r0
20002bf8:	4770      	bx	lr
20002bfa:	bf00      	nop

20002bfc <ACE_PPE_Flag8_IRQHandler>:
20002bfc:	4668      	mov	r0, sp
20002bfe:	f020 0107 	bic.w	r1, r0, #7
20002c02:	468d      	mov	sp, r1
20002c04:	b589      	push	{r0, r3, r7, lr}
20002c06:	af00      	add	r7, sp, #0
20002c08:	f04f 0008 	mov.w	r0, #8
20002c0c:	f7ff ff4c 	bl	20002aa8 <process_flag_irq>
20002c10:	f04f 007e 	mov.w	r0, #126	; 0x7e
20002c14:	f7ff ff24 	bl	20002a60 <NVIC_ClearPendingIRQ>
20002c18:	46bd      	mov	sp, r7
20002c1a:	e8bd 4089 	ldmia.w	sp!, {r0, r3, r7, lr}
20002c1e:	4685      	mov	sp, r0
20002c20:	4770      	bx	lr
20002c22:	bf00      	nop

20002c24 <ACE_PPE_Flag9_IRQHandler>:
20002c24:	4668      	mov	r0, sp
20002c26:	f020 0107 	bic.w	r1, r0, #7
20002c2a:	468d      	mov	sp, r1
20002c2c:	b589      	push	{r0, r3, r7, lr}
20002c2e:	af00      	add	r7, sp, #0
20002c30:	f04f 0009 	mov.w	r0, #9
20002c34:	f7ff ff38 	bl	20002aa8 <process_flag_irq>
20002c38:	f04f 007f 	mov.w	r0, #127	; 0x7f
20002c3c:	f7ff ff10 	bl	20002a60 <NVIC_ClearPendingIRQ>
20002c40:	46bd      	mov	sp, r7
20002c42:	e8bd 4089 	ldmia.w	sp!, {r0, r3, r7, lr}
20002c46:	4685      	mov	sp, r0
20002c48:	4770      	bx	lr
20002c4a:	bf00      	nop

20002c4c <ACE_PPE_Flag10_IRQHandler>:
20002c4c:	4668      	mov	r0, sp
20002c4e:	f020 0107 	bic.w	r1, r0, #7
20002c52:	468d      	mov	sp, r1
20002c54:	b589      	push	{r0, r3, r7, lr}
20002c56:	af00      	add	r7, sp, #0
20002c58:	f04f 000a 	mov.w	r0, #10
20002c5c:	f7ff ff24 	bl	20002aa8 <process_flag_irq>
20002c60:	f04f 0080 	mov.w	r0, #128	; 0x80
20002c64:	f7ff fefc 	bl	20002a60 <NVIC_ClearPendingIRQ>
20002c68:	46bd      	mov	sp, r7
20002c6a:	e8bd 4089 	ldmia.w	sp!, {r0, r3, r7, lr}
20002c6e:	4685      	mov	sp, r0
20002c70:	4770      	bx	lr
20002c72:	bf00      	nop

20002c74 <ACE_PPE_Flag11_IRQHandler>:
20002c74:	4668      	mov	r0, sp
20002c76:	f020 0107 	bic.w	r1, r0, #7
20002c7a:	468d      	mov	sp, r1
20002c7c:	b589      	push	{r0, r3, r7, lr}
20002c7e:	af00      	add	r7, sp, #0
20002c80:	f04f 000b 	mov.w	r0, #11
20002c84:	f7ff ff10 	bl	20002aa8 <process_flag_irq>
20002c88:	f04f 0081 	mov.w	r0, #129	; 0x81
20002c8c:	f7ff fee8 	bl	20002a60 <NVIC_ClearPendingIRQ>
20002c90:	46bd      	mov	sp, r7
20002c92:	e8bd 4089 	ldmia.w	sp!, {r0, r3, r7, lr}
20002c96:	4685      	mov	sp, r0
20002c98:	4770      	bx	lr
20002c9a:	bf00      	nop

20002c9c <ACE_PPE_Flag12_IRQHandler>:
20002c9c:	4668      	mov	r0, sp
20002c9e:	f020 0107 	bic.w	r1, r0, #7
20002ca2:	468d      	mov	sp, r1
20002ca4:	b589      	push	{r0, r3, r7, lr}
20002ca6:	af00      	add	r7, sp, #0
20002ca8:	f04f 000c 	mov.w	r0, #12
20002cac:	f7ff fefc 	bl	20002aa8 <process_flag_irq>
20002cb0:	f04f 0082 	mov.w	r0, #130	; 0x82
20002cb4:	f7ff fed4 	bl	20002a60 <NVIC_ClearPendingIRQ>
20002cb8:	46bd      	mov	sp, r7
20002cba:	e8bd 4089 	ldmia.w	sp!, {r0, r3, r7, lr}
20002cbe:	4685      	mov	sp, r0
20002cc0:	4770      	bx	lr
20002cc2:	bf00      	nop

20002cc4 <ACE_PPE_Flag13_IRQHandler>:
20002cc4:	4668      	mov	r0, sp
20002cc6:	f020 0107 	bic.w	r1, r0, #7
20002cca:	468d      	mov	sp, r1
20002ccc:	b589      	push	{r0, r3, r7, lr}
20002cce:	af00      	add	r7, sp, #0
20002cd0:	f04f 000d 	mov.w	r0, #13
20002cd4:	f7ff fee8 	bl	20002aa8 <process_flag_irq>
20002cd8:	f04f 0083 	mov.w	r0, #131	; 0x83
20002cdc:	f7ff fec0 	bl	20002a60 <NVIC_ClearPendingIRQ>
20002ce0:	46bd      	mov	sp, r7
20002ce2:	e8bd 4089 	ldmia.w	sp!, {r0, r3, r7, lr}
20002ce6:	4685      	mov	sp, r0
20002ce8:	4770      	bx	lr
20002cea:	bf00      	nop

20002cec <ACE_PPE_Flag14_IRQHandler>:
20002cec:	4668      	mov	r0, sp
20002cee:	f020 0107 	bic.w	r1, r0, #7
20002cf2:	468d      	mov	sp, r1
20002cf4:	b589      	push	{r0, r3, r7, lr}
20002cf6:	af00      	add	r7, sp, #0
20002cf8:	f04f 000e 	mov.w	r0, #14
20002cfc:	f7ff fed4 	bl	20002aa8 <process_flag_irq>
20002d00:	f04f 0084 	mov.w	r0, #132	; 0x84
20002d04:	f7ff feac 	bl	20002a60 <NVIC_ClearPendingIRQ>
20002d08:	46bd      	mov	sp, r7
20002d0a:	e8bd 4089 	ldmia.w	sp!, {r0, r3, r7, lr}
20002d0e:	4685      	mov	sp, r0
20002d10:	4770      	bx	lr
20002d12:	bf00      	nop

20002d14 <ACE_PPE_Flag15_IRQHandler>:
20002d14:	4668      	mov	r0, sp
20002d16:	f020 0107 	bic.w	r1, r0, #7
20002d1a:	468d      	mov	sp, r1
20002d1c:	b589      	push	{r0, r3, r7, lr}
20002d1e:	af00      	add	r7, sp, #0
20002d20:	f04f 000f 	mov.w	r0, #15
20002d24:	f7ff fec0 	bl	20002aa8 <process_flag_irq>
20002d28:	f04f 0085 	mov.w	r0, #133	; 0x85
20002d2c:	f7ff fe98 	bl	20002a60 <NVIC_ClearPendingIRQ>
20002d30:	46bd      	mov	sp, r7
20002d32:	e8bd 4089 	ldmia.w	sp!, {r0, r3, r7, lr}
20002d36:	4685      	mov	sp, r0
20002d38:	4770      	bx	lr
20002d3a:	bf00      	nop

20002d3c <ACE_PPE_Flag16_IRQHandler>:
20002d3c:	4668      	mov	r0, sp
20002d3e:	f020 0107 	bic.w	r1, r0, #7
20002d42:	468d      	mov	sp, r1
20002d44:	b589      	push	{r0, r3, r7, lr}
20002d46:	af00      	add	r7, sp, #0
20002d48:	f04f 0010 	mov.w	r0, #16
20002d4c:	f7ff feac 	bl	20002aa8 <process_flag_irq>
20002d50:	f04f 0086 	mov.w	r0, #134	; 0x86
20002d54:	f7ff fe84 	bl	20002a60 <NVIC_ClearPendingIRQ>
20002d58:	46bd      	mov	sp, r7
20002d5a:	e8bd 4089 	ldmia.w	sp!, {r0, r3, r7, lr}
20002d5e:	4685      	mov	sp, r0
20002d60:	4770      	bx	lr
20002d62:	bf00      	nop

20002d64 <ACE_PPE_Flag17_IRQHandler>:
20002d64:	4668      	mov	r0, sp
20002d66:	f020 0107 	bic.w	r1, r0, #7
20002d6a:	468d      	mov	sp, r1
20002d6c:	b589      	push	{r0, r3, r7, lr}
20002d6e:	af00      	add	r7, sp, #0
20002d70:	f04f 0011 	mov.w	r0, #17
20002d74:	f7ff fe98 	bl	20002aa8 <process_flag_irq>
20002d78:	f04f 0087 	mov.w	r0, #135	; 0x87
20002d7c:	f7ff fe70 	bl	20002a60 <NVIC_ClearPendingIRQ>
20002d80:	46bd      	mov	sp, r7
20002d82:	e8bd 4089 	ldmia.w	sp!, {r0, r3, r7, lr}
20002d86:	4685      	mov	sp, r0
20002d88:	4770      	bx	lr
20002d8a:	bf00      	nop

20002d8c <ACE_PPE_Flag18_IRQHandler>:
20002d8c:	4668      	mov	r0, sp
20002d8e:	f020 0107 	bic.w	r1, r0, #7
20002d92:	468d      	mov	sp, r1
20002d94:	b589      	push	{r0, r3, r7, lr}
20002d96:	af00      	add	r7, sp, #0
20002d98:	f04f 0012 	mov.w	r0, #18
20002d9c:	f7ff fe84 	bl	20002aa8 <process_flag_irq>
20002da0:	f04f 0088 	mov.w	r0, #136	; 0x88
20002da4:	f7ff fe5c 	bl	20002a60 <NVIC_ClearPendingIRQ>
20002da8:	46bd      	mov	sp, r7
20002daa:	e8bd 4089 	ldmia.w	sp!, {r0, r3, r7, lr}
20002dae:	4685      	mov	sp, r0
20002db0:	4770      	bx	lr
20002db2:	bf00      	nop

20002db4 <ACE_PPE_Flag19_IRQHandler>:
20002db4:	4668      	mov	r0, sp
20002db6:	f020 0107 	bic.w	r1, r0, #7
20002dba:	468d      	mov	sp, r1
20002dbc:	b589      	push	{r0, r3, r7, lr}
20002dbe:	af00      	add	r7, sp, #0
20002dc0:	f04f 0013 	mov.w	r0, #19
20002dc4:	f7ff fe70 	bl	20002aa8 <process_flag_irq>
20002dc8:	f04f 0089 	mov.w	r0, #137	; 0x89
20002dcc:	f7ff fe48 	bl	20002a60 <NVIC_ClearPendingIRQ>
20002dd0:	46bd      	mov	sp, r7
20002dd2:	e8bd 4089 	ldmia.w	sp!, {r0, r3, r7, lr}
20002dd6:	4685      	mov	sp, r0
20002dd8:	4770      	bx	lr
20002dda:	bf00      	nop

20002ddc <ACE_PPE_Flag20_IRQHandler>:
20002ddc:	4668      	mov	r0, sp
20002dde:	f020 0107 	bic.w	r1, r0, #7
20002de2:	468d      	mov	sp, r1
20002de4:	b589      	push	{r0, r3, r7, lr}
20002de6:	af00      	add	r7, sp, #0
20002de8:	f04f 0014 	mov.w	r0, #20
20002dec:	f7ff fe5c 	bl	20002aa8 <process_flag_irq>
20002df0:	f04f 008a 	mov.w	r0, #138	; 0x8a
20002df4:	f7ff fe34 	bl	20002a60 <NVIC_ClearPendingIRQ>
20002df8:	46bd      	mov	sp, r7
20002dfa:	e8bd 4089 	ldmia.w	sp!, {r0, r3, r7, lr}
20002dfe:	4685      	mov	sp, r0
20002e00:	4770      	bx	lr
20002e02:	bf00      	nop

20002e04 <ACE_PPE_Flag21_IRQHandler>:
20002e04:	4668      	mov	r0, sp
20002e06:	f020 0107 	bic.w	r1, r0, #7
20002e0a:	468d      	mov	sp, r1
20002e0c:	b589      	push	{r0, r3, r7, lr}
20002e0e:	af00      	add	r7, sp, #0
20002e10:	f04f 0015 	mov.w	r0, #21
20002e14:	f7ff fe48 	bl	20002aa8 <process_flag_irq>
20002e18:	f04f 008b 	mov.w	r0, #139	; 0x8b
20002e1c:	f7ff fe20 	bl	20002a60 <NVIC_ClearPendingIRQ>
20002e20:	46bd      	mov	sp, r7
20002e22:	e8bd 4089 	ldmia.w	sp!, {r0, r3, r7, lr}
20002e26:	4685      	mov	sp, r0
20002e28:	4770      	bx	lr
20002e2a:	bf00      	nop

20002e2c <ACE_PPE_Flag22_IRQHandler>:
20002e2c:	4668      	mov	r0, sp
20002e2e:	f020 0107 	bic.w	r1, r0, #7
20002e32:	468d      	mov	sp, r1
20002e34:	b589      	push	{r0, r3, r7, lr}
20002e36:	af00      	add	r7, sp, #0
20002e38:	f04f 0016 	mov.w	r0, #22
20002e3c:	f7ff fe34 	bl	20002aa8 <process_flag_irq>
20002e40:	f04f 008c 	mov.w	r0, #140	; 0x8c
20002e44:	f7ff fe0c 	bl	20002a60 <NVIC_ClearPendingIRQ>
20002e48:	46bd      	mov	sp, r7
20002e4a:	e8bd 4089 	ldmia.w	sp!, {r0, r3, r7, lr}
20002e4e:	4685      	mov	sp, r0
20002e50:	4770      	bx	lr
20002e52:	bf00      	nop

20002e54 <ACE_PPE_Flag23_IRQHandler>:
20002e54:	4668      	mov	r0, sp
20002e56:	f020 0107 	bic.w	r1, r0, #7
20002e5a:	468d      	mov	sp, r1
20002e5c:	b589      	push	{r0, r3, r7, lr}
20002e5e:	af00      	add	r7, sp, #0
20002e60:	f04f 0017 	mov.w	r0, #23
20002e64:	f7ff fe20 	bl	20002aa8 <process_flag_irq>
20002e68:	f04f 008d 	mov.w	r0, #141	; 0x8d
20002e6c:	f7ff fdf8 	bl	20002a60 <NVIC_ClearPendingIRQ>
20002e70:	46bd      	mov	sp, r7
20002e72:	e8bd 4089 	ldmia.w	sp!, {r0, r3, r7, lr}
20002e76:	4685      	mov	sp, r0
20002e78:	4770      	bx	lr
20002e7a:	bf00      	nop

20002e7c <ACE_PPE_Flag24_IRQHandler>:
20002e7c:	4668      	mov	r0, sp
20002e7e:	f020 0107 	bic.w	r1, r0, #7
20002e82:	468d      	mov	sp, r1
20002e84:	b589      	push	{r0, r3, r7, lr}
20002e86:	af00      	add	r7, sp, #0
20002e88:	f04f 0018 	mov.w	r0, #24
20002e8c:	f7ff fe0c 	bl	20002aa8 <process_flag_irq>
20002e90:	f04f 008e 	mov.w	r0, #142	; 0x8e
20002e94:	f7ff fde4 	bl	20002a60 <NVIC_ClearPendingIRQ>
20002e98:	46bd      	mov	sp, r7
20002e9a:	e8bd 4089 	ldmia.w	sp!, {r0, r3, r7, lr}
20002e9e:	4685      	mov	sp, r0
20002ea0:	4770      	bx	lr
20002ea2:	bf00      	nop

20002ea4 <ACE_PPE_Flag25_IRQHandler>:
20002ea4:	4668      	mov	r0, sp
20002ea6:	f020 0107 	bic.w	r1, r0, #7
20002eaa:	468d      	mov	sp, r1
20002eac:	b589      	push	{r0, r3, r7, lr}
20002eae:	af00      	add	r7, sp, #0
20002eb0:	f04f 0019 	mov.w	r0, #25
20002eb4:	f7ff fdf8 	bl	20002aa8 <process_flag_irq>
20002eb8:	f04f 008f 	mov.w	r0, #143	; 0x8f
20002ebc:	f7ff fdd0 	bl	20002a60 <NVIC_ClearPendingIRQ>
20002ec0:	46bd      	mov	sp, r7
20002ec2:	e8bd 4089 	ldmia.w	sp!, {r0, r3, r7, lr}
20002ec6:	4685      	mov	sp, r0
20002ec8:	4770      	bx	lr
20002eca:	bf00      	nop

20002ecc <ACE_PPE_Flag26_IRQHandler>:
20002ecc:	4668      	mov	r0, sp
20002ece:	f020 0107 	bic.w	r1, r0, #7
20002ed2:	468d      	mov	sp, r1
20002ed4:	b589      	push	{r0, r3, r7, lr}
20002ed6:	af00      	add	r7, sp, #0
20002ed8:	f04f 001a 	mov.w	r0, #26
20002edc:	f7ff fde4 	bl	20002aa8 <process_flag_irq>
20002ee0:	f04f 0090 	mov.w	r0, #144	; 0x90
20002ee4:	f7ff fdbc 	bl	20002a60 <NVIC_ClearPendingIRQ>
20002ee8:	46bd      	mov	sp, r7
20002eea:	e8bd 4089 	ldmia.w	sp!, {r0, r3, r7, lr}
20002eee:	4685      	mov	sp, r0
20002ef0:	4770      	bx	lr
20002ef2:	bf00      	nop

20002ef4 <ACE_PPE_Flag27_IRQHandler>:
20002ef4:	4668      	mov	r0, sp
20002ef6:	f020 0107 	bic.w	r1, r0, #7
20002efa:	468d      	mov	sp, r1
20002efc:	b589      	push	{r0, r3, r7, lr}
20002efe:	af00      	add	r7, sp, #0
20002f00:	f04f 001b 	mov.w	r0, #27
20002f04:	f7ff fdd0 	bl	20002aa8 <process_flag_irq>
20002f08:	f04f 0091 	mov.w	r0, #145	; 0x91
20002f0c:	f7ff fda8 	bl	20002a60 <NVIC_ClearPendingIRQ>
20002f10:	46bd      	mov	sp, r7
20002f12:	e8bd 4089 	ldmia.w	sp!, {r0, r3, r7, lr}
20002f16:	4685      	mov	sp, r0
20002f18:	4770      	bx	lr
20002f1a:	bf00      	nop

20002f1c <ACE_PPE_Flag28_IRQHandler>:
20002f1c:	4668      	mov	r0, sp
20002f1e:	f020 0107 	bic.w	r1, r0, #7
20002f22:	468d      	mov	sp, r1
20002f24:	b589      	push	{r0, r3, r7, lr}
20002f26:	af00      	add	r7, sp, #0
20002f28:	f04f 001c 	mov.w	r0, #28
20002f2c:	f7ff fdbc 	bl	20002aa8 <process_flag_irq>
20002f30:	f04f 0092 	mov.w	r0, #146	; 0x92
20002f34:	f7ff fd94 	bl	20002a60 <NVIC_ClearPendingIRQ>
20002f38:	46bd      	mov	sp, r7
20002f3a:	e8bd 4089 	ldmia.w	sp!, {r0, r3, r7, lr}
20002f3e:	4685      	mov	sp, r0
20002f40:	4770      	bx	lr
20002f42:	bf00      	nop

20002f44 <ACE_PPE_Flag29_IRQHandler>:
20002f44:	4668      	mov	r0, sp
20002f46:	f020 0107 	bic.w	r1, r0, #7
20002f4a:	468d      	mov	sp, r1
20002f4c:	b589      	push	{r0, r3, r7, lr}
20002f4e:	af00      	add	r7, sp, #0
20002f50:	f04f 001d 	mov.w	r0, #29
20002f54:	f7ff fda8 	bl	20002aa8 <process_flag_irq>
20002f58:	f04f 0093 	mov.w	r0, #147	; 0x93
20002f5c:	f7ff fd80 	bl	20002a60 <NVIC_ClearPendingIRQ>
20002f60:	46bd      	mov	sp, r7
20002f62:	e8bd 4089 	ldmia.w	sp!, {r0, r3, r7, lr}
20002f66:	4685      	mov	sp, r0
20002f68:	4770      	bx	lr
20002f6a:	bf00      	nop

20002f6c <ACE_PPE_Flag30_IRQHandler>:
20002f6c:	4668      	mov	r0, sp
20002f6e:	f020 0107 	bic.w	r1, r0, #7
20002f72:	468d      	mov	sp, r1
20002f74:	b589      	push	{r0, r3, r7, lr}
20002f76:	af00      	add	r7, sp, #0
20002f78:	f04f 001e 	mov.w	r0, #30
20002f7c:	f7ff fd94 	bl	20002aa8 <process_flag_irq>
20002f80:	f04f 0094 	mov.w	r0, #148	; 0x94
20002f84:	f7ff fd6c 	bl	20002a60 <NVIC_ClearPendingIRQ>
20002f88:	46bd      	mov	sp, r7
20002f8a:	e8bd 4089 	ldmia.w	sp!, {r0, r3, r7, lr}
20002f8e:	4685      	mov	sp, r0
20002f90:	4770      	bx	lr
20002f92:	bf00      	nop

20002f94 <ACE_PPE_Flag31_IRQHandler>:
20002f94:	4668      	mov	r0, sp
20002f96:	f020 0107 	bic.w	r1, r0, #7
20002f9a:	468d      	mov	sp, r1
20002f9c:	b589      	push	{r0, r3, r7, lr}
20002f9e:	af00      	add	r7, sp, #0
20002fa0:	f04f 001f 	mov.w	r0, #31
20002fa4:	f7ff fd80 	bl	20002aa8 <process_flag_irq>
20002fa8:	f04f 0095 	mov.w	r0, #149	; 0x95
20002fac:	f7ff fd58 	bl	20002a60 <NVIC_ClearPendingIRQ>
20002fb0:	46bd      	mov	sp, r7
20002fb2:	e8bd 4089 	ldmia.w	sp!, {r0, r3, r7, lr}
20002fb6:	4685      	mov	sp, r0
20002fb8:	4770      	bx	lr
20002fba:	bf00      	nop

20002fbc <__libc_init_array>:
20002fbc:	b570      	push	{r4, r5, r6, lr}
20002fbe:	f649 0668 	movw	r6, #39016	; 0x9868
20002fc2:	f649 0568 	movw	r5, #39016	; 0x9868
20002fc6:	f2c2 0600 	movt	r6, #8192	; 0x2000
20002fca:	f2c2 0500 	movt	r5, #8192	; 0x2000
20002fce:	1b76      	subs	r6, r6, r5
20002fd0:	10b6      	asrs	r6, r6, #2
20002fd2:	d006      	beq.n	20002fe2 <__libc_init_array+0x26>
20002fd4:	2400      	movs	r4, #0
20002fd6:	f855 3024 	ldr.w	r3, [r5, r4, lsl #2]
20002fda:	3401      	adds	r4, #1
20002fdc:	4798      	blx	r3
20002fde:	42a6      	cmp	r6, r4
20002fe0:	d8f9      	bhi.n	20002fd6 <__libc_init_array+0x1a>
20002fe2:	f649 0568 	movw	r5, #39016	; 0x9868
20002fe6:	f649 066c 	movw	r6, #39020	; 0x986c
20002fea:	f2c2 0500 	movt	r5, #8192	; 0x2000
20002fee:	f2c2 0600 	movt	r6, #8192	; 0x2000
20002ff2:	1b76      	subs	r6, r6, r5
20002ff4:	f006 fc2c 	bl	20009850 <_init>
20002ff8:	10b6      	asrs	r6, r6, #2
20002ffa:	d006      	beq.n	2000300a <__libc_init_array+0x4e>
20002ffc:	2400      	movs	r4, #0
20002ffe:	f855 3024 	ldr.w	r3, [r5, r4, lsl #2]
20003002:	3401      	adds	r4, #1
20003004:	4798      	blx	r3
20003006:	42a6      	cmp	r6, r4
20003008:	d8f9      	bhi.n	20002ffe <__libc_init_array+0x42>
2000300a:	bd70      	pop	{r4, r5, r6, pc}

2000300c <memset>:
2000300c:	2a03      	cmp	r2, #3
2000300e:	b2c9      	uxtb	r1, r1
20003010:	b430      	push	{r4, r5}
20003012:	d807      	bhi.n	20003024 <memset+0x18>
20003014:	b122      	cbz	r2, 20003020 <memset+0x14>
20003016:	2300      	movs	r3, #0
20003018:	54c1      	strb	r1, [r0, r3]
2000301a:	3301      	adds	r3, #1
2000301c:	4293      	cmp	r3, r2
2000301e:	d1fb      	bne.n	20003018 <memset+0xc>
20003020:	bc30      	pop	{r4, r5}
20003022:	4770      	bx	lr
20003024:	eb00 0c02 	add.w	ip, r0, r2
20003028:	4603      	mov	r3, r0
2000302a:	e001      	b.n	20003030 <memset+0x24>
2000302c:	f803 1c01 	strb.w	r1, [r3, #-1]
20003030:	f003 0403 	and.w	r4, r3, #3
20003034:	461a      	mov	r2, r3
20003036:	3301      	adds	r3, #1
20003038:	2c00      	cmp	r4, #0
2000303a:	d1f7      	bne.n	2000302c <memset+0x20>
2000303c:	f04f 3301 	mov.w	r3, #16843009	; 0x1010101
20003040:	ebc2 040c 	rsb	r4, r2, ip
20003044:	fb03 f301 	mul.w	r3, r3, r1
20003048:	e01f      	b.n	2000308a <memset+0x7e>
2000304a:	f842 3c40 	str.w	r3, [r2, #-64]
2000304e:	f842 3c3c 	str.w	r3, [r2, #-60]
20003052:	f842 3c38 	str.w	r3, [r2, #-56]
20003056:	f842 3c34 	str.w	r3, [r2, #-52]
2000305a:	f842 3c30 	str.w	r3, [r2, #-48]
2000305e:	f842 3c2c 	str.w	r3, [r2, #-44]
20003062:	f842 3c28 	str.w	r3, [r2, #-40]
20003066:	f842 3c24 	str.w	r3, [r2, #-36]
2000306a:	f842 3c20 	str.w	r3, [r2, #-32]
2000306e:	f842 3c1c 	str.w	r3, [r2, #-28]
20003072:	f842 3c18 	str.w	r3, [r2, #-24]
20003076:	f842 3c14 	str.w	r3, [r2, #-20]
2000307a:	f842 3c10 	str.w	r3, [r2, #-16]
2000307e:	f842 3c0c 	str.w	r3, [r2, #-12]
20003082:	f842 3c08 	str.w	r3, [r2, #-8]
20003086:	f842 3c04 	str.w	r3, [r2, #-4]
2000308a:	4615      	mov	r5, r2
2000308c:	3240      	adds	r2, #64	; 0x40
2000308e:	2c3f      	cmp	r4, #63	; 0x3f
20003090:	f1a4 0440 	sub.w	r4, r4, #64	; 0x40
20003094:	dcd9      	bgt.n	2000304a <memset+0x3e>
20003096:	462a      	mov	r2, r5
20003098:	ebc5 040c 	rsb	r4, r5, ip
2000309c:	e007      	b.n	200030ae <memset+0xa2>
2000309e:	f842 3c10 	str.w	r3, [r2, #-16]
200030a2:	f842 3c0c 	str.w	r3, [r2, #-12]
200030a6:	f842 3c08 	str.w	r3, [r2, #-8]
200030aa:	f842 3c04 	str.w	r3, [r2, #-4]
200030ae:	4615      	mov	r5, r2
200030b0:	3210      	adds	r2, #16
200030b2:	2c0f      	cmp	r4, #15
200030b4:	f1a4 0410 	sub.w	r4, r4, #16
200030b8:	dcf1      	bgt.n	2000309e <memset+0x92>
200030ba:	462a      	mov	r2, r5
200030bc:	ebc5 050c 	rsb	r5, r5, ip
200030c0:	e001      	b.n	200030c6 <memset+0xba>
200030c2:	f842 3c04 	str.w	r3, [r2, #-4]
200030c6:	4614      	mov	r4, r2
200030c8:	3204      	adds	r2, #4
200030ca:	2d03      	cmp	r5, #3
200030cc:	f1a5 0504 	sub.w	r5, r5, #4
200030d0:	dcf7      	bgt.n	200030c2 <memset+0xb6>
200030d2:	e001      	b.n	200030d8 <memset+0xcc>
200030d4:	f804 1b01 	strb.w	r1, [r4], #1
200030d8:	4564      	cmp	r4, ip
200030da:	d3fb      	bcc.n	200030d4 <memset+0xc8>
200030dc:	e7a0      	b.n	20003020 <memset+0x14>
200030de:	bf00      	nop

200030e0 <printf>:
200030e0:	b40f      	push	{r0, r1, r2, r3}
200030e2:	f649 03ec 	movw	r3, #39148	; 0x98ec
200030e6:	f2c2 0300 	movt	r3, #8192	; 0x2000
200030ea:	b510      	push	{r4, lr}
200030ec:	681c      	ldr	r4, [r3, #0]
200030ee:	b082      	sub	sp, #8
200030f0:	b124      	cbz	r4, 200030fc <printf+0x1c>
200030f2:	69a3      	ldr	r3, [r4, #24]
200030f4:	b913      	cbnz	r3, 200030fc <printf+0x1c>
200030f6:	4620      	mov	r0, r4
200030f8:	f002 fee6 	bl	20005ec8 <__sinit>
200030fc:	4620      	mov	r0, r4
200030fe:	ac05      	add	r4, sp, #20
20003100:	9a04      	ldr	r2, [sp, #16]
20003102:	4623      	mov	r3, r4
20003104:	6881      	ldr	r1, [r0, #8]
20003106:	9401      	str	r4, [sp, #4]
20003108:	f000 f87e 	bl	20003208 <_vfprintf_r>
2000310c:	b002      	add	sp, #8
2000310e:	e8bd 4010 	ldmia.w	sp!, {r4, lr}
20003112:	b004      	add	sp, #16
20003114:	4770      	bx	lr
20003116:	bf00      	nop

20003118 <_printf_r>:
20003118:	b40e      	push	{r1, r2, r3}
2000311a:	b510      	push	{r4, lr}
2000311c:	4604      	mov	r4, r0
2000311e:	b083      	sub	sp, #12
20003120:	b118      	cbz	r0, 2000312a <_printf_r+0x12>
20003122:	6983      	ldr	r3, [r0, #24]
20003124:	b90b      	cbnz	r3, 2000312a <_printf_r+0x12>
20003126:	f002 fecf 	bl	20005ec8 <__sinit>
2000312a:	4620      	mov	r0, r4
2000312c:	ac06      	add	r4, sp, #24
2000312e:	9a05      	ldr	r2, [sp, #20]
20003130:	4623      	mov	r3, r4
20003132:	6881      	ldr	r1, [r0, #8]
20003134:	9401      	str	r4, [sp, #4]
20003136:	f000 f867 	bl	20003208 <_vfprintf_r>
2000313a:	b003      	add	sp, #12
2000313c:	e8bd 4010 	ldmia.w	sp!, {r4, lr}
20003140:	b003      	add	sp, #12
20003142:	4770      	bx	lr

20003144 <strncmp>:
20003144:	b430      	push	{r4, r5}
20003146:	4613      	mov	r3, r2
20003148:	2a00      	cmp	r2, #0
2000314a:	d043      	beq.n	200031d4 <strncmp+0x90>
2000314c:	ea41 0200 	orr.w	r2, r1, r0
20003150:	f012 0f03 	tst.w	r2, #3
20003154:	d125      	bne.n	200031a2 <strncmp+0x5e>
20003156:	2b03      	cmp	r3, #3
20003158:	4604      	mov	r4, r0
2000315a:	460d      	mov	r5, r1
2000315c:	d93d      	bls.n	200031da <strncmp+0x96>
2000315e:	6802      	ldr	r2, [r0, #0]
20003160:	6809      	ldr	r1, [r1, #0]
20003162:	428a      	cmp	r2, r1
20003164:	d139      	bne.n	200031da <strncmp+0x96>
20003166:	3b04      	subs	r3, #4
20003168:	d034      	beq.n	200031d4 <strncmp+0x90>
2000316a:	f1a2 3101 	sub.w	r1, r2, #16843009	; 0x1010101
2000316e:	ea21 0202 	bic.w	r2, r1, r2
20003172:	f012 3f80 	tst.w	r2, #2155905152	; 0x80808080
20003176:	d00d      	beq.n	20003194 <strncmp+0x50>
20003178:	e02c      	b.n	200031d4 <strncmp+0x90>
2000317a:	6822      	ldr	r2, [r4, #0]
2000317c:	6829      	ldr	r1, [r5, #0]
2000317e:	f1a2 3001 	sub.w	r0, r2, #16843009	; 0x1010101
20003182:	428a      	cmp	r2, r1
20003184:	ea20 0002 	bic.w	r0, r0, r2
20003188:	d127      	bne.n	200031da <strncmp+0x96>
2000318a:	3b04      	subs	r3, #4
2000318c:	d022      	beq.n	200031d4 <strncmp+0x90>
2000318e:	f010 3f80 	tst.w	r0, #2155905152	; 0x80808080
20003192:	d11f      	bne.n	200031d4 <strncmp+0x90>
20003194:	3404      	adds	r4, #4
20003196:	3504      	adds	r5, #4
20003198:	2b03      	cmp	r3, #3
2000319a:	d8ee      	bhi.n	2000317a <strncmp+0x36>
2000319c:	4620      	mov	r0, r4
2000319e:	4629      	mov	r1, r5
200031a0:	b1f3      	cbz	r3, 200031e0 <strncmp+0x9c>
200031a2:	7804      	ldrb	r4, [r0, #0]
200031a4:	3b01      	subs	r3, #1
200031a6:	f891 c000 	ldrb.w	ip, [r1]
200031aa:	4564      	cmp	r4, ip
200031ac:	d10f      	bne.n	200031ce <strncmp+0x8a>
200031ae:	b18b      	cbz	r3, 200031d4 <strncmp+0x90>
200031b0:	b184      	cbz	r4, 200031d4 <strncmp+0x90>
200031b2:	3b01      	subs	r3, #1
200031b4:	2200      	movs	r2, #0
200031b6:	e002      	b.n	200031be <strncmp+0x7a>
200031b8:	b163      	cbz	r3, 200031d4 <strncmp+0x90>
200031ba:	b15c      	cbz	r4, 200031d4 <strncmp+0x90>
200031bc:	3b01      	subs	r3, #1
200031be:	1884      	adds	r4, r0, r2
200031c0:	188d      	adds	r5, r1, r2
200031c2:	3201      	adds	r2, #1
200031c4:	7864      	ldrb	r4, [r4, #1]
200031c6:	f895 c001 	ldrb.w	ip, [r5, #1]
200031ca:	4564      	cmp	r4, ip
200031cc:	d0f4      	beq.n	200031b8 <strncmp+0x74>
200031ce:	ebcc 0004 	rsb	r0, ip, r4
200031d2:	e000      	b.n	200031d6 <strncmp+0x92>
200031d4:	2000      	movs	r0, #0
200031d6:	bc30      	pop	{r4, r5}
200031d8:	4770      	bx	lr
200031da:	4620      	mov	r0, r4
200031dc:	4629      	mov	r1, r5
200031de:	e7e0      	b.n	200031a2 <strncmp+0x5e>
200031e0:	7824      	ldrb	r4, [r4, #0]
200031e2:	f895 c000 	ldrb.w	ip, [r5]
200031e6:	ebcc 0004 	rsb	r0, ip, r4
200031ea:	e7f4      	b.n	200031d6 <strncmp+0x92>

200031ec <__sprint_r>:
200031ec:	6893      	ldr	r3, [r2, #8]
200031ee:	b510      	push	{r4, lr}
200031f0:	4614      	mov	r4, r2
200031f2:	b913      	cbnz	r3, 200031fa <__sprint_r+0xe>
200031f4:	6053      	str	r3, [r2, #4]
200031f6:	4618      	mov	r0, r3
200031f8:	bd10      	pop	{r4, pc}
200031fa:	f002 ffc9 	bl	20006190 <__sfvwrite_r>
200031fe:	2300      	movs	r3, #0
20003200:	6063      	str	r3, [r4, #4]
20003202:	60a3      	str	r3, [r4, #8]
20003204:	bd10      	pop	{r4, pc}
20003206:	bf00      	nop

20003208 <_vfprintf_r>:
20003208:	e92d 4ff0 	stmdb	sp!, {r4, r5, r6, r7, r8, r9, sl, fp, lr}
2000320c:	f5ad 6dae 	sub.w	sp, sp, #1392	; 0x570
20003210:	b083      	sub	sp, #12
20003212:	460e      	mov	r6, r1
20003214:	4615      	mov	r5, r2
20003216:	469a      	mov	sl, r3
20003218:	4681      	mov	r9, r0
2000321a:	f003 f9a9 	bl	20006570 <_localeconv_r>
2000321e:	6800      	ldr	r0, [r0, #0]
20003220:	901d      	str	r0, [sp, #116]	; 0x74
20003222:	f1b9 0f00 	cmp.w	r9, #0
20003226:	d004      	beq.n	20003232 <_vfprintf_r+0x2a>
20003228:	f8d9 3018 	ldr.w	r3, [r9, #24]
2000322c:	2b00      	cmp	r3, #0
2000322e:	f000 815a 	beq.w	200034e6 <_vfprintf_r+0x2de>
20003232:	f249 6380 	movw	r3, #38528	; 0x9680
20003236:	f2c2 0300 	movt	r3, #8192	; 0x2000
2000323a:	429e      	cmp	r6, r3
2000323c:	bf08      	it	eq
2000323e:	f8d9 6004 	ldreq.w	r6, [r9, #4]
20003242:	d010      	beq.n	20003266 <_vfprintf_r+0x5e>
20003244:	f249 63a0 	movw	r3, #38560	; 0x96a0
20003248:	f2c2 0300 	movt	r3, #8192	; 0x2000
2000324c:	429e      	cmp	r6, r3
2000324e:	bf08      	it	eq
20003250:	f8d9 6008 	ldreq.w	r6, [r9, #8]
20003254:	d007      	beq.n	20003266 <_vfprintf_r+0x5e>
20003256:	f249 63c0 	movw	r3, #38592	; 0x96c0
2000325a:	f2c2 0300 	movt	r3, #8192	; 0x2000
2000325e:	429e      	cmp	r6, r3
20003260:	bf08      	it	eq
20003262:	f8d9 600c 	ldreq.w	r6, [r9, #12]
20003266:	f8b6 c00c 	ldrh.w	ip, [r6, #12]
2000326a:	fa1f f38c 	uxth.w	r3, ip
2000326e:	f413 5f00 	tst.w	r3, #8192	; 0x2000
20003272:	d109      	bne.n	20003288 <_vfprintf_r+0x80>
20003274:	f44c 5c00 	orr.w	ip, ip, #8192	; 0x2000
20003278:	6e72      	ldr	r2, [r6, #100]	; 0x64
2000327a:	f8a6 c00c 	strh.w	ip, [r6, #12]
2000327e:	fa1f f38c 	uxth.w	r3, ip
20003282:	f422 5200 	bic.w	r2, r2, #8192	; 0x2000
20003286:	6672      	str	r2, [r6, #100]	; 0x64
20003288:	f013 0f08 	tst.w	r3, #8
2000328c:	f001 8301 	beq.w	20004892 <_vfprintf_r+0x168a>
20003290:	6932      	ldr	r2, [r6, #16]
20003292:	2a00      	cmp	r2, #0
20003294:	f001 82fd 	beq.w	20004892 <_vfprintf_r+0x168a>
20003298:	f003 031a 	and.w	r3, r3, #26
2000329c:	2b0a      	cmp	r3, #10
2000329e:	f000 80e0 	beq.w	20003462 <_vfprintf_r+0x25a>
200032a2:	2200      	movs	r2, #0
200032a4:	9212      	str	r2, [sp, #72]	; 0x48
200032a6:	921a      	str	r2, [sp, #104]	; 0x68
200032a8:	2300      	movs	r3, #0
200032aa:	921c      	str	r2, [sp, #112]	; 0x70
200032ac:	f50d 649c 	add.w	r4, sp, #1248	; 0x4e0
200032b0:	9211      	str	r2, [sp, #68]	; 0x44
200032b2:	3404      	adds	r4, #4
200032b4:	9219      	str	r2, [sp, #100]	; 0x64
200032b6:	f50d 62a4 	add.w	r2, sp, #1312	; 0x520
200032ba:	931b      	str	r3, [sp, #108]	; 0x6c
200032bc:	3204      	adds	r2, #4
200032be:	f50d 6390 	add.w	r3, sp, #1152	; 0x480
200032c2:	3228      	adds	r2, #40	; 0x28
200032c4:	3303      	adds	r3, #3
200032c6:	9218      	str	r2, [sp, #96]	; 0x60
200032c8:	9307      	str	r3, [sp, #28]
200032ca:	2300      	movs	r3, #0
200032cc:	f8cd 454c 	str.w	r4, [sp, #1356]	; 0x54c
200032d0:	f8cd 3550 	str.w	r3, [sp, #1360]	; 0x550
200032d4:	f8cd 3554 	str.w	r3, [sp, #1364]	; 0x554
200032d8:	782b      	ldrb	r3, [r5, #0]
200032da:	1e1a      	subs	r2, r3, #0
200032dc:	bf18      	it	ne
200032de:	2201      	movne	r2, #1
200032e0:	2b25      	cmp	r3, #37	; 0x25
200032e2:	bf0c      	ite	eq
200032e4:	2200      	moveq	r2, #0
200032e6:	f002 0201 	andne.w	r2, r2, #1
200032ea:	b332      	cbz	r2, 2000333a <_vfprintf_r+0x132>
200032ec:	462f      	mov	r7, r5
200032ee:	f817 3f01 	ldrb.w	r3, [r7, #1]!
200032f2:	1e1a      	subs	r2, r3, #0
200032f4:	bf18      	it	ne
200032f6:	2201      	movne	r2, #1
200032f8:	2b25      	cmp	r3, #37	; 0x25
200032fa:	bf0c      	ite	eq
200032fc:	2200      	moveq	r2, #0
200032fe:	f002 0201 	andne.w	r2, r2, #1
20003302:	2a00      	cmp	r2, #0
20003304:	d1f3      	bne.n	200032ee <_vfprintf_r+0xe6>
20003306:	ebb7 0805 	subs.w	r8, r7, r5
2000330a:	bf08      	it	eq
2000330c:	463d      	moveq	r5, r7
2000330e:	d014      	beq.n	2000333a <_vfprintf_r+0x132>
20003310:	f8c4 8004 	str.w	r8, [r4, #4]
20003314:	f8dd 3550 	ldr.w	r3, [sp, #1360]	; 0x550
20003318:	f8dd 2554 	ldr.w	r2, [sp, #1364]	; 0x554
2000331c:	3301      	adds	r3, #1
2000331e:	6025      	str	r5, [r4, #0]
20003320:	2b07      	cmp	r3, #7
20003322:	4442      	add	r2, r8
20003324:	f8cd 3550 	str.w	r3, [sp, #1360]	; 0x550
20003328:	f8cd 2554 	str.w	r2, [sp, #1364]	; 0x554
2000332c:	dc78      	bgt.n	20003420 <_vfprintf_r+0x218>
2000332e:	3408      	adds	r4, #8
20003330:	9811      	ldr	r0, [sp, #68]	; 0x44
20003332:	463d      	mov	r5, r7
20003334:	4440      	add	r0, r8
20003336:	9011      	str	r0, [sp, #68]	; 0x44
20003338:	783b      	ldrb	r3, [r7, #0]
2000333a:	2b00      	cmp	r3, #0
2000333c:	d07c      	beq.n	20003438 <_vfprintf_r+0x230>
2000333e:	1c6b      	adds	r3, r5, #1
20003340:	f04f 37ff 	mov.w	r7, #4294967295
20003344:	202b      	movs	r0, #43	; 0x2b
20003346:	f04f 0c20 	mov.w	ip, #32
2000334a:	2100      	movs	r1, #0
2000334c:	f04f 0200 	mov.w	r2, #0
20003350:	910f      	str	r1, [sp, #60]	; 0x3c
20003352:	f88d 2577 	strb.w	r2, [sp, #1399]	; 0x577
20003356:	f8cd a02c 	str.w	sl, [sp, #44]	; 0x2c
2000335a:	786a      	ldrb	r2, [r5, #1]
2000335c:	910a      	str	r1, [sp, #40]	; 0x28
2000335e:	1c5d      	adds	r5, r3, #1
20003360:	f1a2 0320 	sub.w	r3, r2, #32
20003364:	2b58      	cmp	r3, #88	; 0x58
20003366:	f200 8286 	bhi.w	20003876 <_vfprintf_r+0x66e>
2000336a:	e8df f013 	tbh	[pc, r3, lsl #1]
2000336e:	0298      	.short	0x0298
20003370:	02840284 	.word	0x02840284
20003374:	028402a4 	.word	0x028402a4
20003378:	02840284 	.word	0x02840284
2000337c:	02840284 	.word	0x02840284
20003380:	02ad0284 	.word	0x02ad0284
20003384:	028402ba 	.word	0x028402ba
20003388:	02ca02c1 	.word	0x02ca02c1
2000338c:	02e70284 	.word	0x02e70284
20003390:	02f002f0 	.word	0x02f002f0
20003394:	02f002f0 	.word	0x02f002f0
20003398:	02f002f0 	.word	0x02f002f0
2000339c:	02f002f0 	.word	0x02f002f0
200033a0:	028402f0 	.word	0x028402f0
200033a4:	02840284 	.word	0x02840284
200033a8:	02840284 	.word	0x02840284
200033ac:	02840284 	.word	0x02840284
200033b0:	02840284 	.word	0x02840284
200033b4:	03040284 	.word	0x03040284
200033b8:	02840326 	.word	0x02840326
200033bc:	02840326 	.word	0x02840326
200033c0:	02840284 	.word	0x02840284
200033c4:	036a0284 	.word	0x036a0284
200033c8:	02840284 	.word	0x02840284
200033cc:	02840481 	.word	0x02840481
200033d0:	02840284 	.word	0x02840284
200033d4:	02840284 	.word	0x02840284
200033d8:	02840414 	.word	0x02840414
200033dc:	042f0284 	.word	0x042f0284
200033e0:	02840284 	.word	0x02840284
200033e4:	02840284 	.word	0x02840284
200033e8:	02840284 	.word	0x02840284
200033ec:	02840284 	.word	0x02840284
200033f0:	02840284 	.word	0x02840284
200033f4:	0465044f 	.word	0x0465044f
200033f8:	03260326 	.word	0x03260326
200033fc:	03730326 	.word	0x03730326
20003400:	02840465 	.word	0x02840465
20003404:	03790284 	.word	0x03790284
20003408:	03850284 	.word	0x03850284
2000340c:	03ad0396 	.word	0x03ad0396
20003410:	0284040a 	.word	0x0284040a
20003414:	028403cc 	.word	0x028403cc
20003418:	028403f4 	.word	0x028403f4
2000341c:	00c00284 	.word	0x00c00284
20003420:	f50d 62a8 	add.w	r2, sp, #1344	; 0x540
20003424:	4648      	mov	r0, r9
20003426:	4631      	mov	r1, r6
20003428:	320c      	adds	r2, #12
2000342a:	f7ff fedf 	bl	200031ec <__sprint_r>
2000342e:	b958      	cbnz	r0, 20003448 <_vfprintf_r+0x240>
20003430:	f50d 649c 	add.w	r4, sp, #1248	; 0x4e0
20003434:	3404      	adds	r4, #4
20003436:	e77b      	b.n	20003330 <_vfprintf_r+0x128>
20003438:	f8dd 3554 	ldr.w	r3, [sp, #1364]	; 0x554
2000343c:	2b00      	cmp	r3, #0
2000343e:	f041 8192 	bne.w	20004766 <_vfprintf_r+0x155e>
20003442:	2300      	movs	r3, #0
20003444:	f8cd 3550 	str.w	r3, [sp, #1360]	; 0x550
20003448:	89b3      	ldrh	r3, [r6, #12]
2000344a:	f013 0f40 	tst.w	r3, #64	; 0x40
2000344e:	d002      	beq.n	20003456 <_vfprintf_r+0x24e>
20003450:	f04f 30ff 	mov.w	r0, #4294967295
20003454:	9011      	str	r0, [sp, #68]	; 0x44
20003456:	9811      	ldr	r0, [sp, #68]	; 0x44
20003458:	b05f      	add	sp, #380	; 0x17c
2000345a:	f50d 6d80 	add.w	sp, sp, #1024	; 0x400
2000345e:	e8bd 8ff0 	ldmia.w	sp!, {r4, r5, r6, r7, r8, r9, sl, fp, pc}
20003462:	f9b6 300e 	ldrsh.w	r3, [r6, #14]
20003466:	2b00      	cmp	r3, #0
20003468:	f6ff af1b 	blt.w	200032a2 <_vfprintf_r+0x9a>
2000346c:	6a37      	ldr	r7, [r6, #32]
2000346e:	f02c 0c02 	bic.w	ip, ip, #2
20003472:	f8d6 e028 	ldr.w	lr, [r6, #40]	; 0x28
20003476:	f50d 648e 	add.w	r4, sp, #1136	; 0x470
2000347a:	f8ad c488 	strh.w	ip, [sp, #1160]	; 0x488
2000347e:	340c      	adds	r4, #12
20003480:	f8b6 c00e 	ldrh.w	ip, [r6, #14]
20003484:	462a      	mov	r2, r5
20003486:	4653      	mov	r3, sl
20003488:	4648      	mov	r0, r9
2000348a:	4621      	mov	r1, r4
2000348c:	ad1f      	add	r5, sp, #124	; 0x7c
2000348e:	f8cd 749c 	str.w	r7, [sp, #1180]	; 0x49c
20003492:	2700      	movs	r7, #0
20003494:	f8cd 548c 	str.w	r5, [sp, #1164]	; 0x48c
20003498:	f8cd 547c 	str.w	r5, [sp, #1148]	; 0x47c
2000349c:	f44f 6580 	mov.w	r5, #1024	; 0x400
200034a0:	f8cd e4a4 	str.w	lr, [sp, #1188]	; 0x4a4
200034a4:	f8ad c48a 	strh.w	ip, [sp, #1162]	; 0x48a
200034a8:	f8cd 5490 	str.w	r5, [sp, #1168]	; 0x490
200034ac:	f8cd 7494 	str.w	r7, [sp, #1172]	; 0x494
200034b0:	f8cd 5484 	str.w	r5, [sp, #1156]	; 0x484
200034b4:	f7ff fea8 	bl	20003208 <_vfprintf_r>
200034b8:	2800      	cmp	r0, #0
200034ba:	9011      	str	r0, [sp, #68]	; 0x44
200034bc:	db09      	blt.n	200034d2 <_vfprintf_r+0x2ca>
200034be:	4621      	mov	r1, r4
200034c0:	4648      	mov	r0, r9
200034c2:	f002 fb91 	bl	20005be8 <_fflush_r>
200034c6:	9911      	ldr	r1, [sp, #68]	; 0x44
200034c8:	42b8      	cmp	r0, r7
200034ca:	bf18      	it	ne
200034cc:	f04f 31ff 	movne.w	r1, #4294967295
200034d0:	9111      	str	r1, [sp, #68]	; 0x44
200034d2:	f8bd 3488 	ldrh.w	r3, [sp, #1160]	; 0x488
200034d6:	f013 0f40 	tst.w	r3, #64	; 0x40
200034da:	d0bc      	beq.n	20003456 <_vfprintf_r+0x24e>
200034dc:	89b3      	ldrh	r3, [r6, #12]
200034de:	f043 0340 	orr.w	r3, r3, #64	; 0x40
200034e2:	81b3      	strh	r3, [r6, #12]
200034e4:	e7b7      	b.n	20003456 <_vfprintf_r+0x24e>
200034e6:	4648      	mov	r0, r9
200034e8:	f002 fcee 	bl	20005ec8 <__sinit>
200034ec:	e6a1      	b.n	20003232 <_vfprintf_r+0x2a>
200034ee:	980a      	ldr	r0, [sp, #40]	; 0x28
200034f0:	f249 6c50 	movw	ip, #38480	; 0x9650
200034f4:	f2c2 0c00 	movt	ip, #8192	; 0x2000
200034f8:	9216      	str	r2, [sp, #88]	; 0x58
200034fa:	f010 0f20 	tst.w	r0, #32
200034fe:	f8cd c064 	str.w	ip, [sp, #100]	; 0x64
20003502:	f000 836e 	beq.w	20003be2 <_vfprintf_r+0x9da>
20003506:	990b      	ldr	r1, [sp, #44]	; 0x2c
20003508:	1dcb      	adds	r3, r1, #7
2000350a:	f023 0307 	bic.w	r3, r3, #7
2000350e:	f103 0208 	add.w	r2, r3, #8
20003512:	920b      	str	r2, [sp, #44]	; 0x2c
20003514:	e9d3 ab00 	ldrd	sl, fp, [r3]
20003518:	ea5a 020b 	orrs.w	r2, sl, fp
2000351c:	9b0a      	ldr	r3, [sp, #40]	; 0x28
2000351e:	bf0c      	ite	eq
20003520:	2200      	moveq	r2, #0
20003522:	2201      	movne	r2, #1
20003524:	4213      	tst	r3, r2
20003526:	f040 866b 	bne.w	20004200 <_vfprintf_r+0xff8>
2000352a:	2302      	movs	r3, #2
2000352c:	f04f 0100 	mov.w	r1, #0
20003530:	f88d 1577 	strb.w	r1, [sp, #1399]	; 0x577
20003534:	2f00      	cmp	r7, #0
20003536:	bfa2      	ittt	ge
20003538:	f8dd c028 	ldrge.w	ip, [sp, #40]	; 0x28
2000353c:	f02c 0c80 	bicge.w	ip, ip, #128	; 0x80
20003540:	f8cd c028 	strge.w	ip, [sp, #40]	; 0x28
20003544:	2f00      	cmp	r7, #0
20003546:	bf18      	it	ne
20003548:	f042 0201 	orrne.w	r2, r2, #1
2000354c:	2a00      	cmp	r2, #0
2000354e:	f000 841e 	beq.w	20003d8e <_vfprintf_r+0xb86>
20003552:	2b01      	cmp	r3, #1
20003554:	f000 85de 	beq.w	20004114 <_vfprintf_r+0xf0c>
20003558:	2b02      	cmp	r3, #2
2000355a:	f000 85c1 	beq.w	200040e0 <_vfprintf_r+0xed8>
2000355e:	9918      	ldr	r1, [sp, #96]	; 0x60
20003560:	9113      	str	r1, [sp, #76]	; 0x4c
20003562:	ea4f 08da 	mov.w	r8, sl, lsr #3
20003566:	ea4f 0cdb 	mov.w	ip, fp, lsr #3
2000356a:	ea48 784b 	orr.w	r8, r8, fp, lsl #29
2000356e:	f00a 0007 	and.w	r0, sl, #7
20003572:	46e3      	mov	fp, ip
20003574:	46c2      	mov	sl, r8
20003576:	3030      	adds	r0, #48	; 0x30
20003578:	ea5a 020b 	orrs.w	r2, sl, fp
2000357c:	f801 0d01 	strb.w	r0, [r1, #-1]!
20003580:	d1ef      	bne.n	20003562 <_vfprintf_r+0x35a>
20003582:	f8dd c028 	ldr.w	ip, [sp, #40]	; 0x28
20003586:	9113      	str	r1, [sp, #76]	; 0x4c
20003588:	f01c 0f01 	tst.w	ip, #1
2000358c:	f040 868c 	bne.w	200042a8 <_vfprintf_r+0x10a0>
20003590:	9818      	ldr	r0, [sp, #96]	; 0x60
20003592:	1a40      	subs	r0, r0, r1
20003594:	9010      	str	r0, [sp, #64]	; 0x40
20003596:	f89d 3577 	ldrb.w	r3, [sp, #1399]	; 0x577
2000359a:	9a10      	ldr	r2, [sp, #64]	; 0x40
2000359c:	9717      	str	r7, [sp, #92]	; 0x5c
2000359e:	42ba      	cmp	r2, r7
200035a0:	bfb8      	it	lt
200035a2:	463a      	movlt	r2, r7
200035a4:	920c      	str	r2, [sp, #48]	; 0x30
200035a6:	b113      	cbz	r3, 200035ae <_vfprintf_r+0x3a6>
200035a8:	9a0c      	ldr	r2, [sp, #48]	; 0x30
200035aa:	3201      	adds	r2, #1
200035ac:	920c      	str	r2, [sp, #48]	; 0x30
200035ae:	9b0a      	ldr	r3, [sp, #40]	; 0x28
200035b0:	980a      	ldr	r0, [sp, #40]	; 0x28
200035b2:	f013 0302 	ands.w	r3, r3, #2
200035b6:	9315      	str	r3, [sp, #84]	; 0x54
200035b8:	bf1e      	ittt	ne
200035ba:	f8dd c030 	ldrne.w	ip, [sp, #48]	; 0x30
200035be:	f10c 0c02 	addne.w	ip, ip, #2
200035c2:	f8cd c030 	strne.w	ip, [sp, #48]	; 0x30
200035c6:	f010 0084 	ands.w	r0, r0, #132	; 0x84
200035ca:	9014      	str	r0, [sp, #80]	; 0x50
200035cc:	d14d      	bne.n	2000366a <_vfprintf_r+0x462>
200035ce:	990f      	ldr	r1, [sp, #60]	; 0x3c
200035d0:	9a0c      	ldr	r2, [sp, #48]	; 0x30
200035d2:	1a8f      	subs	r7, r1, r2
200035d4:	2f00      	cmp	r7, #0
200035d6:	dd48      	ble.n	2000366a <_vfprintf_r+0x462>
200035d8:	2f10      	cmp	r7, #16
200035da:	f249 680c 	movw	r8, #38412	; 0x960c
200035de:	bfd8      	it	le
200035e0:	f2c2 0800 	movtle	r8, #8192	; 0x2000
200035e4:	dd30      	ble.n	20003648 <_vfprintf_r+0x440>
200035e6:	f2c2 0800 	movt	r8, #8192	; 0x2000
200035ea:	f50d 6ba8 	add.w	fp, sp, #1344	; 0x540
200035ee:	4643      	mov	r3, r8
200035f0:	f04f 0a10 	mov.w	sl, #16
200035f4:	46a8      	mov	r8, r5
200035f6:	f10b 0b0c 	add.w	fp, fp, #12
200035fa:	461d      	mov	r5, r3
200035fc:	e002      	b.n	20003604 <_vfprintf_r+0x3fc>
200035fe:	3f10      	subs	r7, #16
20003600:	2f10      	cmp	r7, #16
20003602:	dd1e      	ble.n	20003642 <_vfprintf_r+0x43a>
20003604:	f8c4 a004 	str.w	sl, [r4, #4]
20003608:	f8dd 3550 	ldr.w	r3, [sp, #1360]	; 0x550
2000360c:	f8dd 2554 	ldr.w	r2, [sp, #1364]	; 0x554
20003610:	3301      	adds	r3, #1
20003612:	6025      	str	r5, [r4, #0]
20003614:	3210      	adds	r2, #16
20003616:	2b07      	cmp	r3, #7
20003618:	f8cd 2554 	str.w	r2, [sp, #1364]	; 0x554
2000361c:	f104 0408 	add.w	r4, r4, #8
20003620:	f8cd 3550 	str.w	r3, [sp, #1360]	; 0x550
20003624:	ddeb      	ble.n	200035fe <_vfprintf_r+0x3f6>
20003626:	f50d 649c 	add.w	r4, sp, #1248	; 0x4e0
2000362a:	4648      	mov	r0, r9
2000362c:	4631      	mov	r1, r6
2000362e:	465a      	mov	r2, fp
20003630:	3404      	adds	r4, #4
20003632:	f7ff fddb 	bl	200031ec <__sprint_r>
20003636:	2800      	cmp	r0, #0
20003638:	f47f af06 	bne.w	20003448 <_vfprintf_r+0x240>
2000363c:	3f10      	subs	r7, #16
2000363e:	2f10      	cmp	r7, #16
20003640:	dce0      	bgt.n	20003604 <_vfprintf_r+0x3fc>
20003642:	462b      	mov	r3, r5
20003644:	4645      	mov	r5, r8
20003646:	4698      	mov	r8, r3
20003648:	6067      	str	r7, [r4, #4]
2000364a:	f8dd 3550 	ldr.w	r3, [sp, #1360]	; 0x550
2000364e:	f8c4 8000 	str.w	r8, [r4]
20003652:	1c5a      	adds	r2, r3, #1
20003654:	f8dd 3554 	ldr.w	r3, [sp, #1364]	; 0x554
20003658:	f8cd 2550 	str.w	r2, [sp, #1360]	; 0x550
2000365c:	19db      	adds	r3, r3, r7
2000365e:	2a07      	cmp	r2, #7
20003660:	f8cd 3554 	str.w	r3, [sp, #1364]	; 0x554
20003664:	f300 858a 	bgt.w	2000417c <_vfprintf_r+0xf74>
20003668:	3408      	adds	r4, #8
2000366a:	f89d 3577 	ldrb.w	r3, [sp, #1399]	; 0x577
2000366e:	b19b      	cbz	r3, 20003698 <_vfprintf_r+0x490>
20003670:	2301      	movs	r3, #1
20003672:	6063      	str	r3, [r4, #4]
20003674:	f8dd 3550 	ldr.w	r3, [sp, #1360]	; 0x550
20003678:	f50d 62ae 	add.w	r2, sp, #1392	; 0x570
2000367c:	3207      	adds	r2, #7
2000367e:	6022      	str	r2, [r4, #0]
20003680:	f8dd 2554 	ldr.w	r2, [sp, #1364]	; 0x554
20003684:	3301      	adds	r3, #1
20003686:	f8cd 3550 	str.w	r3, [sp, #1360]	; 0x550
2000368a:	3201      	adds	r2, #1
2000368c:	2b07      	cmp	r3, #7
2000368e:	f8cd 2554 	str.w	r2, [sp, #1364]	; 0x554
20003692:	f300 84b6 	bgt.w	20004002 <_vfprintf_r+0xdfa>
20003696:	3408      	adds	r4, #8
20003698:	9b15      	ldr	r3, [sp, #84]	; 0x54
2000369a:	b19b      	cbz	r3, 200036c4 <_vfprintf_r+0x4bc>
2000369c:	2302      	movs	r3, #2
2000369e:	6063      	str	r3, [r4, #4]
200036a0:	f8dd 3550 	ldr.w	r3, [sp, #1360]	; 0x550
200036a4:	f50d 62ae 	add.w	r2, sp, #1392	; 0x570
200036a8:	3204      	adds	r2, #4
200036aa:	6022      	str	r2, [r4, #0]
200036ac:	f8dd 2554 	ldr.w	r2, [sp, #1364]	; 0x554
200036b0:	3301      	adds	r3, #1
200036b2:	f8cd 3550 	str.w	r3, [sp, #1360]	; 0x550
200036b6:	3202      	adds	r2, #2
200036b8:	2b07      	cmp	r3, #7
200036ba:	f8cd 2554 	str.w	r2, [sp, #1364]	; 0x554
200036be:	f300 84af 	bgt.w	20004020 <_vfprintf_r+0xe18>
200036c2:	3408      	adds	r4, #8
200036c4:	f8dd c050 	ldr.w	ip, [sp, #80]	; 0x50
200036c8:	f1bc 0f80 	cmp.w	ip, #128	; 0x80
200036cc:	f000 8376 	beq.w	20003dbc <_vfprintf_r+0xbb4>
200036d0:	9b17      	ldr	r3, [sp, #92]	; 0x5c
200036d2:	9a10      	ldr	r2, [sp, #64]	; 0x40
200036d4:	1a9f      	subs	r7, r3, r2
200036d6:	2f00      	cmp	r7, #0
200036d8:	dd43      	ble.n	20003762 <_vfprintf_r+0x55a>
200036da:	2f10      	cmp	r7, #16
200036dc:	f8df 8b8c 	ldr.w	r8, [pc, #2956]	; 2000426c <_vfprintf_r+0x1064>
200036e0:	dd2e      	ble.n	20003740 <_vfprintf_r+0x538>
200036e2:	4643      	mov	r3, r8
200036e4:	f50d 6ba8 	add.w	fp, sp, #1344	; 0x540
200036e8:	46a8      	mov	r8, r5
200036ea:	f04f 0a10 	mov.w	sl, #16
200036ee:	f10b 0b0c 	add.w	fp, fp, #12
200036f2:	461d      	mov	r5, r3
200036f4:	e002      	b.n	200036fc <_vfprintf_r+0x4f4>
200036f6:	3f10      	subs	r7, #16
200036f8:	2f10      	cmp	r7, #16
200036fa:	dd1e      	ble.n	2000373a <_vfprintf_r+0x532>
200036fc:	f8c4 a004 	str.w	sl, [r4, #4]
20003700:	f8dd 3550 	ldr.w	r3, [sp, #1360]	; 0x550
20003704:	f8dd 2554 	ldr.w	r2, [sp, #1364]	; 0x554
20003708:	3301      	adds	r3, #1
2000370a:	6025      	str	r5, [r4, #0]
2000370c:	3210      	adds	r2, #16
2000370e:	2b07      	cmp	r3, #7
20003710:	f8cd 2554 	str.w	r2, [sp, #1364]	; 0x554
20003714:	f104 0408 	add.w	r4, r4, #8
20003718:	f8cd 3550 	str.w	r3, [sp, #1360]	; 0x550
2000371c:	ddeb      	ble.n	200036f6 <_vfprintf_r+0x4ee>
2000371e:	f50d 649c 	add.w	r4, sp, #1248	; 0x4e0
20003722:	4648      	mov	r0, r9
20003724:	4631      	mov	r1, r6
20003726:	465a      	mov	r2, fp
20003728:	3404      	adds	r4, #4
2000372a:	f7ff fd5f 	bl	200031ec <__sprint_r>
2000372e:	2800      	cmp	r0, #0
20003730:	f47f ae8a 	bne.w	20003448 <_vfprintf_r+0x240>
20003734:	3f10      	subs	r7, #16
20003736:	2f10      	cmp	r7, #16
20003738:	dce0      	bgt.n	200036fc <_vfprintf_r+0x4f4>
2000373a:	462b      	mov	r3, r5
2000373c:	4645      	mov	r5, r8
2000373e:	4698      	mov	r8, r3
20003740:	6067      	str	r7, [r4, #4]
20003742:	f8dd 3550 	ldr.w	r3, [sp, #1360]	; 0x550
20003746:	f8dd 2554 	ldr.w	r2, [sp, #1364]	; 0x554
2000374a:	3301      	adds	r3, #1
2000374c:	f8c4 8000 	str.w	r8, [r4]
20003750:	19d2      	adds	r2, r2, r7
20003752:	2b07      	cmp	r3, #7
20003754:	f8cd 2554 	str.w	r2, [sp, #1364]	; 0x554
20003758:	f8cd 3550 	str.w	r3, [sp, #1360]	; 0x550
2000375c:	f300 8442 	bgt.w	20003fe4 <_vfprintf_r+0xddc>
20003760:	3408      	adds	r4, #8
20003762:	f8dd c028 	ldr.w	ip, [sp, #40]	; 0x28
20003766:	f41c 7f80 	tst.w	ip, #256	; 0x100
2000376a:	f040 829d 	bne.w	20003ca8 <_vfprintf_r+0xaa0>
2000376e:	9810      	ldr	r0, [sp, #64]	; 0x40
20003770:	9913      	ldr	r1, [sp, #76]	; 0x4c
20003772:	6060      	str	r0, [r4, #4]
20003774:	f8dd 3550 	ldr.w	r3, [sp, #1360]	; 0x550
20003778:	f8dd 2554 	ldr.w	r2, [sp, #1364]	; 0x554
2000377c:	3301      	adds	r3, #1
2000377e:	6021      	str	r1, [r4, #0]
20003780:	1812      	adds	r2, r2, r0
20003782:	2b07      	cmp	r3, #7
20003784:	f8cd 3550 	str.w	r3, [sp, #1360]	; 0x550
20003788:	bfd8      	it	le
2000378a:	f104 0308 	addle.w	r3, r4, #8
2000378e:	f8cd 2554 	str.w	r2, [sp, #1364]	; 0x554
20003792:	f300 839b 	bgt.w	20003ecc <_vfprintf_r+0xcc4>
20003796:	990a      	ldr	r1, [sp, #40]	; 0x28
20003798:	f011 0f04 	tst.w	r1, #4
2000379c:	d055      	beq.n	2000384a <_vfprintf_r+0x642>
2000379e:	9a0f      	ldr	r2, [sp, #60]	; 0x3c
200037a0:	f8dd c030 	ldr.w	ip, [sp, #48]	; 0x30
200037a4:	ebcc 0702 	rsb	r7, ip, r2
200037a8:	2f00      	cmp	r7, #0
200037aa:	dd4e      	ble.n	2000384a <_vfprintf_r+0x642>
200037ac:	2f10      	cmp	r7, #16
200037ae:	f249 680c 	movw	r8, #38412	; 0x960c
200037b2:	bfd8      	it	le
200037b4:	f2c2 0800 	movtle	r8, #8192	; 0x2000
200037b8:	dd2e      	ble.n	20003818 <_vfprintf_r+0x610>
200037ba:	f2c2 0800 	movt	r8, #8192	; 0x2000
200037be:	f50d 6aa8 	add.w	sl, sp, #1344	; 0x540
200037c2:	4642      	mov	r2, r8
200037c4:	2410      	movs	r4, #16
200037c6:	46a8      	mov	r8, r5
200037c8:	f10a 0a0c 	add.w	sl, sl, #12
200037cc:	4615      	mov	r5, r2
200037ce:	e002      	b.n	200037d6 <_vfprintf_r+0x5ce>
200037d0:	3f10      	subs	r7, #16
200037d2:	2f10      	cmp	r7, #16
200037d4:	dd1d      	ble.n	20003812 <_vfprintf_r+0x60a>
200037d6:	605c      	str	r4, [r3, #4]
200037d8:	f8dd 2550 	ldr.w	r2, [sp, #1360]	; 0x550
200037dc:	f8dd 1554 	ldr.w	r1, [sp, #1364]	; 0x554
200037e0:	3201      	adds	r2, #1
200037e2:	601d      	str	r5, [r3, #0]
200037e4:	3110      	adds	r1, #16
200037e6:	2a07      	cmp	r2, #7
200037e8:	f8cd 1554 	str.w	r1, [sp, #1364]	; 0x554
200037ec:	f103 0308 	add.w	r3, r3, #8
200037f0:	f8cd 2550 	str.w	r2, [sp, #1360]	; 0x550
200037f4:	ddec      	ble.n	200037d0 <_vfprintf_r+0x5c8>
200037f6:	4648      	mov	r0, r9
200037f8:	4631      	mov	r1, r6
200037fa:	4652      	mov	r2, sl
200037fc:	f7ff fcf6 	bl	200031ec <__sprint_r>
20003800:	f50d 639c 	add.w	r3, sp, #1248	; 0x4e0
20003804:	3304      	adds	r3, #4
20003806:	2800      	cmp	r0, #0
20003808:	f47f ae1e 	bne.w	20003448 <_vfprintf_r+0x240>
2000380c:	3f10      	subs	r7, #16
2000380e:	2f10      	cmp	r7, #16
20003810:	dce1      	bgt.n	200037d6 <_vfprintf_r+0x5ce>
20003812:	462a      	mov	r2, r5
20003814:	4645      	mov	r5, r8
20003816:	4690      	mov	r8, r2
20003818:	605f      	str	r7, [r3, #4]
2000381a:	f8dd 2550 	ldr.w	r2, [sp, #1360]	; 0x550
2000381e:	f8c3 8000 	str.w	r8, [r3]
20003822:	f8dd 3554 	ldr.w	r3, [sp, #1364]	; 0x554
20003826:	3201      	adds	r2, #1
20003828:	f8cd 2550 	str.w	r2, [sp, #1360]	; 0x550
2000382c:	18fb      	adds	r3, r7, r3
2000382e:	2a07      	cmp	r2, #7
20003830:	f8cd 3554 	str.w	r3, [sp, #1364]	; 0x554
20003834:	dd0b      	ble.n	2000384e <_vfprintf_r+0x646>
20003836:	f50d 62a8 	add.w	r2, sp, #1344	; 0x540
2000383a:	4648      	mov	r0, r9
2000383c:	4631      	mov	r1, r6
2000383e:	320c      	adds	r2, #12
20003840:	f7ff fcd4 	bl	200031ec <__sprint_r>
20003844:	2800      	cmp	r0, #0
20003846:	f47f adff 	bne.w	20003448 <_vfprintf_r+0x240>
2000384a:	f8dd 3554 	ldr.w	r3, [sp, #1364]	; 0x554
2000384e:	9811      	ldr	r0, [sp, #68]	; 0x44
20003850:	9a0c      	ldr	r2, [sp, #48]	; 0x30
20003852:	990f      	ldr	r1, [sp, #60]	; 0x3c
20003854:	428a      	cmp	r2, r1
20003856:	bfac      	ite	ge
20003858:	1880      	addge	r0, r0, r2
2000385a:	1840      	addlt	r0, r0, r1
2000385c:	9011      	str	r0, [sp, #68]	; 0x44
2000385e:	2b00      	cmp	r3, #0
20003860:	f040 8342 	bne.w	20003ee8 <_vfprintf_r+0xce0>
20003864:	f50d 649c 	add.w	r4, sp, #1248	; 0x4e0
20003868:	2300      	movs	r3, #0
2000386a:	f8dd a02c 	ldr.w	sl, [sp, #44]	; 0x2c
2000386e:	3404      	adds	r4, #4
20003870:	f8cd 3550 	str.w	r3, [sp, #1360]	; 0x550
20003874:	e530      	b.n	200032d8 <_vfprintf_r+0xd0>
20003876:	9216      	str	r2, [sp, #88]	; 0x58
20003878:	2a00      	cmp	r2, #0
2000387a:	f43f addd 	beq.w	20003438 <_vfprintf_r+0x230>
2000387e:	f50d 60a4 	add.w	r0, sp, #1312	; 0x520
20003882:	2301      	movs	r3, #1
20003884:	f04f 0c00 	mov.w	ip, #0
20003888:	3004      	adds	r0, #4
2000388a:	930c      	str	r3, [sp, #48]	; 0x30
2000388c:	f88d 2524 	strb.w	r2, [sp, #1316]	; 0x524
20003890:	f88d c577 	strb.w	ip, [sp, #1399]	; 0x577
20003894:	9013      	str	r0, [sp, #76]	; 0x4c
20003896:	9310      	str	r3, [sp, #64]	; 0x40
20003898:	2100      	movs	r1, #0
2000389a:	9117      	str	r1, [sp, #92]	; 0x5c
2000389c:	e687      	b.n	200035ae <_vfprintf_r+0x3a6>
2000389e:	f89d 3577 	ldrb.w	r3, [sp, #1399]	; 0x577
200038a2:	2b00      	cmp	r3, #0
200038a4:	f040 852b 	bne.w	200042fe <_vfprintf_r+0x10f6>
200038a8:	990b      	ldr	r1, [sp, #44]	; 0x2c
200038aa:	462b      	mov	r3, r5
200038ac:	f88d c577 	strb.w	ip, [sp, #1399]	; 0x577
200038b0:	782a      	ldrb	r2, [r5, #0]
200038b2:	910b      	str	r1, [sp, #44]	; 0x2c
200038b4:	e553      	b.n	2000335e <_vfprintf_r+0x156>
200038b6:	990b      	ldr	r1, [sp, #44]	; 0x2c
200038b8:	9b0a      	ldr	r3, [sp, #40]	; 0x28
200038ba:	f043 0301 	orr.w	r3, r3, #1
200038be:	930a      	str	r3, [sp, #40]	; 0x28
200038c0:	462b      	mov	r3, r5
200038c2:	782a      	ldrb	r2, [r5, #0]
200038c4:	910b      	str	r1, [sp, #44]	; 0x2c
200038c6:	e54a      	b.n	2000335e <_vfprintf_r+0x156>
200038c8:	990b      	ldr	r1, [sp, #44]	; 0x2c
200038ca:	9a0b      	ldr	r2, [sp, #44]	; 0x2c
200038cc:	6809      	ldr	r1, [r1, #0]
200038ce:	910f      	str	r1, [sp, #60]	; 0x3c
200038d0:	1d11      	adds	r1, r2, #4
200038d2:	9b0f      	ldr	r3, [sp, #60]	; 0x3c
200038d4:	2b00      	cmp	r3, #0
200038d6:	f2c0 8780 	blt.w	200047da <_vfprintf_r+0x15d2>
200038da:	782a      	ldrb	r2, [r5, #0]
200038dc:	462b      	mov	r3, r5
200038de:	910b      	str	r1, [sp, #44]	; 0x2c
200038e0:	e53d      	b.n	2000335e <_vfprintf_r+0x156>
200038e2:	990b      	ldr	r1, [sp, #44]	; 0x2c
200038e4:	462b      	mov	r3, r5
200038e6:	f88d 0577 	strb.w	r0, [sp, #1399]	; 0x577
200038ea:	782a      	ldrb	r2, [r5, #0]
200038ec:	910b      	str	r1, [sp, #44]	; 0x2c
200038ee:	e536      	b.n	2000335e <_vfprintf_r+0x156>
200038f0:	990b      	ldr	r1, [sp, #44]	; 0x2c
200038f2:	9b0a      	ldr	r3, [sp, #40]	; 0x28
200038f4:	f043 0304 	orr.w	r3, r3, #4
200038f8:	930a      	str	r3, [sp, #40]	; 0x28
200038fa:	462b      	mov	r3, r5
200038fc:	782a      	ldrb	r2, [r5, #0]
200038fe:	910b      	str	r1, [sp, #44]	; 0x2c
20003900:	e52d      	b.n	2000335e <_vfprintf_r+0x156>
20003902:	462b      	mov	r3, r5
20003904:	f813 2b01 	ldrb.w	r2, [r3], #1
20003908:	2a2a      	cmp	r2, #42	; 0x2a
2000390a:	f001 80cd 	beq.w	20004aa8 <_vfprintf_r+0x18a0>
2000390e:	f1a2 0130 	sub.w	r1, r2, #48	; 0x30
20003912:	2909      	cmp	r1, #9
20003914:	f201 8037 	bhi.w	20004986 <_vfprintf_r+0x177e>
20003918:	3502      	adds	r5, #2
2000391a:	2700      	movs	r7, #0
2000391c:	f815 2c01 	ldrb.w	r2, [r5, #-1]
20003920:	eb07 0787 	add.w	r7, r7, r7, lsl #2
20003924:	462b      	mov	r3, r5
20003926:	3501      	adds	r5, #1
20003928:	eb01 0747 	add.w	r7, r1, r7, lsl #1
2000392c:	f1a2 0130 	sub.w	r1, r2, #48	; 0x30
20003930:	2909      	cmp	r1, #9
20003932:	d9f3      	bls.n	2000391c <_vfprintf_r+0x714>
20003934:	ea47 77e7 	orr.w	r7, r7, r7, asr #31
20003938:	461d      	mov	r5, r3
2000393a:	e511      	b.n	20003360 <_vfprintf_r+0x158>
2000393c:	990b      	ldr	r1, [sp, #44]	; 0x2c
2000393e:	462b      	mov	r3, r5
20003940:	9a0a      	ldr	r2, [sp, #40]	; 0x28
20003942:	f042 0280 	orr.w	r2, r2, #128	; 0x80
20003946:	920a      	str	r2, [sp, #40]	; 0x28
20003948:	782a      	ldrb	r2, [r5, #0]
2000394a:	910b      	str	r1, [sp, #44]	; 0x2c
2000394c:	e507      	b.n	2000335e <_vfprintf_r+0x156>
2000394e:	f1a2 0130 	sub.w	r1, r2, #48	; 0x30
20003952:	f04f 0800 	mov.w	r8, #0
20003956:	462b      	mov	r3, r5
20003958:	eb08 0888 	add.w	r8, r8, r8, lsl #2
2000395c:	f813 2b01 	ldrb.w	r2, [r3], #1
20003960:	eb01 0848 	add.w	r8, r1, r8, lsl #1
20003964:	f1a2 0130 	sub.w	r1, r2, #48	; 0x30
20003968:	461d      	mov	r5, r3
2000396a:	2909      	cmp	r1, #9
2000396c:	d9f3      	bls.n	20003956 <_vfprintf_r+0x74e>
2000396e:	f8cd 803c 	str.w	r8, [sp, #60]	; 0x3c
20003972:	461d      	mov	r5, r3
20003974:	e4f4      	b.n	20003360 <_vfprintf_r+0x158>
20003976:	9b0a      	ldr	r3, [sp, #40]	; 0x28
20003978:	9216      	str	r2, [sp, #88]	; 0x58
2000397a:	f043 0310 	orr.w	r3, r3, #16
2000397e:	930a      	str	r3, [sp, #40]	; 0x28
20003980:	f8dd c028 	ldr.w	ip, [sp, #40]	; 0x28
20003984:	f01c 0f20 	tst.w	ip, #32
20003988:	f000 815d 	beq.w	20003c46 <_vfprintf_r+0xa3e>
2000398c:	980b      	ldr	r0, [sp, #44]	; 0x2c
2000398e:	1dc3      	adds	r3, r0, #7
20003990:	f023 0307 	bic.w	r3, r3, #7
20003994:	f103 0108 	add.w	r1, r3, #8
20003998:	910b      	str	r1, [sp, #44]	; 0x2c
2000399a:	e9d3 ab00 	ldrd	sl, fp, [r3]
2000399e:	f1ba 0f00 	cmp.w	sl, #0
200039a2:	f17b 0200 	sbcs.w	r2, fp, #0
200039a6:	f2c0 849b 	blt.w	200042e0 <_vfprintf_r+0x10d8>
200039aa:	ea5a 030b 	orrs.w	r3, sl, fp
200039ae:	f04f 0301 	mov.w	r3, #1
200039b2:	bf0c      	ite	eq
200039b4:	2200      	moveq	r2, #0
200039b6:	2201      	movne	r2, #1
200039b8:	e5bc      	b.n	20003534 <_vfprintf_r+0x32c>
200039ba:	980a      	ldr	r0, [sp, #40]	; 0x28
200039bc:	9216      	str	r2, [sp, #88]	; 0x58
200039be:	f010 0f08 	tst.w	r0, #8
200039c2:	f000 84ed 	beq.w	200043a0 <_vfprintf_r+0x1198>
200039c6:	990b      	ldr	r1, [sp, #44]	; 0x2c
200039c8:	1dcb      	adds	r3, r1, #7
200039ca:	f023 0307 	bic.w	r3, r3, #7
200039ce:	f103 0208 	add.w	r2, r3, #8
200039d2:	920b      	str	r2, [sp, #44]	; 0x2c
200039d4:	f8d3 8004 	ldr.w	r8, [r3, #4]
200039d8:	f8d3 a000 	ldr.w	sl, [r3]
200039dc:	f8cd 806c 	str.w	r8, [sp, #108]	; 0x6c
200039e0:	f8cd a048 	str.w	sl, [sp, #72]	; 0x48
200039e4:	4650      	mov	r0, sl
200039e6:	4641      	mov	r1, r8
200039e8:	f004 f92e 	bl	20007c48 <__isinfd>
200039ec:	4683      	mov	fp, r0
200039ee:	2800      	cmp	r0, #0
200039f0:	f000 8599 	beq.w	20004526 <_vfprintf_r+0x131e>
200039f4:	4650      	mov	r0, sl
200039f6:	2200      	movs	r2, #0
200039f8:	2300      	movs	r3, #0
200039fa:	4641      	mov	r1, r8
200039fc:	f005 f924 	bl	20008c48 <__aeabi_dcmplt>
20003a00:	2800      	cmp	r0, #0
20003a02:	f040 850b 	bne.w	2000441c <_vfprintf_r+0x1214>
20003a06:	f89d 3577 	ldrb.w	r3, [sp, #1399]	; 0x577
20003a0a:	f249 6144 	movw	r1, #38468	; 0x9644
20003a0e:	f249 6240 	movw	r2, #38464	; 0x9640
20003a12:	9816      	ldr	r0, [sp, #88]	; 0x58
20003a14:	f2c2 0100 	movt	r1, #8192	; 0x2000
20003a18:	f2c2 0200 	movt	r2, #8192	; 0x2000
20003a1c:	f04f 0c03 	mov.w	ip, #3
20003a20:	2847      	cmp	r0, #71	; 0x47
20003a22:	bfd8      	it	le
20003a24:	4611      	movle	r1, r2
20003a26:	9113      	str	r1, [sp, #76]	; 0x4c
20003a28:	990a      	ldr	r1, [sp, #40]	; 0x28
20003a2a:	f8cd c030 	str.w	ip, [sp, #48]	; 0x30
20003a2e:	f021 0180 	bic.w	r1, r1, #128	; 0x80
20003a32:	f8cd c040 	str.w	ip, [sp, #64]	; 0x40
20003a36:	910a      	str	r1, [sp, #40]	; 0x28
20003a38:	f04f 0c00 	mov.w	ip, #0
20003a3c:	f8cd c05c 	str.w	ip, [sp, #92]	; 0x5c
20003a40:	e5b1      	b.n	200035a6 <_vfprintf_r+0x39e>
20003a42:	990b      	ldr	r1, [sp, #44]	; 0x2c
20003a44:	9b0a      	ldr	r3, [sp, #40]	; 0x28
20003a46:	f043 0308 	orr.w	r3, r3, #8
20003a4a:	930a      	str	r3, [sp, #40]	; 0x28
20003a4c:	462b      	mov	r3, r5
20003a4e:	782a      	ldrb	r2, [r5, #0]
20003a50:	910b      	str	r1, [sp, #44]	; 0x2c
20003a52:	e484      	b.n	2000335e <_vfprintf_r+0x156>
20003a54:	990a      	ldr	r1, [sp, #40]	; 0x28
20003a56:	f041 0140 	orr.w	r1, r1, #64	; 0x40
20003a5a:	910a      	str	r1, [sp, #40]	; 0x28
20003a5c:	990b      	ldr	r1, [sp, #44]	; 0x2c
20003a5e:	e73c      	b.n	200038da <_vfprintf_r+0x6d2>
20003a60:	782a      	ldrb	r2, [r5, #0]
20003a62:	2a6c      	cmp	r2, #108	; 0x6c
20003a64:	f000 8555 	beq.w	20004512 <_vfprintf_r+0x130a>
20003a68:	990b      	ldr	r1, [sp, #44]	; 0x2c
20003a6a:	9b0a      	ldr	r3, [sp, #40]	; 0x28
20003a6c:	910b      	str	r1, [sp, #44]	; 0x2c
20003a6e:	f043 0310 	orr.w	r3, r3, #16
20003a72:	930a      	str	r3, [sp, #40]	; 0x28
20003a74:	462b      	mov	r3, r5
20003a76:	e472      	b.n	2000335e <_vfprintf_r+0x156>
20003a78:	9a0a      	ldr	r2, [sp, #40]	; 0x28
20003a7a:	f012 0f20 	tst.w	r2, #32
20003a7e:	f000 8482 	beq.w	20004386 <_vfprintf_r+0x117e>
20003a82:	980b      	ldr	r0, [sp, #44]	; 0x2c
20003a84:	9a11      	ldr	r2, [sp, #68]	; 0x44
20003a86:	6803      	ldr	r3, [r0, #0]
20003a88:	4610      	mov	r0, r2
20003a8a:	ea4f 71e0 	mov.w	r1, r0, asr #31
20003a8e:	9a0b      	ldr	r2, [sp, #44]	; 0x2c
20003a90:	e9c3 0100 	strd	r0, r1, [r3]
20003a94:	f102 0a04 	add.w	sl, r2, #4
20003a98:	e41e      	b.n	200032d8 <_vfprintf_r+0xd0>
20003a9a:	9216      	str	r2, [sp, #88]	; 0x58
20003a9c:	9a0a      	ldr	r2, [sp, #40]	; 0x28
20003a9e:	f012 0320 	ands.w	r3, r2, #32
20003aa2:	f000 80ef 	beq.w	20003c84 <_vfprintf_r+0xa7c>
20003aa6:	9b0b      	ldr	r3, [sp, #44]	; 0x2c
20003aa8:	1dda      	adds	r2, r3, #7
20003aaa:	2300      	movs	r3, #0
20003aac:	f022 0207 	bic.w	r2, r2, #7
20003ab0:	f102 0c08 	add.w	ip, r2, #8
20003ab4:	f8cd c02c 	str.w	ip, [sp, #44]	; 0x2c
20003ab8:	e9d2 ab00 	ldrd	sl, fp, [r2]
20003abc:	ea5a 000b 	orrs.w	r0, sl, fp
20003ac0:	bf0c      	ite	eq
20003ac2:	2200      	moveq	r2, #0
20003ac4:	2201      	movne	r2, #1
20003ac6:	e531      	b.n	2000352c <_vfprintf_r+0x324>
20003ac8:	980b      	ldr	r0, [sp, #44]	; 0x2c
20003aca:	2178      	movs	r1, #120	; 0x78
20003acc:	f8dd c028 	ldr.w	ip, [sp, #40]	; 0x28
20003ad0:	9116      	str	r1, [sp, #88]	; 0x58
20003ad2:	6803      	ldr	r3, [r0, #0]
20003ad4:	f249 6050 	movw	r0, #38480	; 0x9650
20003ad8:	f88d 1575 	strb.w	r1, [sp, #1397]	; 0x575
20003adc:	2130      	movs	r1, #48	; 0x30
20003ade:	f88d 1574 	strb.w	r1, [sp, #1396]	; 0x574
20003ae2:	f04c 0c02 	orr.w	ip, ip, #2
20003ae6:	990b      	ldr	r1, [sp, #44]	; 0x2c
20003ae8:	1e1a      	subs	r2, r3, #0
20003aea:	bf18      	it	ne
20003aec:	2201      	movne	r2, #1
20003aee:	f2c2 0000 	movt	r0, #8192	; 0x2000
20003af2:	469a      	mov	sl, r3
20003af4:	f04f 0b00 	mov.w	fp, #0
20003af8:	3104      	adds	r1, #4
20003afa:	f8cd c028 	str.w	ip, [sp, #40]	; 0x28
20003afe:	9019      	str	r0, [sp, #100]	; 0x64
20003b00:	2302      	movs	r3, #2
20003b02:	910b      	str	r1, [sp, #44]	; 0x2c
20003b04:	e512      	b.n	2000352c <_vfprintf_r+0x324>
20003b06:	9b0b      	ldr	r3, [sp, #44]	; 0x2c
20003b08:	9216      	str	r2, [sp, #88]	; 0x58
20003b0a:	f04f 0200 	mov.w	r2, #0
20003b0e:	1d18      	adds	r0, r3, #4
20003b10:	f88d 2577 	strb.w	r2, [sp, #1399]	; 0x577
20003b14:	681b      	ldr	r3, [r3, #0]
20003b16:	900b      	str	r0, [sp, #44]	; 0x2c
20003b18:	9313      	str	r3, [sp, #76]	; 0x4c
20003b1a:	2b00      	cmp	r3, #0
20003b1c:	f000 86c6 	beq.w	200048ac <_vfprintf_r+0x16a4>
20003b20:	2f00      	cmp	r7, #0
20003b22:	9813      	ldr	r0, [sp, #76]	; 0x4c
20003b24:	f2c0 868f 	blt.w	20004846 <_vfprintf_r+0x163e>
20003b28:	2100      	movs	r1, #0
20003b2a:	463a      	mov	r2, r7
20003b2c:	f003 f8a4 	bl	20006c78 <memchr>
20003b30:	4603      	mov	r3, r0
20003b32:	2800      	cmp	r0, #0
20003b34:	f000 86f5 	beq.w	20004922 <_vfprintf_r+0x171a>
20003b38:	9813      	ldr	r0, [sp, #76]	; 0x4c
20003b3a:	1a1b      	subs	r3, r3, r0
20003b3c:	9310      	str	r3, [sp, #64]	; 0x40
20003b3e:	42bb      	cmp	r3, r7
20003b40:	f340 85be 	ble.w	200046c0 <_vfprintf_r+0x14b8>
20003b44:	9710      	str	r7, [sp, #64]	; 0x40
20003b46:	2100      	movs	r1, #0
20003b48:	ea27 77e7 	bic.w	r7, r7, r7, asr #31
20003b4c:	f89d 3577 	ldrb.w	r3, [sp, #1399]	; 0x577
20003b50:	970c      	str	r7, [sp, #48]	; 0x30
20003b52:	9117      	str	r1, [sp, #92]	; 0x5c
20003b54:	e527      	b.n	200035a6 <_vfprintf_r+0x39e>
20003b56:	f8dd c028 	ldr.w	ip, [sp, #40]	; 0x28
20003b5a:	9216      	str	r2, [sp, #88]	; 0x58
20003b5c:	f01c 0f20 	tst.w	ip, #32
20003b60:	d023      	beq.n	20003baa <_vfprintf_r+0x9a2>
20003b62:	980b      	ldr	r0, [sp, #44]	; 0x2c
20003b64:	2301      	movs	r3, #1
20003b66:	1dc2      	adds	r2, r0, #7
20003b68:	f022 0207 	bic.w	r2, r2, #7
20003b6c:	f102 0108 	add.w	r1, r2, #8
20003b70:	910b      	str	r1, [sp, #44]	; 0x2c
20003b72:	e9d2 ab00 	ldrd	sl, fp, [r2]
20003b76:	ea5a 020b 	orrs.w	r2, sl, fp
20003b7a:	bf0c      	ite	eq
20003b7c:	2200      	moveq	r2, #0
20003b7e:	2201      	movne	r2, #1
20003b80:	e4d4      	b.n	2000352c <_vfprintf_r+0x324>
20003b82:	990a      	ldr	r1, [sp, #40]	; 0x28
20003b84:	462b      	mov	r3, r5
20003b86:	f041 0120 	orr.w	r1, r1, #32
20003b8a:	910a      	str	r1, [sp, #40]	; 0x28
20003b8c:	990b      	ldr	r1, [sp, #44]	; 0x2c
20003b8e:	782a      	ldrb	r2, [r5, #0]
20003b90:	910b      	str	r1, [sp, #44]	; 0x2c
20003b92:	f7ff bbe4 	b.w	2000335e <_vfprintf_r+0x156>
20003b96:	9b0a      	ldr	r3, [sp, #40]	; 0x28
20003b98:	9216      	str	r2, [sp, #88]	; 0x58
20003b9a:	f043 0310 	orr.w	r3, r3, #16
20003b9e:	930a      	str	r3, [sp, #40]	; 0x28
20003ba0:	f8dd c028 	ldr.w	ip, [sp, #40]	; 0x28
20003ba4:	f01c 0f20 	tst.w	ip, #32
20003ba8:	d1db      	bne.n	20003b62 <_vfprintf_r+0x95a>
20003baa:	9b0a      	ldr	r3, [sp, #40]	; 0x28
20003bac:	f013 0f10 	tst.w	r3, #16
20003bb0:	f000 83d5 	beq.w	2000435e <_vfprintf_r+0x1156>
20003bb4:	980b      	ldr	r0, [sp, #44]	; 0x2c
20003bb6:	2301      	movs	r3, #1
20003bb8:	1d02      	adds	r2, r0, #4
20003bba:	920b      	str	r2, [sp, #44]	; 0x2c
20003bbc:	6801      	ldr	r1, [r0, #0]
20003bbe:	1e0a      	subs	r2, r1, #0
20003bc0:	bf18      	it	ne
20003bc2:	2201      	movne	r2, #1
20003bc4:	468a      	mov	sl, r1
20003bc6:	f04f 0b00 	mov.w	fp, #0
20003bca:	e4af      	b.n	2000352c <_vfprintf_r+0x324>
20003bcc:	980a      	ldr	r0, [sp, #40]	; 0x28
20003bce:	9216      	str	r2, [sp, #88]	; 0x58
20003bd0:	f249 622c 	movw	r2, #38444	; 0x962c
20003bd4:	f010 0f20 	tst.w	r0, #32
20003bd8:	f2c2 0200 	movt	r2, #8192	; 0x2000
20003bdc:	9219      	str	r2, [sp, #100]	; 0x64
20003bde:	f47f ac92 	bne.w	20003506 <_vfprintf_r+0x2fe>
20003be2:	9b0a      	ldr	r3, [sp, #40]	; 0x28
20003be4:	f013 0f10 	tst.w	r3, #16
20003be8:	f040 831a 	bne.w	20004220 <_vfprintf_r+0x1018>
20003bec:	9a0a      	ldr	r2, [sp, #40]	; 0x28
20003bee:	f012 0f40 	tst.w	r2, #64	; 0x40
20003bf2:	f000 8315 	beq.w	20004220 <_vfprintf_r+0x1018>
20003bf6:	9b0b      	ldr	r3, [sp, #44]	; 0x2c
20003bf8:	f103 0c04 	add.w	ip, r3, #4
20003bfc:	f8cd c02c 	str.w	ip, [sp, #44]	; 0x2c
20003c00:	f8b3 a000 	ldrh.w	sl, [r3]
20003c04:	46d2      	mov	sl, sl
20003c06:	f04f 0b00 	mov.w	fp, #0
20003c0a:	e485      	b.n	20003518 <_vfprintf_r+0x310>
20003c0c:	9216      	str	r2, [sp, #88]	; 0x58
20003c0e:	f50d 61a4 	add.w	r1, sp, #1312	; 0x520
20003c12:	9a0b      	ldr	r2, [sp, #44]	; 0x2c
20003c14:	f04f 0c01 	mov.w	ip, #1
20003c18:	f04f 0000 	mov.w	r0, #0
20003c1c:	3104      	adds	r1, #4
20003c1e:	f8cd c030 	str.w	ip, [sp, #48]	; 0x30
20003c22:	6813      	ldr	r3, [r2, #0]
20003c24:	3204      	adds	r2, #4
20003c26:	f88d 0577 	strb.w	r0, [sp, #1399]	; 0x577
20003c2a:	920b      	str	r2, [sp, #44]	; 0x2c
20003c2c:	9113      	str	r1, [sp, #76]	; 0x4c
20003c2e:	f8cd c040 	str.w	ip, [sp, #64]	; 0x40
20003c32:	f88d 3524 	strb.w	r3, [sp, #1316]	; 0x524
20003c36:	e62f      	b.n	20003898 <_vfprintf_r+0x690>
20003c38:	f8dd c028 	ldr.w	ip, [sp, #40]	; 0x28
20003c3c:	9216      	str	r2, [sp, #88]	; 0x58
20003c3e:	f01c 0f20 	tst.w	ip, #32
20003c42:	f47f aea3 	bne.w	2000398c <_vfprintf_r+0x784>
20003c46:	9a0a      	ldr	r2, [sp, #40]	; 0x28
20003c48:	f012 0f10 	tst.w	r2, #16
20003c4c:	f040 82f1 	bne.w	20004232 <_vfprintf_r+0x102a>
20003c50:	9a0a      	ldr	r2, [sp, #40]	; 0x28
20003c52:	f012 0f40 	tst.w	r2, #64	; 0x40
20003c56:	f000 82ec 	beq.w	20004232 <_vfprintf_r+0x102a>
20003c5a:	9b0b      	ldr	r3, [sp, #44]	; 0x2c
20003c5c:	f103 0c04 	add.w	ip, r3, #4
20003c60:	f8cd c02c 	str.w	ip, [sp, #44]	; 0x2c
20003c64:	f9b3 a000 	ldrsh.w	sl, [r3]
20003c68:	46d2      	mov	sl, sl
20003c6a:	ea4f 7bea 	mov.w	fp, sl, asr #31
20003c6e:	e696      	b.n	2000399e <_vfprintf_r+0x796>
20003c70:	990a      	ldr	r1, [sp, #40]	; 0x28
20003c72:	9216      	str	r2, [sp, #88]	; 0x58
20003c74:	f041 0110 	orr.w	r1, r1, #16
20003c78:	910a      	str	r1, [sp, #40]	; 0x28
20003c7a:	9a0a      	ldr	r2, [sp, #40]	; 0x28
20003c7c:	f012 0320 	ands.w	r3, r2, #32
20003c80:	f47f af11 	bne.w	20003aa6 <_vfprintf_r+0x89e>
20003c84:	990a      	ldr	r1, [sp, #40]	; 0x28
20003c86:	f011 0210 	ands.w	r2, r1, #16
20003c8a:	f000 8354 	beq.w	20004336 <_vfprintf_r+0x112e>
20003c8e:	9a0b      	ldr	r2, [sp, #44]	; 0x2c
20003c90:	f102 0c04 	add.w	ip, r2, #4
20003c94:	f8cd c02c 	str.w	ip, [sp, #44]	; 0x2c
20003c98:	6811      	ldr	r1, [r2, #0]
20003c9a:	1e0a      	subs	r2, r1, #0
20003c9c:	bf18      	it	ne
20003c9e:	2201      	movne	r2, #1
20003ca0:	468a      	mov	sl, r1
20003ca2:	f04f 0b00 	mov.w	fp, #0
20003ca6:	e441      	b.n	2000352c <_vfprintf_r+0x324>
20003ca8:	9a16      	ldr	r2, [sp, #88]	; 0x58
20003caa:	2a65      	cmp	r2, #101	; 0x65
20003cac:	f340 8128 	ble.w	20003f00 <_vfprintf_r+0xcf8>
20003cb0:	9812      	ldr	r0, [sp, #72]	; 0x48
20003cb2:	2200      	movs	r2, #0
20003cb4:	2300      	movs	r3, #0
20003cb6:	991b      	ldr	r1, [sp, #108]	; 0x6c
20003cb8:	f004 ffbc 	bl	20008c34 <__aeabi_dcmpeq>
20003cbc:	2800      	cmp	r0, #0
20003cbe:	f000 81be 	beq.w	2000403e <_vfprintf_r+0xe36>
20003cc2:	2301      	movs	r3, #1
20003cc4:	6063      	str	r3, [r4, #4]
20003cc6:	f8dd 2550 	ldr.w	r2, [sp, #1360]	; 0x550
20003cca:	f249 636c 	movw	r3, #38508	; 0x966c
20003cce:	f2c2 0300 	movt	r3, #8192	; 0x2000
20003cd2:	6023      	str	r3, [r4, #0]
20003cd4:	f8dd 3554 	ldr.w	r3, [sp, #1364]	; 0x554
20003cd8:	3201      	adds	r2, #1
20003cda:	f8cd 2550 	str.w	r2, [sp, #1360]	; 0x550
20003cde:	3301      	adds	r3, #1
20003ce0:	2a07      	cmp	r2, #7
20003ce2:	f8cd 3554 	str.w	r3, [sp, #1364]	; 0x554
20003ce6:	bfd8      	it	le
20003ce8:	f104 0308 	addle.w	r3, r4, #8
20003cec:	f300 839b 	bgt.w	20004426 <_vfprintf_r+0x121e>
20003cf0:	f8dd 2570 	ldr.w	r2, [sp, #1392]	; 0x570
20003cf4:	981a      	ldr	r0, [sp, #104]	; 0x68
20003cf6:	4282      	cmp	r2, r0
20003cf8:	db04      	blt.n	20003d04 <_vfprintf_r+0xafc>
20003cfa:	990a      	ldr	r1, [sp, #40]	; 0x28
20003cfc:	f011 0f01 	tst.w	r1, #1
20003d00:	f43f ad49 	beq.w	20003796 <_vfprintf_r+0x58e>
20003d04:	2201      	movs	r2, #1
20003d06:	605a      	str	r2, [r3, #4]
20003d08:	f8dd 2550 	ldr.w	r2, [sp, #1360]	; 0x550
20003d0c:	f8dd 1554 	ldr.w	r1, [sp, #1364]	; 0x554
20003d10:	3201      	adds	r2, #1
20003d12:	981d      	ldr	r0, [sp, #116]	; 0x74
20003d14:	3101      	adds	r1, #1
20003d16:	2a07      	cmp	r2, #7
20003d18:	f8cd 1554 	str.w	r1, [sp, #1364]	; 0x554
20003d1c:	6018      	str	r0, [r3, #0]
20003d1e:	f8cd 2550 	str.w	r2, [sp, #1360]	; 0x550
20003d22:	f300 855f 	bgt.w	200047e4 <_vfprintf_r+0x15dc>
20003d26:	3308      	adds	r3, #8
20003d28:	991a      	ldr	r1, [sp, #104]	; 0x68
20003d2a:	1e4f      	subs	r7, r1, #1
20003d2c:	2f00      	cmp	r7, #0
20003d2e:	f77f ad32 	ble.w	20003796 <_vfprintf_r+0x58e>
20003d32:	2f10      	cmp	r7, #16
20003d34:	f8df 8534 	ldr.w	r8, [pc, #1332]	; 2000426c <_vfprintf_r+0x1064>
20003d38:	f340 82ea 	ble.w	20004310 <_vfprintf_r+0x1108>
20003d3c:	4642      	mov	r2, r8
20003d3e:	f50d 6aa8 	add.w	sl, sp, #1344	; 0x540
20003d42:	46a8      	mov	r8, r5
20003d44:	2410      	movs	r4, #16
20003d46:	f10a 0a0c 	add.w	sl, sl, #12
20003d4a:	4615      	mov	r5, r2
20003d4c:	e003      	b.n	20003d56 <_vfprintf_r+0xb4e>
20003d4e:	3f10      	subs	r7, #16
20003d50:	2f10      	cmp	r7, #16
20003d52:	f340 82da 	ble.w	2000430a <_vfprintf_r+0x1102>
20003d56:	605c      	str	r4, [r3, #4]
20003d58:	f8dd 2550 	ldr.w	r2, [sp, #1360]	; 0x550
20003d5c:	f8dd 1554 	ldr.w	r1, [sp, #1364]	; 0x554
20003d60:	3201      	adds	r2, #1
20003d62:	601d      	str	r5, [r3, #0]
20003d64:	3110      	adds	r1, #16
20003d66:	2a07      	cmp	r2, #7
20003d68:	f8cd 1554 	str.w	r1, [sp, #1364]	; 0x554
20003d6c:	f103 0308 	add.w	r3, r3, #8
20003d70:	f8cd 2550 	str.w	r2, [sp, #1360]	; 0x550
20003d74:	ddeb      	ble.n	20003d4e <_vfprintf_r+0xb46>
20003d76:	4648      	mov	r0, r9
20003d78:	4631      	mov	r1, r6
20003d7a:	4652      	mov	r2, sl
20003d7c:	f7ff fa36 	bl	200031ec <__sprint_r>
20003d80:	f50d 639c 	add.w	r3, sp, #1248	; 0x4e0
20003d84:	3304      	adds	r3, #4
20003d86:	2800      	cmp	r0, #0
20003d88:	d0e1      	beq.n	20003d4e <_vfprintf_r+0xb46>
20003d8a:	f7ff bb5d 	b.w	20003448 <_vfprintf_r+0x240>
20003d8e:	b97b      	cbnz	r3, 20003db0 <_vfprintf_r+0xba8>
20003d90:	990a      	ldr	r1, [sp, #40]	; 0x28
20003d92:	f011 0f01 	tst.w	r1, #1
20003d96:	d00b      	beq.n	20003db0 <_vfprintf_r+0xba8>
20003d98:	f50d 62a4 	add.w	r2, sp, #1312	; 0x520
20003d9c:	2330      	movs	r3, #48	; 0x30
20003d9e:	3204      	adds	r2, #4
20003da0:	f88d 354b 	strb.w	r3, [sp, #1355]	; 0x54b
20003da4:	3227      	adds	r2, #39	; 0x27
20003da6:	2301      	movs	r3, #1
20003da8:	9213      	str	r2, [sp, #76]	; 0x4c
20003daa:	9310      	str	r3, [sp, #64]	; 0x40
20003dac:	f7ff bbf3 	b.w	20003596 <_vfprintf_r+0x38e>
20003db0:	9818      	ldr	r0, [sp, #96]	; 0x60
20003db2:	2100      	movs	r1, #0
20003db4:	9110      	str	r1, [sp, #64]	; 0x40
20003db6:	9013      	str	r0, [sp, #76]	; 0x4c
20003db8:	f7ff bbed 	b.w	20003596 <_vfprintf_r+0x38e>
20003dbc:	980f      	ldr	r0, [sp, #60]	; 0x3c
20003dbe:	990c      	ldr	r1, [sp, #48]	; 0x30
20003dc0:	1a47      	subs	r7, r0, r1
20003dc2:	2f00      	cmp	r7, #0
20003dc4:	f77f ac84 	ble.w	200036d0 <_vfprintf_r+0x4c8>
20003dc8:	2f10      	cmp	r7, #16
20003dca:	f8df 84a0 	ldr.w	r8, [pc, #1184]	; 2000426c <_vfprintf_r+0x1064>
20003dce:	dd2e      	ble.n	20003e2e <_vfprintf_r+0xc26>
20003dd0:	4643      	mov	r3, r8
20003dd2:	f50d 6ba8 	add.w	fp, sp, #1344	; 0x540
20003dd6:	46a8      	mov	r8, r5
20003dd8:	f04f 0a10 	mov.w	sl, #16
20003ddc:	f10b 0b0c 	add.w	fp, fp, #12
20003de0:	461d      	mov	r5, r3
20003de2:	e002      	b.n	20003dea <_vfprintf_r+0xbe2>
20003de4:	3f10      	subs	r7, #16
20003de6:	2f10      	cmp	r7, #16
20003de8:	dd1e      	ble.n	20003e28 <_vfprintf_r+0xc20>
20003dea:	f8c4 a004 	str.w	sl, [r4, #4]
20003dee:	f8dd 3550 	ldr.w	r3, [sp, #1360]	; 0x550
20003df2:	f8dd 2554 	ldr.w	r2, [sp, #1364]	; 0x554
20003df6:	3301      	adds	r3, #1
20003df8:	6025      	str	r5, [r4, #0]
20003dfa:	3210      	adds	r2, #16
20003dfc:	2b07      	cmp	r3, #7
20003dfe:	f8cd 2554 	str.w	r2, [sp, #1364]	; 0x554
20003e02:	f104 0408 	add.w	r4, r4, #8
20003e06:	f8cd 3550 	str.w	r3, [sp, #1360]	; 0x550
20003e0a:	ddeb      	ble.n	20003de4 <_vfprintf_r+0xbdc>
20003e0c:	f50d 649c 	add.w	r4, sp, #1248	; 0x4e0
20003e10:	4648      	mov	r0, r9
20003e12:	4631      	mov	r1, r6
20003e14:	465a      	mov	r2, fp
20003e16:	3404      	adds	r4, #4
20003e18:	f7ff f9e8 	bl	200031ec <__sprint_r>
20003e1c:	2800      	cmp	r0, #0
20003e1e:	f47f ab13 	bne.w	20003448 <_vfprintf_r+0x240>
20003e22:	3f10      	subs	r7, #16
20003e24:	2f10      	cmp	r7, #16
20003e26:	dce0      	bgt.n	20003dea <_vfprintf_r+0xbe2>
20003e28:	462b      	mov	r3, r5
20003e2a:	4645      	mov	r5, r8
20003e2c:	4698      	mov	r8, r3
20003e2e:	6067      	str	r7, [r4, #4]
20003e30:	f8dd 3550 	ldr.w	r3, [sp, #1360]	; 0x550
20003e34:	f8c4 8000 	str.w	r8, [r4]
20003e38:	1c5a      	adds	r2, r3, #1
20003e3a:	f8dd 3554 	ldr.w	r3, [sp, #1364]	; 0x554
20003e3e:	f8cd 2550 	str.w	r2, [sp, #1360]	; 0x550
20003e42:	19db      	adds	r3, r3, r7
20003e44:	2a07      	cmp	r2, #7
20003e46:	f8cd 3554 	str.w	r3, [sp, #1364]	; 0x554
20003e4a:	f300 823a 	bgt.w	200042c2 <_vfprintf_r+0x10ba>
20003e4e:	3408      	adds	r4, #8
20003e50:	e43e      	b.n	200036d0 <_vfprintf_r+0x4c8>
20003e52:	9913      	ldr	r1, [sp, #76]	; 0x4c
20003e54:	6063      	str	r3, [r4, #4]
20003e56:	f8dd 2550 	ldr.w	r2, [sp, #1360]	; 0x550
20003e5a:	6021      	str	r1, [r4, #0]
20003e5c:	f8dd 1554 	ldr.w	r1, [sp, #1364]	; 0x554
20003e60:	3201      	adds	r2, #1
20003e62:	f8cd 2550 	str.w	r2, [sp, #1360]	; 0x550
20003e66:	18cb      	adds	r3, r1, r3
20003e68:	2a07      	cmp	r2, #7
20003e6a:	f8cd 3554 	str.w	r3, [sp, #1364]	; 0x554
20003e6e:	f300 8549 	bgt.w	20004904 <_vfprintf_r+0x16fc>
20003e72:	3408      	adds	r4, #8
20003e74:	9a1d      	ldr	r2, [sp, #116]	; 0x74
20003e76:	2301      	movs	r3, #1
20003e78:	f8dd 7570 	ldr.w	r7, [sp, #1392]	; 0x570
20003e7c:	6063      	str	r3, [r4, #4]
20003e7e:	f8dd 3550 	ldr.w	r3, [sp, #1360]	; 0x550
20003e82:	6022      	str	r2, [r4, #0]
20003e84:	f8dd 2554 	ldr.w	r2, [sp, #1364]	; 0x554
20003e88:	3301      	adds	r3, #1
20003e8a:	f8cd 3550 	str.w	r3, [sp, #1360]	; 0x550
20003e8e:	3201      	adds	r2, #1
20003e90:	2b07      	cmp	r3, #7
20003e92:	f8cd 2554 	str.w	r2, [sp, #1364]	; 0x554
20003e96:	bfd8      	it	le
20003e98:	f104 0308 	addle.w	r3, r4, #8
20003e9c:	f300 8523 	bgt.w	200048e6 <_vfprintf_r+0x16de>
20003ea0:	9813      	ldr	r0, [sp, #76]	; 0x4c
20003ea2:	f8dd 2570 	ldr.w	r2, [sp, #1392]	; 0x570
20003ea6:	19c7      	adds	r7, r0, r7
20003ea8:	981a      	ldr	r0, [sp, #104]	; 0x68
20003eaa:	601f      	str	r7, [r3, #0]
20003eac:	1a81      	subs	r1, r0, r2
20003eae:	6059      	str	r1, [r3, #4]
20003eb0:	f8dd 1554 	ldr.w	r1, [sp, #1364]	; 0x554
20003eb4:	1a8a      	subs	r2, r1, r2
20003eb6:	f8dd 1550 	ldr.w	r1, [sp, #1360]	; 0x550
20003eba:	1812      	adds	r2, r2, r0
20003ebc:	f8cd 2554 	str.w	r2, [sp, #1364]	; 0x554
20003ec0:	3101      	adds	r1, #1
20003ec2:	f8cd 1550 	str.w	r1, [sp, #1360]	; 0x550
20003ec6:	2907      	cmp	r1, #7
20003ec8:	f340 8232 	ble.w	20004330 <_vfprintf_r+0x1128>
20003ecc:	f50d 62a8 	add.w	r2, sp, #1344	; 0x540
20003ed0:	4648      	mov	r0, r9
20003ed2:	4631      	mov	r1, r6
20003ed4:	320c      	adds	r2, #12
20003ed6:	f7ff f989 	bl	200031ec <__sprint_r>
20003eda:	2800      	cmp	r0, #0
20003edc:	f47f aab4 	bne.w	20003448 <_vfprintf_r+0x240>
20003ee0:	f50d 639c 	add.w	r3, sp, #1248	; 0x4e0
20003ee4:	3304      	adds	r3, #4
20003ee6:	e456      	b.n	20003796 <_vfprintf_r+0x58e>
20003ee8:	f50d 62a8 	add.w	r2, sp, #1344	; 0x540
20003eec:	4648      	mov	r0, r9
20003eee:	4631      	mov	r1, r6
20003ef0:	320c      	adds	r2, #12
20003ef2:	f7ff f97b 	bl	200031ec <__sprint_r>
20003ef6:	2800      	cmp	r0, #0
20003ef8:	f43f acb4 	beq.w	20003864 <_vfprintf_r+0x65c>
20003efc:	f7ff baa4 	b.w	20003448 <_vfprintf_r+0x240>
20003f00:	991a      	ldr	r1, [sp, #104]	; 0x68
20003f02:	2901      	cmp	r1, #1
20003f04:	dd4c      	ble.n	20003fa0 <_vfprintf_r+0xd98>
20003f06:	2301      	movs	r3, #1
20003f08:	6063      	str	r3, [r4, #4]
20003f0a:	f8dd 3550 	ldr.w	r3, [sp, #1360]	; 0x550
20003f0e:	f8dd 2554 	ldr.w	r2, [sp, #1364]	; 0x554
20003f12:	3301      	adds	r3, #1
20003f14:	9813      	ldr	r0, [sp, #76]	; 0x4c
20003f16:	3201      	adds	r2, #1
20003f18:	2b07      	cmp	r3, #7
20003f1a:	f8cd 2554 	str.w	r2, [sp, #1364]	; 0x554
20003f1e:	6020      	str	r0, [r4, #0]
20003f20:	f8cd 3550 	str.w	r3, [sp, #1360]	; 0x550
20003f24:	f300 81b2 	bgt.w	2000428c <_vfprintf_r+0x1084>
20003f28:	3408      	adds	r4, #8
20003f2a:	2301      	movs	r3, #1
20003f2c:	6063      	str	r3, [r4, #4]
20003f2e:	f8dd 3550 	ldr.w	r3, [sp, #1360]	; 0x550
20003f32:	f8dd 2554 	ldr.w	r2, [sp, #1364]	; 0x554
20003f36:	3301      	adds	r3, #1
20003f38:	991d      	ldr	r1, [sp, #116]	; 0x74
20003f3a:	3201      	adds	r2, #1
20003f3c:	2b07      	cmp	r3, #7
20003f3e:	f8cd 2554 	str.w	r2, [sp, #1364]	; 0x554
20003f42:	6021      	str	r1, [r4, #0]
20003f44:	f8cd 3550 	str.w	r3, [sp, #1360]	; 0x550
20003f48:	f300 8192 	bgt.w	20004270 <_vfprintf_r+0x1068>
20003f4c:	3408      	adds	r4, #8
20003f4e:	9812      	ldr	r0, [sp, #72]	; 0x48
20003f50:	2200      	movs	r2, #0
20003f52:	2300      	movs	r3, #0
20003f54:	991b      	ldr	r1, [sp, #108]	; 0x6c
20003f56:	f004 fe6d 	bl	20008c34 <__aeabi_dcmpeq>
20003f5a:	2800      	cmp	r0, #0
20003f5c:	f040 811d 	bne.w	2000419a <_vfprintf_r+0xf92>
20003f60:	9b1a      	ldr	r3, [sp, #104]	; 0x68
20003f62:	9813      	ldr	r0, [sp, #76]	; 0x4c
20003f64:	1e5a      	subs	r2, r3, #1
20003f66:	6062      	str	r2, [r4, #4]
20003f68:	f8dd 3550 	ldr.w	r3, [sp, #1360]	; 0x550
20003f6c:	1c41      	adds	r1, r0, #1
20003f6e:	6021      	str	r1, [r4, #0]
20003f70:	f8dd 1554 	ldr.w	r1, [sp, #1364]	; 0x554
20003f74:	3301      	adds	r3, #1
20003f76:	f8cd 3550 	str.w	r3, [sp, #1360]	; 0x550
20003f7a:	188a      	adds	r2, r1, r2
20003f7c:	2b07      	cmp	r3, #7
20003f7e:	f8cd 2554 	str.w	r2, [sp, #1364]	; 0x554
20003f82:	dc21      	bgt.n	20003fc8 <_vfprintf_r+0xdc0>
20003f84:	3408      	adds	r4, #8
20003f86:	9b1c      	ldr	r3, [sp, #112]	; 0x70
20003f88:	f50d 62ac 	add.w	r2, sp, #1376	; 0x560
20003f8c:	981c      	ldr	r0, [sp, #112]	; 0x70
20003f8e:	6022      	str	r2, [r4, #0]
20003f90:	6063      	str	r3, [r4, #4]
20003f92:	f8dd 3550 	ldr.w	r3, [sp, #1360]	; 0x550
20003f96:	f8dd 2554 	ldr.w	r2, [sp, #1364]	; 0x554
20003f9a:	3301      	adds	r3, #1
20003f9c:	f7ff bbf0 	b.w	20003780 <_vfprintf_r+0x578>
20003fa0:	9a0a      	ldr	r2, [sp, #40]	; 0x28
20003fa2:	f012 0f01 	tst.w	r2, #1
20003fa6:	d1ae      	bne.n	20003f06 <_vfprintf_r+0xcfe>
20003fa8:	9a13      	ldr	r2, [sp, #76]	; 0x4c
20003faa:	2301      	movs	r3, #1
20003fac:	6063      	str	r3, [r4, #4]
20003fae:	f8dd 3550 	ldr.w	r3, [sp, #1360]	; 0x550
20003fb2:	6022      	str	r2, [r4, #0]
20003fb4:	f8dd 2554 	ldr.w	r2, [sp, #1364]	; 0x554
20003fb8:	3301      	adds	r3, #1
20003fba:	f8cd 3550 	str.w	r3, [sp, #1360]	; 0x550
20003fbe:	3201      	adds	r2, #1
20003fc0:	2b07      	cmp	r3, #7
20003fc2:	f8cd 2554 	str.w	r2, [sp, #1364]	; 0x554
20003fc6:	dddd      	ble.n	20003f84 <_vfprintf_r+0xd7c>
20003fc8:	f50d 62a8 	add.w	r2, sp, #1344	; 0x540
20003fcc:	4648      	mov	r0, r9
20003fce:	4631      	mov	r1, r6
20003fd0:	320c      	adds	r2, #12
20003fd2:	f7ff f90b 	bl	200031ec <__sprint_r>
20003fd6:	2800      	cmp	r0, #0
20003fd8:	f47f aa36 	bne.w	20003448 <_vfprintf_r+0x240>
20003fdc:	f50d 649c 	add.w	r4, sp, #1248	; 0x4e0
20003fe0:	3404      	adds	r4, #4
20003fe2:	e7d0      	b.n	20003f86 <_vfprintf_r+0xd7e>
20003fe4:	f50d 62a8 	add.w	r2, sp, #1344	; 0x540
20003fe8:	4648      	mov	r0, r9
20003fea:	4631      	mov	r1, r6
20003fec:	320c      	adds	r2, #12
20003fee:	f7ff f8fd 	bl	200031ec <__sprint_r>
20003ff2:	2800      	cmp	r0, #0
20003ff4:	f47f aa28 	bne.w	20003448 <_vfprintf_r+0x240>
20003ff8:	f50d 649c 	add.w	r4, sp, #1248	; 0x4e0
20003ffc:	3404      	adds	r4, #4
20003ffe:	f7ff bbb0 	b.w	20003762 <_vfprintf_r+0x55a>
20004002:	f50d 62a8 	add.w	r2, sp, #1344	; 0x540
20004006:	4648      	mov	r0, r9
20004008:	4631      	mov	r1, r6
2000400a:	320c      	adds	r2, #12
2000400c:	f7ff f8ee 	bl	200031ec <__sprint_r>
20004010:	2800      	cmp	r0, #0
20004012:	f47f aa19 	bne.w	20003448 <_vfprintf_r+0x240>
20004016:	f50d 649c 	add.w	r4, sp, #1248	; 0x4e0
2000401a:	3404      	adds	r4, #4
2000401c:	f7ff bb3c 	b.w	20003698 <_vfprintf_r+0x490>
20004020:	f50d 62a8 	add.w	r2, sp, #1344	; 0x540
20004024:	4648      	mov	r0, r9
20004026:	4631      	mov	r1, r6
20004028:	320c      	adds	r2, #12
2000402a:	f7ff f8df 	bl	200031ec <__sprint_r>
2000402e:	2800      	cmp	r0, #0
20004030:	f47f aa0a 	bne.w	20003448 <_vfprintf_r+0x240>
20004034:	f50d 649c 	add.w	r4, sp, #1248	; 0x4e0
20004038:	3404      	adds	r4, #4
2000403a:	f7ff bb43 	b.w	200036c4 <_vfprintf_r+0x4bc>
2000403e:	f8dd 3570 	ldr.w	r3, [sp, #1392]	; 0x570
20004042:	2b00      	cmp	r3, #0
20004044:	f340 81fd 	ble.w	20004442 <_vfprintf_r+0x123a>
20004048:	991a      	ldr	r1, [sp, #104]	; 0x68
2000404a:	428b      	cmp	r3, r1
2000404c:	f6ff af01 	blt.w	20003e52 <_vfprintf_r+0xc4a>
20004050:	9a13      	ldr	r2, [sp, #76]	; 0x4c
20004052:	6061      	str	r1, [r4, #4]
20004054:	f8dd 3550 	ldr.w	r3, [sp, #1360]	; 0x550
20004058:	6022      	str	r2, [r4, #0]
2000405a:	f8dd 2554 	ldr.w	r2, [sp, #1364]	; 0x554
2000405e:	3301      	adds	r3, #1
20004060:	f8cd 3550 	str.w	r3, [sp, #1360]	; 0x550
20004064:	1852      	adds	r2, r2, r1
20004066:	2b07      	cmp	r3, #7
20004068:	f8cd 2554 	str.w	r2, [sp, #1364]	; 0x554
2000406c:	bfd8      	it	le
2000406e:	f104 0308 	addle.w	r3, r4, #8
20004072:	f300 8429 	bgt.w	200048c8 <_vfprintf_r+0x16c0>
20004076:	f8dd 4570 	ldr.w	r4, [sp, #1392]	; 0x570
2000407a:	981a      	ldr	r0, [sp, #104]	; 0x68
2000407c:	1a24      	subs	r4, r4, r0
2000407e:	2c00      	cmp	r4, #0
20004080:	f340 81b3 	ble.w	200043ea <_vfprintf_r+0x11e2>
20004084:	2c10      	cmp	r4, #16
20004086:	f8df 81e4 	ldr.w	r8, [pc, #484]	; 2000426c <_vfprintf_r+0x1064>
2000408a:	f340 819d 	ble.w	200043c8 <_vfprintf_r+0x11c0>
2000408e:	4642      	mov	r2, r8
20004090:	f50d 6aa8 	add.w	sl, sp, #1344	; 0x540
20004094:	46a8      	mov	r8, r5
20004096:	2710      	movs	r7, #16
20004098:	f10a 0a0c 	add.w	sl, sl, #12
2000409c:	4615      	mov	r5, r2
2000409e:	e003      	b.n	200040a8 <_vfprintf_r+0xea0>
200040a0:	3c10      	subs	r4, #16
200040a2:	2c10      	cmp	r4, #16
200040a4:	f340 818d 	ble.w	200043c2 <_vfprintf_r+0x11ba>
200040a8:	605f      	str	r7, [r3, #4]
200040aa:	f8dd 2550 	ldr.w	r2, [sp, #1360]	; 0x550
200040ae:	f8dd 1554 	ldr.w	r1, [sp, #1364]	; 0x554
200040b2:	3201      	adds	r2, #1
200040b4:	601d      	str	r5, [r3, #0]
200040b6:	3110      	adds	r1, #16
200040b8:	2a07      	cmp	r2, #7
200040ba:	f8cd 1554 	str.w	r1, [sp, #1364]	; 0x554
200040be:	f103 0308 	add.w	r3, r3, #8
200040c2:	f8cd 2550 	str.w	r2, [sp, #1360]	; 0x550
200040c6:	ddeb      	ble.n	200040a0 <_vfprintf_r+0xe98>
200040c8:	4648      	mov	r0, r9
200040ca:	4631      	mov	r1, r6
200040cc:	4652      	mov	r2, sl
200040ce:	f7ff f88d 	bl	200031ec <__sprint_r>
200040d2:	f50d 639c 	add.w	r3, sp, #1248	; 0x4e0
200040d6:	3304      	adds	r3, #4
200040d8:	2800      	cmp	r0, #0
200040da:	d0e1      	beq.n	200040a0 <_vfprintf_r+0xe98>
200040dc:	f7ff b9b4 	b.w	20003448 <_vfprintf_r+0x240>
200040e0:	9a18      	ldr	r2, [sp, #96]	; 0x60
200040e2:	9819      	ldr	r0, [sp, #100]	; 0x64
200040e4:	4613      	mov	r3, r2
200040e6:	9213      	str	r2, [sp, #76]	; 0x4c
200040e8:	f00a 020f 	and.w	r2, sl, #15
200040ec:	ea4f 111a 	mov.w	r1, sl, lsr #4
200040f0:	ea41 710b 	orr.w	r1, r1, fp, lsl #28
200040f4:	ea4f 1c1b 	mov.w	ip, fp, lsr #4
200040f8:	5c82      	ldrb	r2, [r0, r2]
200040fa:	468a      	mov	sl, r1
200040fc:	46e3      	mov	fp, ip
200040fe:	ea5a 0c0b 	orrs.w	ip, sl, fp
20004102:	f803 2d01 	strb.w	r2, [r3, #-1]!
20004106:	d1ef      	bne.n	200040e8 <_vfprintf_r+0xee0>
20004108:	9818      	ldr	r0, [sp, #96]	; 0x60
2000410a:	9313      	str	r3, [sp, #76]	; 0x4c
2000410c:	1ac0      	subs	r0, r0, r3
2000410e:	9010      	str	r0, [sp, #64]	; 0x40
20004110:	f7ff ba41 	b.w	20003596 <_vfprintf_r+0x38e>
20004114:	2209      	movs	r2, #9
20004116:	2300      	movs	r3, #0
20004118:	4552      	cmp	r2, sl
2000411a:	eb73 000b 	sbcs.w	r0, r3, fp
2000411e:	f8dd 8060 	ldr.w	r8, [sp, #96]	; 0x60
20004122:	d21f      	bcs.n	20004164 <_vfprintf_r+0xf5c>
20004124:	4623      	mov	r3, r4
20004126:	4644      	mov	r4, r8
20004128:	46b8      	mov	r8, r7
2000412a:	461f      	mov	r7, r3
2000412c:	4650      	mov	r0, sl
2000412e:	4659      	mov	r1, fp
20004130:	220a      	movs	r2, #10
20004132:	2300      	movs	r3, #0
20004134:	f004 fdd8 	bl	20008ce8 <__aeabi_uldivmod>
20004138:	2300      	movs	r3, #0
2000413a:	4650      	mov	r0, sl
2000413c:	4659      	mov	r1, fp
2000413e:	f102 0c30 	add.w	ip, r2, #48	; 0x30
20004142:	220a      	movs	r2, #10
20004144:	f804 cd01 	strb.w	ip, [r4, #-1]!
20004148:	f004 fdce 	bl	20008ce8 <__aeabi_uldivmod>
2000414c:	2209      	movs	r2, #9
2000414e:	2300      	movs	r3, #0
20004150:	4682      	mov	sl, r0
20004152:	468b      	mov	fp, r1
20004154:	4552      	cmp	r2, sl
20004156:	eb73 030b 	sbcs.w	r3, r3, fp
2000415a:	d3e7      	bcc.n	2000412c <_vfprintf_r+0xf24>
2000415c:	463b      	mov	r3, r7
2000415e:	4647      	mov	r7, r8
20004160:	46a0      	mov	r8, r4
20004162:	461c      	mov	r4, r3
20004164:	f108 30ff 	add.w	r0, r8, #4294967295
20004168:	f10a 0a30 	add.w	sl, sl, #48	; 0x30
2000416c:	9013      	str	r0, [sp, #76]	; 0x4c
2000416e:	f808 ac01 	strb.w	sl, [r8, #-1]
20004172:	9918      	ldr	r1, [sp, #96]	; 0x60
20004174:	1a09      	subs	r1, r1, r0
20004176:	9110      	str	r1, [sp, #64]	; 0x40
20004178:	f7ff ba0d 	b.w	20003596 <_vfprintf_r+0x38e>
2000417c:	f50d 62a8 	add.w	r2, sp, #1344	; 0x540
20004180:	4648      	mov	r0, r9
20004182:	4631      	mov	r1, r6
20004184:	320c      	adds	r2, #12
20004186:	f7ff f831 	bl	200031ec <__sprint_r>
2000418a:	2800      	cmp	r0, #0
2000418c:	f47f a95c 	bne.w	20003448 <_vfprintf_r+0x240>
20004190:	f50d 649c 	add.w	r4, sp, #1248	; 0x4e0
20004194:	3404      	adds	r4, #4
20004196:	f7ff ba68 	b.w	2000366a <_vfprintf_r+0x462>
2000419a:	991a      	ldr	r1, [sp, #104]	; 0x68
2000419c:	1e4f      	subs	r7, r1, #1
2000419e:	2f00      	cmp	r7, #0
200041a0:	f77f aef1 	ble.w	20003f86 <_vfprintf_r+0xd7e>
200041a4:	2f10      	cmp	r7, #16
200041a6:	f8df 80c4 	ldr.w	r8, [pc, #196]	; 2000426c <_vfprintf_r+0x1064>
200041aa:	dd4e      	ble.n	2000424a <_vfprintf_r+0x1042>
200041ac:	4643      	mov	r3, r8
200041ae:	f50d 6ba8 	add.w	fp, sp, #1344	; 0x540
200041b2:	46a8      	mov	r8, r5
200041b4:	f04f 0a10 	mov.w	sl, #16
200041b8:	f10b 0b0c 	add.w	fp, fp, #12
200041bc:	461d      	mov	r5, r3
200041be:	e002      	b.n	200041c6 <_vfprintf_r+0xfbe>
200041c0:	3f10      	subs	r7, #16
200041c2:	2f10      	cmp	r7, #16
200041c4:	dd3e      	ble.n	20004244 <_vfprintf_r+0x103c>
200041c6:	f8c4 a004 	str.w	sl, [r4, #4]
200041ca:	f8dd 3550 	ldr.w	r3, [sp, #1360]	; 0x550
200041ce:	f8dd 2554 	ldr.w	r2, [sp, #1364]	; 0x554
200041d2:	3301      	adds	r3, #1
200041d4:	6025      	str	r5, [r4, #0]
200041d6:	3210      	adds	r2, #16
200041d8:	2b07      	cmp	r3, #7
200041da:	f8cd 2554 	str.w	r2, [sp, #1364]	; 0x554
200041de:	f104 0408 	add.w	r4, r4, #8
200041e2:	f8cd 3550 	str.w	r3, [sp, #1360]	; 0x550
200041e6:	ddeb      	ble.n	200041c0 <_vfprintf_r+0xfb8>
200041e8:	f50d 649c 	add.w	r4, sp, #1248	; 0x4e0
200041ec:	4648      	mov	r0, r9
200041ee:	4631      	mov	r1, r6
200041f0:	465a      	mov	r2, fp
200041f2:	3404      	adds	r4, #4
200041f4:	f7fe fffa 	bl	200031ec <__sprint_r>
200041f8:	2800      	cmp	r0, #0
200041fa:	d0e1      	beq.n	200041c0 <_vfprintf_r+0xfb8>
200041fc:	f7ff b924 	b.w	20003448 <_vfprintf_r+0x240>
20004200:	9816      	ldr	r0, [sp, #88]	; 0x58
20004202:	2130      	movs	r1, #48	; 0x30
20004204:	f8dd c028 	ldr.w	ip, [sp, #40]	; 0x28
20004208:	2201      	movs	r2, #1
2000420a:	2302      	movs	r3, #2
2000420c:	f88d 1574 	strb.w	r1, [sp, #1396]	; 0x574
20004210:	f04c 0c02 	orr.w	ip, ip, #2
20004214:	f88d 0575 	strb.w	r0, [sp, #1397]	; 0x575
20004218:	f8cd c028 	str.w	ip, [sp, #40]	; 0x28
2000421c:	f7ff b986 	b.w	2000352c <_vfprintf_r+0x324>
20004220:	980b      	ldr	r0, [sp, #44]	; 0x2c
20004222:	1d01      	adds	r1, r0, #4
20004224:	6803      	ldr	r3, [r0, #0]
20004226:	910b      	str	r1, [sp, #44]	; 0x2c
20004228:	469a      	mov	sl, r3
2000422a:	f04f 0b00 	mov.w	fp, #0
2000422e:	f7ff b973 	b.w	20003518 <_vfprintf_r+0x310>
20004232:	980b      	ldr	r0, [sp, #44]	; 0x2c
20004234:	1d01      	adds	r1, r0, #4
20004236:	6803      	ldr	r3, [r0, #0]
20004238:	910b      	str	r1, [sp, #44]	; 0x2c
2000423a:	469a      	mov	sl, r3
2000423c:	ea4f 7bea 	mov.w	fp, sl, asr #31
20004240:	f7ff bbad 	b.w	2000399e <_vfprintf_r+0x796>
20004244:	462b      	mov	r3, r5
20004246:	4645      	mov	r5, r8
20004248:	4698      	mov	r8, r3
2000424a:	6067      	str	r7, [r4, #4]
2000424c:	f8dd 3550 	ldr.w	r3, [sp, #1360]	; 0x550
20004250:	f8dd 2554 	ldr.w	r2, [sp, #1364]	; 0x554
20004254:	3301      	adds	r3, #1
20004256:	f8c4 8000 	str.w	r8, [r4]
2000425a:	19d2      	adds	r2, r2, r7
2000425c:	2b07      	cmp	r3, #7
2000425e:	f8cd 2554 	str.w	r2, [sp, #1364]	; 0x554
20004262:	f8cd 3550 	str.w	r3, [sp, #1360]	; 0x550
20004266:	f77f ae8d 	ble.w	20003f84 <_vfprintf_r+0xd7c>
2000426a:	e6ad      	b.n	20003fc8 <_vfprintf_r+0xdc0>
2000426c:	2000961c 	.word	0x2000961c
20004270:	f50d 62a8 	add.w	r2, sp, #1344	; 0x540
20004274:	4648      	mov	r0, r9
20004276:	4631      	mov	r1, r6
20004278:	320c      	adds	r2, #12
2000427a:	f7fe ffb7 	bl	200031ec <__sprint_r>
2000427e:	2800      	cmp	r0, #0
20004280:	f47f a8e2 	bne.w	20003448 <_vfprintf_r+0x240>
20004284:	f50d 649c 	add.w	r4, sp, #1248	; 0x4e0
20004288:	3404      	adds	r4, #4
2000428a:	e660      	b.n	20003f4e <_vfprintf_r+0xd46>
2000428c:	f50d 62a8 	add.w	r2, sp, #1344	; 0x540
20004290:	4648      	mov	r0, r9
20004292:	4631      	mov	r1, r6
20004294:	320c      	adds	r2, #12
20004296:	f7fe ffa9 	bl	200031ec <__sprint_r>
2000429a:	2800      	cmp	r0, #0
2000429c:	f47f a8d4 	bne.w	20003448 <_vfprintf_r+0x240>
200042a0:	f50d 649c 	add.w	r4, sp, #1248	; 0x4e0
200042a4:	3404      	adds	r4, #4
200042a6:	e640      	b.n	20003f2a <_vfprintf_r+0xd22>
200042a8:	2830      	cmp	r0, #48	; 0x30
200042aa:	f000 82ec 	beq.w	20004886 <_vfprintf_r+0x167e>
200042ae:	9813      	ldr	r0, [sp, #76]	; 0x4c
200042b0:	2330      	movs	r3, #48	; 0x30
200042b2:	f800 3d01 	strb.w	r3, [r0, #-1]!
200042b6:	9918      	ldr	r1, [sp, #96]	; 0x60
200042b8:	9013      	str	r0, [sp, #76]	; 0x4c
200042ba:	1a09      	subs	r1, r1, r0
200042bc:	9110      	str	r1, [sp, #64]	; 0x40
200042be:	f7ff b96a 	b.w	20003596 <_vfprintf_r+0x38e>
200042c2:	f50d 62a8 	add.w	r2, sp, #1344	; 0x540
200042c6:	4648      	mov	r0, r9
200042c8:	4631      	mov	r1, r6
200042ca:	320c      	adds	r2, #12
200042cc:	f7fe ff8e 	bl	200031ec <__sprint_r>
200042d0:	2800      	cmp	r0, #0
200042d2:	f47f a8b9 	bne.w	20003448 <_vfprintf_r+0x240>
200042d6:	f50d 649c 	add.w	r4, sp, #1248	; 0x4e0
200042da:	3404      	adds	r4, #4
200042dc:	f7ff b9f8 	b.w	200036d0 <_vfprintf_r+0x4c8>
200042e0:	f1da 0a00 	rsbs	sl, sl, #0
200042e4:	eb6b 0b4b 	sbc.w	fp, fp, fp, lsl #1
200042e8:	232d      	movs	r3, #45	; 0x2d
200042ea:	ea5a 0c0b 	orrs.w	ip, sl, fp
200042ee:	f88d 3577 	strb.w	r3, [sp, #1399]	; 0x577
200042f2:	bf0c      	ite	eq
200042f4:	2200      	moveq	r2, #0
200042f6:	2201      	movne	r2, #1
200042f8:	2301      	movs	r3, #1
200042fa:	f7ff b91b 	b.w	20003534 <_vfprintf_r+0x32c>
200042fe:	990b      	ldr	r1, [sp, #44]	; 0x2c
20004300:	462b      	mov	r3, r5
20004302:	782a      	ldrb	r2, [r5, #0]
20004304:	910b      	str	r1, [sp, #44]	; 0x2c
20004306:	f7ff b82a 	b.w	2000335e <_vfprintf_r+0x156>
2000430a:	462a      	mov	r2, r5
2000430c:	4645      	mov	r5, r8
2000430e:	4690      	mov	r8, r2
20004310:	605f      	str	r7, [r3, #4]
20004312:	f8dd 2550 	ldr.w	r2, [sp, #1360]	; 0x550
20004316:	f8dd 1554 	ldr.w	r1, [sp, #1364]	; 0x554
2000431a:	3201      	adds	r2, #1
2000431c:	f8c3 8000 	str.w	r8, [r3]
20004320:	19c9      	adds	r1, r1, r7
20004322:	2a07      	cmp	r2, #7
20004324:	f8cd 1554 	str.w	r1, [sp, #1364]	; 0x554
20004328:	f8cd 2550 	str.w	r2, [sp, #1360]	; 0x550
2000432c:	f73f adce 	bgt.w	20003ecc <_vfprintf_r+0xcc4>
20004330:	3308      	adds	r3, #8
20004332:	f7ff ba30 	b.w	20003796 <_vfprintf_r+0x58e>
20004336:	980a      	ldr	r0, [sp, #40]	; 0x28
20004338:	f010 0340 	ands.w	r3, r0, #64	; 0x40
2000433c:	f000 81ed 	beq.w	2000471a <_vfprintf_r+0x1512>
20004340:	990b      	ldr	r1, [sp, #44]	; 0x2c
20004342:	4613      	mov	r3, r2
20004344:	1d0a      	adds	r2, r1, #4
20004346:	920b      	str	r2, [sp, #44]	; 0x2c
20004348:	f8b1 a000 	ldrh.w	sl, [r1]
2000434c:	f1ba 0200 	subs.w	r2, sl, #0
20004350:	bf18      	it	ne
20004352:	2201      	movne	r2, #1
20004354:	46d2      	mov	sl, sl
20004356:	f04f 0b00 	mov.w	fp, #0
2000435a:	f7ff b8e7 	b.w	2000352c <_vfprintf_r+0x324>
2000435e:	9b0a      	ldr	r3, [sp, #40]	; 0x28
20004360:	f013 0f40 	tst.w	r3, #64	; 0x40
20004364:	f000 81cc 	beq.w	20004700 <_vfprintf_r+0x14f8>
20004368:	980b      	ldr	r0, [sp, #44]	; 0x2c
2000436a:	2301      	movs	r3, #1
2000436c:	1d01      	adds	r1, r0, #4
2000436e:	910b      	str	r1, [sp, #44]	; 0x2c
20004370:	f8b0 a000 	ldrh.w	sl, [r0]
20004374:	f1ba 0200 	subs.w	r2, sl, #0
20004378:	bf18      	it	ne
2000437a:	2201      	movne	r2, #1
2000437c:	46d2      	mov	sl, sl
2000437e:	f04f 0b00 	mov.w	fp, #0
20004382:	f7ff b8d3 	b.w	2000352c <_vfprintf_r+0x324>
20004386:	9b0a      	ldr	r3, [sp, #40]	; 0x28
20004388:	f013 0f10 	tst.w	r3, #16
2000438c:	f000 81a4 	beq.w	200046d8 <_vfprintf_r+0x14d0>
20004390:	980b      	ldr	r0, [sp, #44]	; 0x2c
20004392:	9911      	ldr	r1, [sp, #68]	; 0x44
20004394:	f100 0a04 	add.w	sl, r0, #4
20004398:	6803      	ldr	r3, [r0, #0]
2000439a:	6019      	str	r1, [r3, #0]
2000439c:	f7fe bf9c 	b.w	200032d8 <_vfprintf_r+0xd0>
200043a0:	980b      	ldr	r0, [sp, #44]	; 0x2c
200043a2:	1dc3      	adds	r3, r0, #7
200043a4:	f023 0307 	bic.w	r3, r3, #7
200043a8:	f103 0108 	add.w	r1, r3, #8
200043ac:	910b      	str	r1, [sp, #44]	; 0x2c
200043ae:	f8d3 8004 	ldr.w	r8, [r3, #4]
200043b2:	f8d3 a000 	ldr.w	sl, [r3]
200043b6:	f8cd 806c 	str.w	r8, [sp, #108]	; 0x6c
200043ba:	f8cd a048 	str.w	sl, [sp, #72]	; 0x48
200043be:	f7ff bb11 	b.w	200039e4 <_vfprintf_r+0x7dc>
200043c2:	462a      	mov	r2, r5
200043c4:	4645      	mov	r5, r8
200043c6:	4690      	mov	r8, r2
200043c8:	605c      	str	r4, [r3, #4]
200043ca:	f8dd 2550 	ldr.w	r2, [sp, #1360]	; 0x550
200043ce:	f8dd 1554 	ldr.w	r1, [sp, #1364]	; 0x554
200043d2:	3201      	adds	r2, #1
200043d4:	f8c3 8000 	str.w	r8, [r3]
200043d8:	1909      	adds	r1, r1, r4
200043da:	2a07      	cmp	r2, #7
200043dc:	f8cd 1554 	str.w	r1, [sp, #1364]	; 0x554
200043e0:	f8cd 2550 	str.w	r2, [sp, #1360]	; 0x550
200043e4:	f300 82ea 	bgt.w	200049bc <_vfprintf_r+0x17b4>
200043e8:	3308      	adds	r3, #8
200043ea:	990a      	ldr	r1, [sp, #40]	; 0x28
200043ec:	f011 0f01 	tst.w	r1, #1
200043f0:	f43f a9d1 	beq.w	20003796 <_vfprintf_r+0x58e>
200043f4:	2201      	movs	r2, #1
200043f6:	605a      	str	r2, [r3, #4]
200043f8:	f8dd 2550 	ldr.w	r2, [sp, #1360]	; 0x550
200043fc:	f8dd 1554 	ldr.w	r1, [sp, #1364]	; 0x554
20004400:	3201      	adds	r2, #1
20004402:	981d      	ldr	r0, [sp, #116]	; 0x74
20004404:	3101      	adds	r1, #1
20004406:	2a07      	cmp	r2, #7
20004408:	f8cd 1554 	str.w	r1, [sp, #1364]	; 0x554
2000440c:	6018      	str	r0, [r3, #0]
2000440e:	f8cd 2550 	str.w	r2, [sp, #1360]	; 0x550
20004412:	f73f ad5b 	bgt.w	20003ecc <_vfprintf_r+0xcc4>
20004416:	3308      	adds	r3, #8
20004418:	f7ff b9bd 	b.w	20003796 <_vfprintf_r+0x58e>
2000441c:	232d      	movs	r3, #45	; 0x2d
2000441e:	f88d 3577 	strb.w	r3, [sp, #1399]	; 0x577
20004422:	f7ff baf2 	b.w	20003a0a <_vfprintf_r+0x802>
20004426:	f50d 62a8 	add.w	r2, sp, #1344	; 0x540
2000442a:	4648      	mov	r0, r9
2000442c:	4631      	mov	r1, r6
2000442e:	320c      	adds	r2, #12
20004430:	f7fe fedc 	bl	200031ec <__sprint_r>
20004434:	2800      	cmp	r0, #0
20004436:	f47f a807 	bne.w	20003448 <_vfprintf_r+0x240>
2000443a:	f50d 639c 	add.w	r3, sp, #1248	; 0x4e0
2000443e:	3304      	adds	r3, #4
20004440:	e456      	b.n	20003cf0 <_vfprintf_r+0xae8>
20004442:	2301      	movs	r3, #1
20004444:	6063      	str	r3, [r4, #4]
20004446:	f8dd 2550 	ldr.w	r2, [sp, #1360]	; 0x550
2000444a:	f249 636c 	movw	r3, #38508	; 0x966c
2000444e:	f2c2 0300 	movt	r3, #8192	; 0x2000
20004452:	6023      	str	r3, [r4, #0]
20004454:	f8dd 3554 	ldr.w	r3, [sp, #1364]	; 0x554
20004458:	3201      	adds	r2, #1
2000445a:	f8cd 2550 	str.w	r2, [sp, #1360]	; 0x550
2000445e:	3301      	adds	r3, #1
20004460:	2a07      	cmp	r2, #7
20004462:	f8cd 3554 	str.w	r3, [sp, #1364]	; 0x554
20004466:	bfd8      	it	le
20004468:	f104 0308 	addle.w	r3, r4, #8
2000446c:	f300 8187 	bgt.w	2000477e <_vfprintf_r+0x1576>
20004470:	f8dd 2570 	ldr.w	r2, [sp, #1392]	; 0x570
20004474:	b93a      	cbnz	r2, 20004486 <_vfprintf_r+0x127e>
20004476:	9a1a      	ldr	r2, [sp, #104]	; 0x68
20004478:	b92a      	cbnz	r2, 20004486 <_vfprintf_r+0x127e>
2000447a:	f8dd c028 	ldr.w	ip, [sp, #40]	; 0x28
2000447e:	f01c 0f01 	tst.w	ip, #1
20004482:	f43f a988 	beq.w	20003796 <_vfprintf_r+0x58e>
20004486:	2201      	movs	r2, #1
20004488:	605a      	str	r2, [r3, #4]
2000448a:	f8dd 2550 	ldr.w	r2, [sp, #1360]	; 0x550
2000448e:	f8dd 1554 	ldr.w	r1, [sp, #1364]	; 0x554
20004492:	3201      	adds	r2, #1
20004494:	981d      	ldr	r0, [sp, #116]	; 0x74
20004496:	3101      	adds	r1, #1
20004498:	2a07      	cmp	r2, #7
2000449a:	f8cd 1554 	str.w	r1, [sp, #1364]	; 0x554
2000449e:	6018      	str	r0, [r3, #0]
200044a0:	f8cd 2550 	str.w	r2, [sp, #1360]	; 0x550
200044a4:	f300 8179 	bgt.w	2000479a <_vfprintf_r+0x1592>
200044a8:	3308      	adds	r3, #8
200044aa:	f8dd 7570 	ldr.w	r7, [sp, #1392]	; 0x570
200044ae:	427f      	negs	r7, r7
200044b0:	2f00      	cmp	r7, #0
200044b2:	f340 81b3 	ble.w	2000481c <_vfprintf_r+0x1614>
200044b6:	2f10      	cmp	r7, #16
200044b8:	f8df 8650 	ldr.w	r8, [pc, #1616]	; 20004b0c <_vfprintf_r+0x1904>
200044bc:	f340 81d2 	ble.w	20004864 <_vfprintf_r+0x165c>
200044c0:	4642      	mov	r2, r8
200044c2:	f50d 6aa8 	add.w	sl, sp, #1344	; 0x540
200044c6:	46a8      	mov	r8, r5
200044c8:	2410      	movs	r4, #16
200044ca:	f10a 0a0c 	add.w	sl, sl, #12
200044ce:	4615      	mov	r5, r2
200044d0:	e003      	b.n	200044da <_vfprintf_r+0x12d2>
200044d2:	3f10      	subs	r7, #16
200044d4:	2f10      	cmp	r7, #16
200044d6:	f340 81c2 	ble.w	2000485e <_vfprintf_r+0x1656>
200044da:	605c      	str	r4, [r3, #4]
200044dc:	f8dd 2550 	ldr.w	r2, [sp, #1360]	; 0x550
200044e0:	f8dd 1554 	ldr.w	r1, [sp, #1364]	; 0x554
200044e4:	3201      	adds	r2, #1
200044e6:	601d      	str	r5, [r3, #0]
200044e8:	3110      	adds	r1, #16
200044ea:	2a07      	cmp	r2, #7
200044ec:	f8cd 1554 	str.w	r1, [sp, #1364]	; 0x554
200044f0:	f103 0308 	add.w	r3, r3, #8
200044f4:	f8cd 2550 	str.w	r2, [sp, #1360]	; 0x550
200044f8:	ddeb      	ble.n	200044d2 <_vfprintf_r+0x12ca>
200044fa:	4648      	mov	r0, r9
200044fc:	4631      	mov	r1, r6
200044fe:	4652      	mov	r2, sl
20004500:	f7fe fe74 	bl	200031ec <__sprint_r>
20004504:	f50d 639c 	add.w	r3, sp, #1248	; 0x4e0
20004508:	3304      	adds	r3, #4
2000450a:	2800      	cmp	r0, #0
2000450c:	d0e1      	beq.n	200044d2 <_vfprintf_r+0x12ca>
2000450e:	f7fe bf9b 	b.w	20003448 <_vfprintf_r+0x240>
20004512:	990b      	ldr	r1, [sp, #44]	; 0x2c
20004514:	1c6b      	adds	r3, r5, #1
20004516:	9a0a      	ldr	r2, [sp, #40]	; 0x28
20004518:	f042 0220 	orr.w	r2, r2, #32
2000451c:	920a      	str	r2, [sp, #40]	; 0x28
2000451e:	786a      	ldrb	r2, [r5, #1]
20004520:	910b      	str	r1, [sp, #44]	; 0x2c
20004522:	f7fe bf1c 	b.w	2000335e <_vfprintf_r+0x156>
20004526:	4650      	mov	r0, sl
20004528:	4641      	mov	r1, r8
2000452a:	f003 fb9f 	bl	20007c6c <__isnand>
2000452e:	2800      	cmp	r0, #0
20004530:	f040 80ff 	bne.w	20004732 <_vfprintf_r+0x152a>
20004534:	f1b7 3fff 	cmp.w	r7, #4294967295
20004538:	f000 8251 	beq.w	200049de <_vfprintf_r+0x17d6>
2000453c:	9816      	ldr	r0, [sp, #88]	; 0x58
2000453e:	2867      	cmp	r0, #103	; 0x67
20004540:	bf14      	ite	ne
20004542:	2300      	movne	r3, #0
20004544:	2301      	moveq	r3, #1
20004546:	2847      	cmp	r0, #71	; 0x47
20004548:	bf08      	it	eq
2000454a:	f043 0301 	orreq.w	r3, r3, #1
2000454e:	b113      	cbz	r3, 20004556 <_vfprintf_r+0x134e>
20004550:	2f00      	cmp	r7, #0
20004552:	bf08      	it	eq
20004554:	2701      	moveq	r7, #1
20004556:	f50d 60ab 	add.w	r0, sp, #1368	; 0x558
2000455a:	4643      	mov	r3, r8
2000455c:	4652      	mov	r2, sl
2000455e:	990a      	ldr	r1, [sp, #40]	; 0x28
20004560:	e9c0 2300 	strd	r2, r3, [r0]
20004564:	f8dd 355c 	ldr.w	r3, [sp, #1372]	; 0x55c
20004568:	f441 7180 	orr.w	r1, r1, #256	; 0x100
2000456c:	910a      	str	r1, [sp, #40]	; 0x28
2000456e:	2b00      	cmp	r3, #0
20004570:	f2c0 8264 	blt.w	20004a3c <_vfprintf_r+0x1834>
20004574:	2100      	movs	r1, #0
20004576:	9117      	str	r1, [sp, #92]	; 0x5c
20004578:	9816      	ldr	r0, [sp, #88]	; 0x58
2000457a:	2866      	cmp	r0, #102	; 0x66
2000457c:	bf14      	ite	ne
2000457e:	2300      	movne	r3, #0
20004580:	2301      	moveq	r3, #1
20004582:	2846      	cmp	r0, #70	; 0x46
20004584:	bf08      	it	eq
20004586:	f043 0301 	orreq.w	r3, r3, #1
2000458a:	9310      	str	r3, [sp, #64]	; 0x40
2000458c:	2b00      	cmp	r3, #0
2000458e:	f000 81d1 	beq.w	20004934 <_vfprintf_r+0x172c>
20004592:	46bc      	mov	ip, r7
20004594:	2303      	movs	r3, #3
20004596:	f8cd a030 	str.w	sl, [sp, #48]	; 0x30
2000459a:	f50d 61ae 	add.w	r1, sp, #1392	; 0x570
2000459e:	f8cd 8034 	str.w	r8, [sp, #52]	; 0x34
200045a2:	4648      	mov	r0, r9
200045a4:	9300      	str	r3, [sp, #0]
200045a6:	9102      	str	r1, [sp, #8]
200045a8:	f50d 61ac 	add.w	r1, sp, #1376	; 0x560
200045ac:	e9dd 230c 	ldrd	r2, r3, [sp, #48]	; 0x30
200045b0:	310c      	adds	r1, #12
200045b2:	f8cd c004 	str.w	ip, [sp, #4]
200045b6:	9103      	str	r1, [sp, #12]
200045b8:	f50d 61ad 	add.w	r1, sp, #1384	; 0x568
200045bc:	f8cd c024 	str.w	ip, [sp, #36]	; 0x24
200045c0:	9104      	str	r1, [sp, #16]
200045c2:	f000 fbc5 	bl	20004d50 <_dtoa_r>
200045c6:	9a16      	ldr	r2, [sp, #88]	; 0x58
200045c8:	f8dd c024 	ldr.w	ip, [sp, #36]	; 0x24
200045cc:	f1b2 0367 	subs.w	r3, r2, #103	; 0x67
200045d0:	bf18      	it	ne
200045d2:	2301      	movne	r3, #1
200045d4:	2a47      	cmp	r2, #71	; 0x47
200045d6:	bf0c      	ite	eq
200045d8:	2300      	moveq	r3, #0
200045da:	f003 0301 	andne.w	r3, r3, #1
200045de:	9013      	str	r0, [sp, #76]	; 0x4c
200045e0:	b933      	cbnz	r3, 200045f0 <_vfprintf_r+0x13e8>
200045e2:	9b0a      	ldr	r3, [sp, #40]	; 0x28
200045e4:	f013 0f01 	tst.w	r3, #1
200045e8:	bf08      	it	eq
200045ea:	f8dd b568 	ldreq.w	fp, [sp, #1384]	; 0x568
200045ee:	d016      	beq.n	2000461e <_vfprintf_r+0x1416>
200045f0:	9813      	ldr	r0, [sp, #76]	; 0x4c
200045f2:	9910      	ldr	r1, [sp, #64]	; 0x40
200045f4:	eb00 0b0c 	add.w	fp, r0, ip
200045f8:	b131      	cbz	r1, 20004608 <_vfprintf_r+0x1400>
200045fa:	7803      	ldrb	r3, [r0, #0]
200045fc:	2b30      	cmp	r3, #48	; 0x30
200045fe:	f000 80da 	beq.w	200047b6 <_vfprintf_r+0x15ae>
20004602:	f8dd 3570 	ldr.w	r3, [sp, #1392]	; 0x570
20004606:	449b      	add	fp, r3
20004608:	4650      	mov	r0, sl
2000460a:	2200      	movs	r2, #0
2000460c:	2300      	movs	r3, #0
2000460e:	4641      	mov	r1, r8
20004610:	f004 fb10 	bl	20008c34 <__aeabi_dcmpeq>
20004614:	2800      	cmp	r0, #0
20004616:	f000 81c2 	beq.w	2000499e <_vfprintf_r+0x1796>
2000461a:	f8cd b568 	str.w	fp, [sp, #1384]	; 0x568
2000461e:	9a16      	ldr	r2, [sp, #88]	; 0x58
20004620:	9813      	ldr	r0, [sp, #76]	; 0x4c
20004622:	2a67      	cmp	r2, #103	; 0x67
20004624:	bf14      	ite	ne
20004626:	2300      	movne	r3, #0
20004628:	2301      	moveq	r3, #1
2000462a:	2a47      	cmp	r2, #71	; 0x47
2000462c:	bf08      	it	eq
2000462e:	f043 0301 	orreq.w	r3, r3, #1
20004632:	ebc0 000b 	rsb	r0, r0, fp
20004636:	901a      	str	r0, [sp, #104]	; 0x68
20004638:	2b00      	cmp	r3, #0
2000463a:	f000 818a 	beq.w	20004952 <_vfprintf_r+0x174a>
2000463e:	f8dd 1570 	ldr.w	r1, [sp, #1392]	; 0x570
20004642:	f111 0f03 	cmn.w	r1, #3
20004646:	9110      	str	r1, [sp, #64]	; 0x40
20004648:	db02      	blt.n	20004650 <_vfprintf_r+0x1448>
2000464a:	428f      	cmp	r7, r1
2000464c:	f280 818c 	bge.w	20004968 <_vfprintf_r+0x1760>
20004650:	9a16      	ldr	r2, [sp, #88]	; 0x58
20004652:	3a02      	subs	r2, #2
20004654:	9216      	str	r2, [sp, #88]	; 0x58
20004656:	9910      	ldr	r1, [sp, #64]	; 0x40
20004658:	9a16      	ldr	r2, [sp, #88]	; 0x58
2000465a:	1e4b      	subs	r3, r1, #1
2000465c:	f8cd 3570 	str.w	r3, [sp, #1392]	; 0x570
20004660:	2b00      	cmp	r3, #0
20004662:	f88d 2560 	strb.w	r2, [sp, #1376]	; 0x560
20004666:	f2c0 8234 	blt.w	20004ad2 <_vfprintf_r+0x18ca>
2000466a:	222b      	movs	r2, #43	; 0x2b
2000466c:	f88d 2561 	strb.w	r2, [sp, #1377]	; 0x561
20004670:	2b09      	cmp	r3, #9
20004672:	f300 81b6 	bgt.w	200049e2 <_vfprintf_r+0x17da>
20004676:	f50d 62ac 	add.w	r2, sp, #1376	; 0x560
2000467a:	3330      	adds	r3, #48	; 0x30
2000467c:	3204      	adds	r2, #4
2000467e:	f88d 3563 	strb.w	r3, [sp, #1379]	; 0x563
20004682:	2330      	movs	r3, #48	; 0x30
20004684:	f88d 3562 	strb.w	r3, [sp, #1378]	; 0x562
20004688:	f50d 63ac 	add.w	r3, sp, #1376	; 0x560
2000468c:	981a      	ldr	r0, [sp, #104]	; 0x68
2000468e:	991a      	ldr	r1, [sp, #104]	; 0x68
20004690:	1ad3      	subs	r3, r2, r3
20004692:	1818      	adds	r0, r3, r0
20004694:	931c      	str	r3, [sp, #112]	; 0x70
20004696:	2901      	cmp	r1, #1
20004698:	9010      	str	r0, [sp, #64]	; 0x40
2000469a:	f340 8210 	ble.w	20004abe <_vfprintf_r+0x18b6>
2000469e:	9810      	ldr	r0, [sp, #64]	; 0x40
200046a0:	3001      	adds	r0, #1
200046a2:	9010      	str	r0, [sp, #64]	; 0x40
200046a4:	ea20 71e0 	bic.w	r1, r0, r0, asr #31
200046a8:	910c      	str	r1, [sp, #48]	; 0x30
200046aa:	9817      	ldr	r0, [sp, #92]	; 0x5c
200046ac:	2800      	cmp	r0, #0
200046ae:	f000 816e 	beq.w	2000498e <_vfprintf_r+0x1786>
200046b2:	232d      	movs	r3, #45	; 0x2d
200046b4:	2100      	movs	r1, #0
200046b6:	f88d 3577 	strb.w	r3, [sp, #1399]	; 0x577
200046ba:	9117      	str	r1, [sp, #92]	; 0x5c
200046bc:	f7fe bf74 	b.w	200035a8 <_vfprintf_r+0x3a0>
200046c0:	9a10      	ldr	r2, [sp, #64]	; 0x40
200046c2:	f04f 0c00 	mov.w	ip, #0
200046c6:	f89d 3577 	ldrb.w	r3, [sp, #1399]	; 0x577
200046ca:	ea22 72e2 	bic.w	r2, r2, r2, asr #31
200046ce:	f8cd c05c 	str.w	ip, [sp, #92]	; 0x5c
200046d2:	920c      	str	r2, [sp, #48]	; 0x30
200046d4:	f7fe bf67 	b.w	200035a6 <_vfprintf_r+0x39e>
200046d8:	9a0a      	ldr	r2, [sp, #40]	; 0x28
200046da:	f012 0f40 	tst.w	r2, #64	; 0x40
200046de:	bf17      	itett	ne
200046e0:	980b      	ldrne	r0, [sp, #44]	; 0x2c
200046e2:	9a0b      	ldreq	r2, [sp, #44]	; 0x2c
200046e4:	9911      	ldrne	r1, [sp, #68]	; 0x44
200046e6:	f100 0a04 	addne.w	sl, r0, #4
200046ea:	bf11      	iteee	ne
200046ec:	6803      	ldrne	r3, [r0, #0]
200046ee:	f102 0a04 	addeq.w	sl, r2, #4
200046f2:	6813      	ldreq	r3, [r2, #0]
200046f4:	9811      	ldreq	r0, [sp, #68]	; 0x44
200046f6:	bf14      	ite	ne
200046f8:	8019      	strhne	r1, [r3, #0]
200046fa:	6018      	streq	r0, [r3, #0]
200046fc:	f7fe bdec 	b.w	200032d8 <_vfprintf_r+0xd0>
20004700:	9a0b      	ldr	r2, [sp, #44]	; 0x2c
20004702:	1d13      	adds	r3, r2, #4
20004704:	930b      	str	r3, [sp, #44]	; 0x2c
20004706:	6811      	ldr	r1, [r2, #0]
20004708:	2301      	movs	r3, #1
2000470a:	1e0a      	subs	r2, r1, #0
2000470c:	bf18      	it	ne
2000470e:	2201      	movne	r2, #1
20004710:	468a      	mov	sl, r1
20004712:	f04f 0b00 	mov.w	fp, #0
20004716:	f7fe bf09 	b.w	2000352c <_vfprintf_r+0x324>
2000471a:	980b      	ldr	r0, [sp, #44]	; 0x2c
2000471c:	1d02      	adds	r2, r0, #4
2000471e:	920b      	str	r2, [sp, #44]	; 0x2c
20004720:	6801      	ldr	r1, [r0, #0]
20004722:	1e0a      	subs	r2, r1, #0
20004724:	bf18      	it	ne
20004726:	2201      	movne	r2, #1
20004728:	468a      	mov	sl, r1
2000472a:	f04f 0b00 	mov.w	fp, #0
2000472e:	f7fe befd 	b.w	2000352c <_vfprintf_r+0x324>
20004732:	f249 624c 	movw	r2, #38476	; 0x964c
20004736:	f249 6348 	movw	r3, #38472	; 0x9648
2000473a:	9916      	ldr	r1, [sp, #88]	; 0x58
2000473c:	f2c2 0300 	movt	r3, #8192	; 0x2000
20004740:	f2c2 0200 	movt	r2, #8192	; 0x2000
20004744:	2003      	movs	r0, #3
20004746:	2947      	cmp	r1, #71	; 0x47
20004748:	bfd8      	it	le
2000474a:	461a      	movle	r2, r3
2000474c:	9213      	str	r2, [sp, #76]	; 0x4c
2000474e:	9a0a      	ldr	r2, [sp, #40]	; 0x28
20004750:	900c      	str	r0, [sp, #48]	; 0x30
20004752:	f022 0280 	bic.w	r2, r2, #128	; 0x80
20004756:	f8cd b05c 	str.w	fp, [sp, #92]	; 0x5c
2000475a:	920a      	str	r2, [sp, #40]	; 0x28
2000475c:	f89d 3577 	ldrb.w	r3, [sp, #1399]	; 0x577
20004760:	9010      	str	r0, [sp, #64]	; 0x40
20004762:	f7fe bf20 	b.w	200035a6 <_vfprintf_r+0x39e>
20004766:	f50d 62a8 	add.w	r2, sp, #1344	; 0x540
2000476a:	4648      	mov	r0, r9
2000476c:	4631      	mov	r1, r6
2000476e:	320c      	adds	r2, #12
20004770:	f7fe fd3c 	bl	200031ec <__sprint_r>
20004774:	2800      	cmp	r0, #0
20004776:	f47e ae67 	bne.w	20003448 <_vfprintf_r+0x240>
2000477a:	f7fe be62 	b.w	20003442 <_vfprintf_r+0x23a>
2000477e:	f50d 62a8 	add.w	r2, sp, #1344	; 0x540
20004782:	4648      	mov	r0, r9
20004784:	4631      	mov	r1, r6
20004786:	320c      	adds	r2, #12
20004788:	f7fe fd30 	bl	200031ec <__sprint_r>
2000478c:	2800      	cmp	r0, #0
2000478e:	f47e ae5b 	bne.w	20003448 <_vfprintf_r+0x240>
20004792:	f50d 639c 	add.w	r3, sp, #1248	; 0x4e0
20004796:	3304      	adds	r3, #4
20004798:	e66a      	b.n	20004470 <_vfprintf_r+0x1268>
2000479a:	f50d 62a8 	add.w	r2, sp, #1344	; 0x540
2000479e:	4648      	mov	r0, r9
200047a0:	4631      	mov	r1, r6
200047a2:	320c      	adds	r2, #12
200047a4:	f7fe fd22 	bl	200031ec <__sprint_r>
200047a8:	2800      	cmp	r0, #0
200047aa:	f47e ae4d 	bne.w	20003448 <_vfprintf_r+0x240>
200047ae:	f50d 639c 	add.w	r3, sp, #1248	; 0x4e0
200047b2:	3304      	adds	r3, #4
200047b4:	e679      	b.n	200044aa <_vfprintf_r+0x12a2>
200047b6:	4650      	mov	r0, sl
200047b8:	2200      	movs	r2, #0
200047ba:	2300      	movs	r3, #0
200047bc:	4641      	mov	r1, r8
200047be:	f8cd c024 	str.w	ip, [sp, #36]	; 0x24
200047c2:	f004 fa37 	bl	20008c34 <__aeabi_dcmpeq>
200047c6:	f8dd c024 	ldr.w	ip, [sp, #36]	; 0x24
200047ca:	2800      	cmp	r0, #0
200047cc:	f47f af19 	bne.w	20004602 <_vfprintf_r+0x13fa>
200047d0:	f1cc 0301 	rsb	r3, ip, #1
200047d4:	f8cd 3570 	str.w	r3, [sp, #1392]	; 0x570
200047d8:	e715      	b.n	20004606 <_vfprintf_r+0x13fe>
200047da:	9a0f      	ldr	r2, [sp, #60]	; 0x3c
200047dc:	4252      	negs	r2, r2
200047de:	920f      	str	r2, [sp, #60]	; 0x3c
200047e0:	f7ff b887 	b.w	200038f2 <_vfprintf_r+0x6ea>
200047e4:	f50d 62a8 	add.w	r2, sp, #1344	; 0x540
200047e8:	4648      	mov	r0, r9
200047ea:	4631      	mov	r1, r6
200047ec:	320c      	adds	r2, #12
200047ee:	f7fe fcfd 	bl	200031ec <__sprint_r>
200047f2:	2800      	cmp	r0, #0
200047f4:	f47e ae28 	bne.w	20003448 <_vfprintf_r+0x240>
200047f8:	f50d 639c 	add.w	r3, sp, #1248	; 0x4e0
200047fc:	3304      	adds	r3, #4
200047fe:	f7ff ba93 	b.w	20003d28 <_vfprintf_r+0xb20>
20004802:	f50d 62a8 	add.w	r2, sp, #1344	; 0x540
20004806:	4648      	mov	r0, r9
20004808:	4631      	mov	r1, r6
2000480a:	320c      	adds	r2, #12
2000480c:	f7fe fcee 	bl	200031ec <__sprint_r>
20004810:	2800      	cmp	r0, #0
20004812:	f47e ae19 	bne.w	20003448 <_vfprintf_r+0x240>
20004816:	f50d 639c 	add.w	r3, sp, #1248	; 0x4e0
2000481a:	3304      	adds	r3, #4
2000481c:	991a      	ldr	r1, [sp, #104]	; 0x68
2000481e:	9813      	ldr	r0, [sp, #76]	; 0x4c
20004820:	6059      	str	r1, [r3, #4]
20004822:	f8dd 2550 	ldr.w	r2, [sp, #1360]	; 0x550
20004826:	f8dd 1554 	ldr.w	r1, [sp, #1364]	; 0x554
2000482a:	6018      	str	r0, [r3, #0]
2000482c:	3201      	adds	r2, #1
2000482e:	981a      	ldr	r0, [sp, #104]	; 0x68
20004830:	f8cd 2550 	str.w	r2, [sp, #1360]	; 0x550
20004834:	1809      	adds	r1, r1, r0
20004836:	2a07      	cmp	r2, #7
20004838:	f8cd 1554 	str.w	r1, [sp, #1364]	; 0x554
2000483c:	f73f ab46 	bgt.w	20003ecc <_vfprintf_r+0xcc4>
20004840:	3308      	adds	r3, #8
20004842:	f7fe bfa8 	b.w	20003796 <_vfprintf_r+0x58e>
20004846:	2100      	movs	r1, #0
20004848:	9117      	str	r1, [sp, #92]	; 0x5c
2000484a:	f003 fb67 	bl	20007f1c <strlen>
2000484e:	f89d 3577 	ldrb.w	r3, [sp, #1399]	; 0x577
20004852:	ea20 72e0 	bic.w	r2, r0, r0, asr #31
20004856:	9010      	str	r0, [sp, #64]	; 0x40
20004858:	920c      	str	r2, [sp, #48]	; 0x30
2000485a:	f7fe bea4 	b.w	200035a6 <_vfprintf_r+0x39e>
2000485e:	462a      	mov	r2, r5
20004860:	4645      	mov	r5, r8
20004862:	4690      	mov	r8, r2
20004864:	605f      	str	r7, [r3, #4]
20004866:	f8dd 2550 	ldr.w	r2, [sp, #1360]	; 0x550
2000486a:	f8dd 1554 	ldr.w	r1, [sp, #1364]	; 0x554
2000486e:	3201      	adds	r2, #1
20004870:	f8c3 8000 	str.w	r8, [r3]
20004874:	19c9      	adds	r1, r1, r7
20004876:	2a07      	cmp	r2, #7
20004878:	f8cd 1554 	str.w	r1, [sp, #1364]	; 0x554
2000487c:	f8cd 2550 	str.w	r2, [sp, #1360]	; 0x550
20004880:	dcbf      	bgt.n	20004802 <_vfprintf_r+0x15fa>
20004882:	3308      	adds	r3, #8
20004884:	e7ca      	b.n	2000481c <_vfprintf_r+0x1614>
20004886:	9a18      	ldr	r2, [sp, #96]	; 0x60
20004888:	9913      	ldr	r1, [sp, #76]	; 0x4c
2000488a:	1a51      	subs	r1, r2, r1
2000488c:	9110      	str	r1, [sp, #64]	; 0x40
2000488e:	f7fe be82 	b.w	20003596 <_vfprintf_r+0x38e>
20004892:	4648      	mov	r0, r9
20004894:	4631      	mov	r1, r6
20004896:	f000 f949 	bl	20004b2c <__swsetup_r>
2000489a:	2800      	cmp	r0, #0
2000489c:	f47e add8 	bne.w	20003450 <_vfprintf_r+0x248>
200048a0:	f8b6 c00c 	ldrh.w	ip, [r6, #12]
200048a4:	fa1f f38c 	uxth.w	r3, ip
200048a8:	f7fe bcf6 	b.w	20003298 <_vfprintf_r+0x90>
200048ac:	2f06      	cmp	r7, #6
200048ae:	bf28      	it	cs
200048b0:	2706      	movcs	r7, #6
200048b2:	f249 6164 	movw	r1, #38500	; 0x9664
200048b6:	f2c2 0100 	movt	r1, #8192	; 0x2000
200048ba:	ea27 72e7 	bic.w	r2, r7, r7, asr #31
200048be:	9710      	str	r7, [sp, #64]	; 0x40
200048c0:	9113      	str	r1, [sp, #76]	; 0x4c
200048c2:	920c      	str	r2, [sp, #48]	; 0x30
200048c4:	f7fe bfe8 	b.w	20003898 <_vfprintf_r+0x690>
200048c8:	f50d 62a8 	add.w	r2, sp, #1344	; 0x540
200048cc:	4648      	mov	r0, r9
200048ce:	4631      	mov	r1, r6
200048d0:	320c      	adds	r2, #12
200048d2:	f7fe fc8b 	bl	200031ec <__sprint_r>
200048d6:	2800      	cmp	r0, #0
200048d8:	f47e adb6 	bne.w	20003448 <_vfprintf_r+0x240>
200048dc:	f50d 639c 	add.w	r3, sp, #1248	; 0x4e0
200048e0:	3304      	adds	r3, #4
200048e2:	f7ff bbc8 	b.w	20004076 <_vfprintf_r+0xe6e>
200048e6:	f50d 62a8 	add.w	r2, sp, #1344	; 0x540
200048ea:	4648      	mov	r0, r9
200048ec:	4631      	mov	r1, r6
200048ee:	320c      	adds	r2, #12
200048f0:	f7fe fc7c 	bl	200031ec <__sprint_r>
200048f4:	2800      	cmp	r0, #0
200048f6:	f47e ada7 	bne.w	20003448 <_vfprintf_r+0x240>
200048fa:	f50d 639c 	add.w	r3, sp, #1248	; 0x4e0
200048fe:	3304      	adds	r3, #4
20004900:	f7ff bace 	b.w	20003ea0 <_vfprintf_r+0xc98>
20004904:	f50d 62a8 	add.w	r2, sp, #1344	; 0x540
20004908:	4648      	mov	r0, r9
2000490a:	4631      	mov	r1, r6
2000490c:	320c      	adds	r2, #12
2000490e:	f7fe fc6d 	bl	200031ec <__sprint_r>
20004912:	2800      	cmp	r0, #0
20004914:	f47e ad98 	bne.w	20003448 <_vfprintf_r+0x240>
20004918:	f50d 649c 	add.w	r4, sp, #1248	; 0x4e0
2000491c:	3404      	adds	r4, #4
2000491e:	f7ff baa9 	b.w	20003e74 <_vfprintf_r+0xc6c>
20004922:	9710      	str	r7, [sp, #64]	; 0x40
20004924:	ea27 77e7 	bic.w	r7, r7, r7, asr #31
20004928:	9017      	str	r0, [sp, #92]	; 0x5c
2000492a:	970c      	str	r7, [sp, #48]	; 0x30
2000492c:	f89d 3577 	ldrb.w	r3, [sp, #1399]	; 0x577
20004930:	f7fe be39 	b.w	200035a6 <_vfprintf_r+0x39e>
20004934:	9916      	ldr	r1, [sp, #88]	; 0x58
20004936:	2965      	cmp	r1, #101	; 0x65
20004938:	bf14      	ite	ne
2000493a:	2300      	movne	r3, #0
2000493c:	2301      	moveq	r3, #1
2000493e:	2945      	cmp	r1, #69	; 0x45
20004940:	bf08      	it	eq
20004942:	f043 0301 	orreq.w	r3, r3, #1
20004946:	2b00      	cmp	r3, #0
20004948:	d046      	beq.n	200049d8 <_vfprintf_r+0x17d0>
2000494a:	f107 0c01 	add.w	ip, r7, #1
2000494e:	2302      	movs	r3, #2
20004950:	e621      	b.n	20004596 <_vfprintf_r+0x138e>
20004952:	9b16      	ldr	r3, [sp, #88]	; 0x58
20004954:	2b65      	cmp	r3, #101	; 0x65
20004956:	dd76      	ble.n	20004a46 <_vfprintf_r+0x183e>
20004958:	9a16      	ldr	r2, [sp, #88]	; 0x58
2000495a:	2a66      	cmp	r2, #102	; 0x66
2000495c:	bf1c      	itt	ne
2000495e:	f8dd 3570 	ldrne.w	r3, [sp, #1392]	; 0x570
20004962:	9310      	strne	r3, [sp, #64]	; 0x40
20004964:	f000 8083 	beq.w	20004a6e <_vfprintf_r+0x1866>
20004968:	9b1a      	ldr	r3, [sp, #104]	; 0x68
2000496a:	9810      	ldr	r0, [sp, #64]	; 0x40
2000496c:	4283      	cmp	r3, r0
2000496e:	dc6e      	bgt.n	20004a4e <_vfprintf_r+0x1846>
20004970:	990a      	ldr	r1, [sp, #40]	; 0x28
20004972:	f011 0f01 	tst.w	r1, #1
20004976:	f040 808e 	bne.w	20004a96 <_vfprintf_r+0x188e>
2000497a:	ea20 72e0 	bic.w	r2, r0, r0, asr #31
2000497e:	2367      	movs	r3, #103	; 0x67
20004980:	920c      	str	r2, [sp, #48]	; 0x30
20004982:	9316      	str	r3, [sp, #88]	; 0x58
20004984:	e691      	b.n	200046aa <_vfprintf_r+0x14a2>
20004986:	2700      	movs	r7, #0
20004988:	461d      	mov	r5, r3
2000498a:	f7fe bce9 	b.w	20003360 <_vfprintf_r+0x158>
2000498e:	9910      	ldr	r1, [sp, #64]	; 0x40
20004990:	f89d 3577 	ldrb.w	r3, [sp, #1399]	; 0x577
20004994:	ea21 71e1 	bic.w	r1, r1, r1, asr #31
20004998:	910c      	str	r1, [sp, #48]	; 0x30
2000499a:	f7fe be04 	b.w	200035a6 <_vfprintf_r+0x39e>
2000499e:	f8dd 3568 	ldr.w	r3, [sp, #1384]	; 0x568
200049a2:	459b      	cmp	fp, r3
200049a4:	bf98      	it	ls
200049a6:	469b      	movls	fp, r3
200049a8:	f67f ae39 	bls.w	2000461e <_vfprintf_r+0x1416>
200049ac:	2230      	movs	r2, #48	; 0x30
200049ae:	f803 2b01 	strb.w	r2, [r3], #1
200049b2:	459b      	cmp	fp, r3
200049b4:	f8cd 3568 	str.w	r3, [sp, #1384]	; 0x568
200049b8:	d8f9      	bhi.n	200049ae <_vfprintf_r+0x17a6>
200049ba:	e630      	b.n	2000461e <_vfprintf_r+0x1416>
200049bc:	f50d 62a8 	add.w	r2, sp, #1344	; 0x540
200049c0:	4648      	mov	r0, r9
200049c2:	4631      	mov	r1, r6
200049c4:	320c      	adds	r2, #12
200049c6:	f7fe fc11 	bl	200031ec <__sprint_r>
200049ca:	2800      	cmp	r0, #0
200049cc:	f47e ad3c 	bne.w	20003448 <_vfprintf_r+0x240>
200049d0:	f50d 639c 	add.w	r3, sp, #1248	; 0x4e0
200049d4:	3304      	adds	r3, #4
200049d6:	e508      	b.n	200043ea <_vfprintf_r+0x11e2>
200049d8:	46bc      	mov	ip, r7
200049da:	3302      	adds	r3, #2
200049dc:	e5db      	b.n	20004596 <_vfprintf_r+0x138e>
200049de:	3707      	adds	r7, #7
200049e0:	e5b9      	b.n	20004556 <_vfprintf_r+0x134e>
200049e2:	f246 6c67 	movw	ip, #26215	; 0x6667
200049e6:	f50d 6190 	add.w	r1, sp, #1152	; 0x480
200049ea:	3103      	adds	r1, #3
200049ec:	f2c6 6c66 	movt	ip, #26214	; 0x6666
200049f0:	fb8c 2003 	smull	r2, r0, ip, r3
200049f4:	17da      	asrs	r2, r3, #31
200049f6:	ebc2 02a0 	rsb	r2, r2, r0, asr #2
200049fa:	eb02 0082 	add.w	r0, r2, r2, lsl #2
200049fe:	eba3 0040 	sub.w	r0, r3, r0, lsl #1
20004a02:	4613      	mov	r3, r2
20004a04:	3030      	adds	r0, #48	; 0x30
20004a06:	2a09      	cmp	r2, #9
20004a08:	f801 0d01 	strb.w	r0, [r1, #-1]!
20004a0c:	dcf0      	bgt.n	200049f0 <_vfprintf_r+0x17e8>
20004a0e:	3330      	adds	r3, #48	; 0x30
20004a10:	1e48      	subs	r0, r1, #1
20004a12:	b2da      	uxtb	r2, r3
20004a14:	f801 2c01 	strb.w	r2, [r1, #-1]
20004a18:	9b07      	ldr	r3, [sp, #28]
20004a1a:	4283      	cmp	r3, r0
20004a1c:	d96a      	bls.n	20004af4 <_vfprintf_r+0x18ec>
20004a1e:	f50d 63ac 	add.w	r3, sp, #1376	; 0x560
20004a22:	3303      	adds	r3, #3
20004a24:	e001      	b.n	20004a2a <_vfprintf_r+0x1822>
20004a26:	f811 2b01 	ldrb.w	r2, [r1], #1
20004a2a:	f803 2c01 	strb.w	r2, [r3, #-1]
20004a2e:	461a      	mov	r2, r3
20004a30:	f8dd c01c 	ldr.w	ip, [sp, #28]
20004a34:	3301      	adds	r3, #1
20004a36:	458c      	cmp	ip, r1
20004a38:	d8f5      	bhi.n	20004a26 <_vfprintf_r+0x181e>
20004a3a:	e625      	b.n	20004688 <_vfprintf_r+0x1480>
20004a3c:	222d      	movs	r2, #45	; 0x2d
20004a3e:	f108 4800 	add.w	r8, r8, #2147483648	; 0x80000000
20004a42:	9217      	str	r2, [sp, #92]	; 0x5c
20004a44:	e598      	b.n	20004578 <_vfprintf_r+0x1370>
20004a46:	f8dd 0570 	ldr.w	r0, [sp, #1392]	; 0x570
20004a4a:	9010      	str	r0, [sp, #64]	; 0x40
20004a4c:	e603      	b.n	20004656 <_vfprintf_r+0x144e>
20004a4e:	9b10      	ldr	r3, [sp, #64]	; 0x40
20004a50:	991a      	ldr	r1, [sp, #104]	; 0x68
20004a52:	2b00      	cmp	r3, #0
20004a54:	bfda      	itte	le
20004a56:	9810      	ldrle	r0, [sp, #64]	; 0x40
20004a58:	f1c0 0302 	rsble	r3, r0, #2
20004a5c:	2301      	movgt	r3, #1
20004a5e:	185b      	adds	r3, r3, r1
20004a60:	2267      	movs	r2, #103	; 0x67
20004a62:	9310      	str	r3, [sp, #64]	; 0x40
20004a64:	ea23 73e3 	bic.w	r3, r3, r3, asr #31
20004a68:	9216      	str	r2, [sp, #88]	; 0x58
20004a6a:	930c      	str	r3, [sp, #48]	; 0x30
20004a6c:	e61d      	b.n	200046aa <_vfprintf_r+0x14a2>
20004a6e:	f8dd 0570 	ldr.w	r0, [sp, #1392]	; 0x570
20004a72:	2800      	cmp	r0, #0
20004a74:	9010      	str	r0, [sp, #64]	; 0x40
20004a76:	dd31      	ble.n	20004adc <_vfprintf_r+0x18d4>
20004a78:	b91f      	cbnz	r7, 20004a82 <_vfprintf_r+0x187a>
20004a7a:	990a      	ldr	r1, [sp, #40]	; 0x28
20004a7c:	f011 0f01 	tst.w	r1, #1
20004a80:	d00e      	beq.n	20004aa0 <_vfprintf_r+0x1898>
20004a82:	9810      	ldr	r0, [sp, #64]	; 0x40
20004a84:	2166      	movs	r1, #102	; 0x66
20004a86:	9116      	str	r1, [sp, #88]	; 0x58
20004a88:	1c43      	adds	r3, r0, #1
20004a8a:	19db      	adds	r3, r3, r7
20004a8c:	9310      	str	r3, [sp, #64]	; 0x40
20004a8e:	ea23 72e3 	bic.w	r2, r3, r3, asr #31
20004a92:	920c      	str	r2, [sp, #48]	; 0x30
20004a94:	e609      	b.n	200046aa <_vfprintf_r+0x14a2>
20004a96:	9810      	ldr	r0, [sp, #64]	; 0x40
20004a98:	2167      	movs	r1, #103	; 0x67
20004a9a:	9116      	str	r1, [sp, #88]	; 0x58
20004a9c:	3001      	adds	r0, #1
20004a9e:	9010      	str	r0, [sp, #64]	; 0x40
20004aa0:	ea20 72e0 	bic.w	r2, r0, r0, asr #31
20004aa4:	920c      	str	r2, [sp, #48]	; 0x30
20004aa6:	e600      	b.n	200046aa <_vfprintf_r+0x14a2>
20004aa8:	990b      	ldr	r1, [sp, #44]	; 0x2c
20004aaa:	781a      	ldrb	r2, [r3, #0]
20004aac:	680f      	ldr	r7, [r1, #0]
20004aae:	3104      	adds	r1, #4
20004ab0:	910b      	str	r1, [sp, #44]	; 0x2c
20004ab2:	2f00      	cmp	r7, #0
20004ab4:	bfb8      	it	lt
20004ab6:	f04f 37ff 	movlt.w	r7, #4294967295
20004aba:	f7fe bc50 	b.w	2000335e <_vfprintf_r+0x156>
20004abe:	9a0a      	ldr	r2, [sp, #40]	; 0x28
20004ac0:	f012 0f01 	tst.w	r2, #1
20004ac4:	bf04      	itt	eq
20004ac6:	ea20 73e0 	biceq.w	r3, r0, r0, asr #31
20004aca:	930c      	streq	r3, [sp, #48]	; 0x30
20004acc:	f43f aded 	beq.w	200046aa <_vfprintf_r+0x14a2>
20004ad0:	e5e5      	b.n	2000469e <_vfprintf_r+0x1496>
20004ad2:	222d      	movs	r2, #45	; 0x2d
20004ad4:	425b      	negs	r3, r3
20004ad6:	f88d 2561 	strb.w	r2, [sp, #1377]	; 0x561
20004ada:	e5c9      	b.n	20004670 <_vfprintf_r+0x1468>
20004adc:	b977      	cbnz	r7, 20004afc <_vfprintf_r+0x18f4>
20004ade:	9b0a      	ldr	r3, [sp, #40]	; 0x28
20004ae0:	f013 0f01 	tst.w	r3, #1
20004ae4:	d10a      	bne.n	20004afc <_vfprintf_r+0x18f4>
20004ae6:	f04f 0c01 	mov.w	ip, #1
20004aea:	f8cd c030 	str.w	ip, [sp, #48]	; 0x30
20004aee:	f8cd c040 	str.w	ip, [sp, #64]	; 0x40
20004af2:	e5da      	b.n	200046aa <_vfprintf_r+0x14a2>
20004af4:	f50d 62ac 	add.w	r2, sp, #1376	; 0x560
20004af8:	3202      	adds	r2, #2
20004afa:	e5c5      	b.n	20004688 <_vfprintf_r+0x1480>
20004afc:	3702      	adds	r7, #2
20004afe:	2166      	movs	r1, #102	; 0x66
20004b00:	ea27 72e7 	bic.w	r2, r7, r7, asr #31
20004b04:	9710      	str	r7, [sp, #64]	; 0x40
20004b06:	9116      	str	r1, [sp, #88]	; 0x58
20004b08:	920c      	str	r2, [sp, #48]	; 0x30
20004b0a:	e5ce      	b.n	200046aa <_vfprintf_r+0x14a2>
20004b0c:	2000961c 	.word	0x2000961c

20004b10 <vfprintf>:
20004b10:	b410      	push	{r4}
20004b12:	f649 04ec 	movw	r4, #39148	; 0x98ec
20004b16:	f2c2 0400 	movt	r4, #8192	; 0x2000
20004b1a:	468c      	mov	ip, r1
20004b1c:	4613      	mov	r3, r2
20004b1e:	4601      	mov	r1, r0
20004b20:	4662      	mov	r2, ip
20004b22:	6820      	ldr	r0, [r4, #0]
20004b24:	bc10      	pop	{r4}
20004b26:	f7fe bb6f 	b.w	20003208 <_vfprintf_r>
20004b2a:	bf00      	nop

20004b2c <__swsetup_r>:
20004b2c:	b570      	push	{r4, r5, r6, lr}
20004b2e:	f649 05ec 	movw	r5, #39148	; 0x98ec
20004b32:	f2c2 0500 	movt	r5, #8192	; 0x2000
20004b36:	4606      	mov	r6, r0
20004b38:	460c      	mov	r4, r1
20004b3a:	6828      	ldr	r0, [r5, #0]
20004b3c:	b110      	cbz	r0, 20004b44 <__swsetup_r+0x18>
20004b3e:	6983      	ldr	r3, [r0, #24]
20004b40:	2b00      	cmp	r3, #0
20004b42:	d036      	beq.n	20004bb2 <__swsetup_r+0x86>
20004b44:	f249 6380 	movw	r3, #38528	; 0x9680
20004b48:	f2c2 0300 	movt	r3, #8192	; 0x2000
20004b4c:	429c      	cmp	r4, r3
20004b4e:	d038      	beq.n	20004bc2 <__swsetup_r+0x96>
20004b50:	f249 63a0 	movw	r3, #38560	; 0x96a0
20004b54:	f2c2 0300 	movt	r3, #8192	; 0x2000
20004b58:	429c      	cmp	r4, r3
20004b5a:	d041      	beq.n	20004be0 <__swsetup_r+0xb4>
20004b5c:	f249 63c0 	movw	r3, #38592	; 0x96c0
20004b60:	f2c2 0300 	movt	r3, #8192	; 0x2000
20004b64:	429c      	cmp	r4, r3
20004b66:	bf04      	itt	eq
20004b68:	682b      	ldreq	r3, [r5, #0]
20004b6a:	68dc      	ldreq	r4, [r3, #12]
20004b6c:	89a2      	ldrh	r2, [r4, #12]
20004b6e:	4611      	mov	r1, r2
20004b70:	b293      	uxth	r3, r2
20004b72:	f013 0f08 	tst.w	r3, #8
20004b76:	4618      	mov	r0, r3
20004b78:	bf18      	it	ne
20004b7a:	6922      	ldrne	r2, [r4, #16]
20004b7c:	d033      	beq.n	20004be6 <__swsetup_r+0xba>
20004b7e:	b31a      	cbz	r2, 20004bc8 <__swsetup_r+0x9c>
20004b80:	f013 0101 	ands.w	r1, r3, #1
20004b84:	d007      	beq.n	20004b96 <__swsetup_r+0x6a>
20004b86:	6963      	ldr	r3, [r4, #20]
20004b88:	2100      	movs	r1, #0
20004b8a:	60a1      	str	r1, [r4, #8]
20004b8c:	425b      	negs	r3, r3
20004b8e:	61a3      	str	r3, [r4, #24]
20004b90:	b142      	cbz	r2, 20004ba4 <__swsetup_r+0x78>
20004b92:	2000      	movs	r0, #0
20004b94:	bd70      	pop	{r4, r5, r6, pc}
20004b96:	f013 0f02 	tst.w	r3, #2
20004b9a:	bf08      	it	eq
20004b9c:	6961      	ldreq	r1, [r4, #20]
20004b9e:	60a1      	str	r1, [r4, #8]
20004ba0:	2a00      	cmp	r2, #0
20004ba2:	d1f6      	bne.n	20004b92 <__swsetup_r+0x66>
20004ba4:	89a3      	ldrh	r3, [r4, #12]
20004ba6:	f013 0f80 	tst.w	r3, #128	; 0x80
20004baa:	d0f2      	beq.n	20004b92 <__swsetup_r+0x66>
20004bac:	f04f 30ff 	mov.w	r0, #4294967295
20004bb0:	bd70      	pop	{r4, r5, r6, pc}
20004bb2:	f001 f989 	bl	20005ec8 <__sinit>
20004bb6:	f249 6380 	movw	r3, #38528	; 0x9680
20004bba:	f2c2 0300 	movt	r3, #8192	; 0x2000
20004bbe:	429c      	cmp	r4, r3
20004bc0:	d1c6      	bne.n	20004b50 <__swsetup_r+0x24>
20004bc2:	682b      	ldr	r3, [r5, #0]
20004bc4:	685c      	ldr	r4, [r3, #4]
20004bc6:	e7d1      	b.n	20004b6c <__swsetup_r+0x40>
20004bc8:	f403 7120 	and.w	r1, r3, #640	; 0x280
20004bcc:	f5b1 7f00 	cmp.w	r1, #512	; 0x200
20004bd0:	d0d6      	beq.n	20004b80 <__swsetup_r+0x54>
20004bd2:	4630      	mov	r0, r6
20004bd4:	4621      	mov	r1, r4
20004bd6:	f001 fcff 	bl	200065d8 <__smakebuf_r>
20004bda:	89a3      	ldrh	r3, [r4, #12]
20004bdc:	6922      	ldr	r2, [r4, #16]
20004bde:	e7cf      	b.n	20004b80 <__swsetup_r+0x54>
20004be0:	682b      	ldr	r3, [r5, #0]
20004be2:	689c      	ldr	r4, [r3, #8]
20004be4:	e7c2      	b.n	20004b6c <__swsetup_r+0x40>
20004be6:	f013 0f10 	tst.w	r3, #16
20004bea:	d0df      	beq.n	20004bac <__swsetup_r+0x80>
20004bec:	f013 0f04 	tst.w	r3, #4
20004bf0:	bf08      	it	eq
20004bf2:	6922      	ldreq	r2, [r4, #16]
20004bf4:	d017      	beq.n	20004c26 <__swsetup_r+0xfa>
20004bf6:	6b61      	ldr	r1, [r4, #52]	; 0x34
20004bf8:	b151      	cbz	r1, 20004c10 <__swsetup_r+0xe4>
20004bfa:	f104 0344 	add.w	r3, r4, #68	; 0x44
20004bfe:	4299      	cmp	r1, r3
20004c00:	d003      	beq.n	20004c0a <__swsetup_r+0xde>
20004c02:	4630      	mov	r0, r6
20004c04:	f001 f9e4 	bl	20005fd0 <_free_r>
20004c08:	89a2      	ldrh	r2, [r4, #12]
20004c0a:	b290      	uxth	r0, r2
20004c0c:	2300      	movs	r3, #0
20004c0e:	6363      	str	r3, [r4, #52]	; 0x34
20004c10:	6922      	ldr	r2, [r4, #16]
20004c12:	f64f 71db 	movw	r1, #65499	; 0xffdb
20004c16:	f2c0 0100 	movt	r1, #0
20004c1a:	2300      	movs	r3, #0
20004c1c:	ea00 0101 	and.w	r1, r0, r1
20004c20:	6063      	str	r3, [r4, #4]
20004c22:	81a1      	strh	r1, [r4, #12]
20004c24:	6022      	str	r2, [r4, #0]
20004c26:	f041 0308 	orr.w	r3, r1, #8
20004c2a:	81a3      	strh	r3, [r4, #12]
20004c2c:	b29b      	uxth	r3, r3
20004c2e:	e7a6      	b.n	20004b7e <__swsetup_r+0x52>

20004c30 <quorem>:
20004c30:	e92d 4ff8 	stmdb	sp!, {r3, r4, r5, r6, r7, r8, r9, sl, fp, lr}
20004c34:	6903      	ldr	r3, [r0, #16]
20004c36:	690e      	ldr	r6, [r1, #16]
20004c38:	4682      	mov	sl, r0
20004c3a:	4689      	mov	r9, r1
20004c3c:	429e      	cmp	r6, r3
20004c3e:	f300 8083 	bgt.w	20004d48 <quorem+0x118>
20004c42:	1cf2      	adds	r2, r6, #3
20004c44:	f101 0514 	add.w	r5, r1, #20
20004c48:	f100 0414 	add.w	r4, r0, #20
20004c4c:	3e01      	subs	r6, #1
20004c4e:	0092      	lsls	r2, r2, #2
20004c50:	188b      	adds	r3, r1, r2
20004c52:	1812      	adds	r2, r2, r0
20004c54:	f103 0804 	add.w	r8, r3, #4
20004c58:	6859      	ldr	r1, [r3, #4]
20004c5a:	6850      	ldr	r0, [r2, #4]
20004c5c:	3101      	adds	r1, #1
20004c5e:	f003 fa8b 	bl	20008178 <__aeabi_uidiv>
20004c62:	4607      	mov	r7, r0
20004c64:	2800      	cmp	r0, #0
20004c66:	d039      	beq.n	20004cdc <quorem+0xac>
20004c68:	2300      	movs	r3, #0
20004c6a:	469c      	mov	ip, r3
20004c6c:	461a      	mov	r2, r3
20004c6e:	58e9      	ldr	r1, [r5, r3]
20004c70:	58e0      	ldr	r0, [r4, r3]
20004c72:	fa1f fe81 	uxth.w	lr, r1
20004c76:	ea4f 4b11 	mov.w	fp, r1, lsr #16
20004c7a:	b281      	uxth	r1, r0
20004c7c:	fb0e ce07 	mla	lr, lr, r7, ip
20004c80:	1851      	adds	r1, r2, r1
20004c82:	fb0b fc07 	mul.w	ip, fp, r7
20004c86:	eb0c 4c1e 	add.w	ip, ip, lr, lsr #16
20004c8a:	fa1f fe8e 	uxth.w	lr, lr
20004c8e:	ebce 0101 	rsb	r1, lr, r1
20004c92:	fa1f f28c 	uxth.w	r2, ip
20004c96:	ea4f 4c1c 	mov.w	ip, ip, lsr #16
20004c9a:	ebc2 4210 	rsb	r2, r2, r0, lsr #16
20004c9e:	fa1f fe81 	uxth.w	lr, r1
20004ca2:	eb02 4221 	add.w	r2, r2, r1, asr #16
20004ca6:	ea4e 4102 	orr.w	r1, lr, r2, lsl #16
20004caa:	50e1      	str	r1, [r4, r3]
20004cac:	3304      	adds	r3, #4
20004cae:	1412      	asrs	r2, r2, #16
20004cb0:	1959      	adds	r1, r3, r5
20004cb2:	4588      	cmp	r8, r1
20004cb4:	d2db      	bcs.n	20004c6e <quorem+0x3e>
20004cb6:	1d32      	adds	r2, r6, #4
20004cb8:	eb0a 0382 	add.w	r3, sl, r2, lsl #2
20004cbc:	6859      	ldr	r1, [r3, #4]
20004cbe:	b969      	cbnz	r1, 20004cdc <quorem+0xac>
20004cc0:	429c      	cmp	r4, r3
20004cc2:	d209      	bcs.n	20004cd8 <quorem+0xa8>
20004cc4:	f85a 2022 	ldr.w	r2, [sl, r2, lsl #2]
20004cc8:	b112      	cbz	r2, 20004cd0 <quorem+0xa0>
20004cca:	e005      	b.n	20004cd8 <quorem+0xa8>
20004ccc:	681a      	ldr	r2, [r3, #0]
20004cce:	b91a      	cbnz	r2, 20004cd8 <quorem+0xa8>
20004cd0:	3b04      	subs	r3, #4
20004cd2:	3e01      	subs	r6, #1
20004cd4:	429c      	cmp	r4, r3
20004cd6:	d3f9      	bcc.n	20004ccc <quorem+0x9c>
20004cd8:	f8ca 6010 	str.w	r6, [sl, #16]
20004cdc:	4649      	mov	r1, r9
20004cde:	4650      	mov	r0, sl
20004ce0:	f002 f97e 	bl	20006fe0 <__mcmp>
20004ce4:	2800      	cmp	r0, #0
20004ce6:	db2c      	blt.n	20004d42 <quorem+0x112>
20004ce8:	2300      	movs	r3, #0
20004cea:	3701      	adds	r7, #1
20004cec:	469c      	mov	ip, r3
20004cee:	58ea      	ldr	r2, [r5, r3]
20004cf0:	58e0      	ldr	r0, [r4, r3]
20004cf2:	b291      	uxth	r1, r2
20004cf4:	0c12      	lsrs	r2, r2, #16
20004cf6:	fa1f f980 	uxth.w	r9, r0
20004cfa:	ebc2 4210 	rsb	r2, r2, r0, lsr #16
20004cfe:	ebc1 0109 	rsb	r1, r1, r9
20004d02:	4461      	add	r1, ip
20004d04:	eb02 4221 	add.w	r2, r2, r1, asr #16
20004d08:	b289      	uxth	r1, r1
20004d0a:	ea41 4102 	orr.w	r1, r1, r2, lsl #16
20004d0e:	50e1      	str	r1, [r4, r3]
20004d10:	3304      	adds	r3, #4
20004d12:	ea4f 4c22 	mov.w	ip, r2, asr #16
20004d16:	195a      	adds	r2, r3, r5
20004d18:	4590      	cmp	r8, r2
20004d1a:	d2e8      	bcs.n	20004cee <quorem+0xbe>
20004d1c:	1d32      	adds	r2, r6, #4
20004d1e:	eb0a 0382 	add.w	r3, sl, r2, lsl #2
20004d22:	6859      	ldr	r1, [r3, #4]
20004d24:	b969      	cbnz	r1, 20004d42 <quorem+0x112>
20004d26:	429c      	cmp	r4, r3
20004d28:	d209      	bcs.n	20004d3e <quorem+0x10e>
20004d2a:	f85a 2022 	ldr.w	r2, [sl, r2, lsl #2]
20004d2e:	b112      	cbz	r2, 20004d36 <quorem+0x106>
20004d30:	e005      	b.n	20004d3e <quorem+0x10e>
20004d32:	681a      	ldr	r2, [r3, #0]
20004d34:	b91a      	cbnz	r2, 20004d3e <quorem+0x10e>
20004d36:	3b04      	subs	r3, #4
20004d38:	3e01      	subs	r6, #1
20004d3a:	429c      	cmp	r4, r3
20004d3c:	d3f9      	bcc.n	20004d32 <quorem+0x102>
20004d3e:	f8ca 6010 	str.w	r6, [sl, #16]
20004d42:	4638      	mov	r0, r7
20004d44:	e8bd 8ff8 	ldmia.w	sp!, {r3, r4, r5, r6, r7, r8, r9, sl, fp, pc}
20004d48:	2000      	movs	r0, #0
20004d4a:	e8bd 8ff8 	ldmia.w	sp!, {r3, r4, r5, r6, r7, r8, r9, sl, fp, pc}
20004d4e:	bf00      	nop

20004d50 <_dtoa_r>:
20004d50:	e92d 4ff0 	stmdb	sp!, {r4, r5, r6, r7, r8, r9, sl, fp, lr}
20004d54:	6a46      	ldr	r6, [r0, #36]	; 0x24
20004d56:	b0a1      	sub	sp, #132	; 0x84
20004d58:	4604      	mov	r4, r0
20004d5a:	4690      	mov	r8, r2
20004d5c:	4699      	mov	r9, r3
20004d5e:	9d2d      	ldr	r5, [sp, #180]	; 0xb4
20004d60:	2e00      	cmp	r6, #0
20004d62:	f000 8423 	beq.w	200055ac <_dtoa_r+0x85c>
20004d66:	6832      	ldr	r2, [r6, #0]
20004d68:	b182      	cbz	r2, 20004d8c <_dtoa_r+0x3c>
20004d6a:	6a61      	ldr	r1, [r4, #36]	; 0x24
20004d6c:	f04f 0c01 	mov.w	ip, #1
20004d70:	6876      	ldr	r6, [r6, #4]
20004d72:	4620      	mov	r0, r4
20004d74:	680b      	ldr	r3, [r1, #0]
20004d76:	6056      	str	r6, [r2, #4]
20004d78:	684a      	ldr	r2, [r1, #4]
20004d7a:	4619      	mov	r1, r3
20004d7c:	fa0c f202 	lsl.w	r2, ip, r2
20004d80:	609a      	str	r2, [r3, #8]
20004d82:	f002 fa67 	bl	20007254 <_Bfree>
20004d86:	6a63      	ldr	r3, [r4, #36]	; 0x24
20004d88:	2200      	movs	r2, #0
20004d8a:	601a      	str	r2, [r3, #0]
20004d8c:	f1b9 0600 	subs.w	r6, r9, #0
20004d90:	db38      	blt.n	20004e04 <_dtoa_r+0xb4>
20004d92:	2300      	movs	r3, #0
20004d94:	602b      	str	r3, [r5, #0]
20004d96:	f240 0300 	movw	r3, #0
20004d9a:	f6c7 73f0 	movt	r3, #32752	; 0x7ff0
20004d9e:	461a      	mov	r2, r3
20004da0:	ea06 0303 	and.w	r3, r6, r3
20004da4:	4293      	cmp	r3, r2
20004da6:	d017      	beq.n	20004dd8 <_dtoa_r+0x88>
20004da8:	2200      	movs	r2, #0
20004daa:	2300      	movs	r3, #0
20004dac:	4640      	mov	r0, r8
20004dae:	4649      	mov	r1, r9
20004db0:	e9cd 8906 	strd	r8, r9, [sp, #24]
20004db4:	f003 ff3e 	bl	20008c34 <__aeabi_dcmpeq>
20004db8:	2800      	cmp	r0, #0
20004dba:	d029      	beq.n	20004e10 <_dtoa_r+0xc0>
20004dbc:	982c      	ldr	r0, [sp, #176]	; 0xb0
20004dbe:	2301      	movs	r3, #1
20004dc0:	992e      	ldr	r1, [sp, #184]	; 0xb8
20004dc2:	6003      	str	r3, [r0, #0]
20004dc4:	2900      	cmp	r1, #0
20004dc6:	f000 80d0 	beq.w	20004f6a <_dtoa_r+0x21a>
20004dca:	4b79      	ldr	r3, [pc, #484]	; (20004fb0 <_dtoa_r+0x260>)
20004dcc:	1e58      	subs	r0, r3, #1
20004dce:	9a2e      	ldr	r2, [sp, #184]	; 0xb8
20004dd0:	6013      	str	r3, [r2, #0]
20004dd2:	b021      	add	sp, #132	; 0x84
20004dd4:	e8bd 8ff0 	ldmia.w	sp!, {r4, r5, r6, r7, r8, r9, sl, fp, pc}
20004dd8:	982c      	ldr	r0, [sp, #176]	; 0xb0
20004dda:	f242 730f 	movw	r3, #9999	; 0x270f
20004dde:	6003      	str	r3, [r0, #0]
20004de0:	f1b8 0f00 	cmp.w	r8, #0
20004de4:	f000 8095 	beq.w	20004f12 <_dtoa_r+0x1c2>
20004de8:	f249 607c 	movw	r0, #38524	; 0x967c
20004dec:	f2c2 0000 	movt	r0, #8192	; 0x2000
20004df0:	992e      	ldr	r1, [sp, #184]	; 0xb8
20004df2:	2900      	cmp	r1, #0
20004df4:	d0ed      	beq.n	20004dd2 <_dtoa_r+0x82>
20004df6:	78c2      	ldrb	r2, [r0, #3]
20004df8:	1cc3      	adds	r3, r0, #3
20004dfa:	2a00      	cmp	r2, #0
20004dfc:	d0e7      	beq.n	20004dce <_dtoa_r+0x7e>
20004dfe:	f100 0308 	add.w	r3, r0, #8
20004e02:	e7e4      	b.n	20004dce <_dtoa_r+0x7e>
20004e04:	f026 4600 	bic.w	r6, r6, #2147483648	; 0x80000000
20004e08:	2301      	movs	r3, #1
20004e0a:	46b1      	mov	r9, r6
20004e0c:	602b      	str	r3, [r5, #0]
20004e0e:	e7c2      	b.n	20004d96 <_dtoa_r+0x46>
20004e10:	4620      	mov	r0, r4
20004e12:	e9dd 2306 	ldrd	r2, r3, [sp, #24]
20004e16:	a91e      	add	r1, sp, #120	; 0x78
20004e18:	9100      	str	r1, [sp, #0]
20004e1a:	a91f      	add	r1, sp, #124	; 0x7c
20004e1c:	9101      	str	r1, [sp, #4]
20004e1e:	f002 fa6b 	bl	200072f8 <__d2b>
20004e22:	f3c6 550a 	ubfx	r5, r6, #20, #11
20004e26:	4683      	mov	fp, r0
20004e28:	2d00      	cmp	r5, #0
20004e2a:	d07e      	beq.n	20004f2a <_dtoa_r+0x1da>
20004e2c:	e9dd 0106 	ldrd	r0, r1, [sp, #24]
20004e30:	f5a5 757e 	sub.w	r5, r5, #1016	; 0x3f8
20004e34:	9f1f      	ldr	r7, [sp, #124]	; 0x7c
20004e36:	3d07      	subs	r5, #7
20004e38:	f021 437f 	bic.w	r3, r1, #4278190080	; 0xff000000
20004e3c:	f423 0370 	bic.w	r3, r3, #15728640	; 0xf00000
20004e40:	f043 517e 	orr.w	r1, r3, #1065353216	; 0x3f800000
20004e44:	2300      	movs	r3, #0
20004e46:	f441 01e0 	orr.w	r1, r1, #7340032	; 0x700000
20004e4a:	9319      	str	r3, [sp, #100]	; 0x64
20004e4c:	f240 0300 	movw	r3, #0
20004e50:	2200      	movs	r2, #0
20004e52:	f6c3 73f8 	movt	r3, #16376	; 0x3ff8
20004e56:	f003 fad1 	bl	200083fc <__aeabi_dsub>
20004e5a:	a34f      	add	r3, pc, #316	; (adr r3, 20004f98 <_dtoa_r+0x248>)
20004e5c:	e9d3 2300 	ldrd	r2, r3, [r3]
20004e60:	f003 fc80 	bl	20008764 <__aeabi_dmul>
20004e64:	a34e      	add	r3, pc, #312	; (adr r3, 20004fa0 <_dtoa_r+0x250>)
20004e66:	e9d3 2300 	ldrd	r2, r3, [r3]
20004e6a:	f003 fac9 	bl	20008400 <__adddf3>
20004e6e:	e9cd 0108 	strd	r0, r1, [sp, #32]
20004e72:	4628      	mov	r0, r5
20004e74:	f003 fc10 	bl	20008698 <__aeabi_i2d>
20004e78:	a34b      	add	r3, pc, #300	; (adr r3, 20004fa8 <_dtoa_r+0x258>)
20004e7a:	e9d3 2300 	ldrd	r2, r3, [r3]
20004e7e:	f003 fc71 	bl	20008764 <__aeabi_dmul>
20004e82:	4602      	mov	r2, r0
20004e84:	460b      	mov	r3, r1
20004e86:	e9dd 0108 	ldrd	r0, r1, [sp, #32]
20004e8a:	f003 fab9 	bl	20008400 <__adddf3>
20004e8e:	e9cd 0108 	strd	r0, r1, [sp, #32]
20004e92:	f003 ff01 	bl	20008c98 <__aeabi_d2iz>
20004e96:	2200      	movs	r2, #0
20004e98:	2300      	movs	r3, #0
20004e9a:	4606      	mov	r6, r0
20004e9c:	e9dd 0108 	ldrd	r0, r1, [sp, #32]
20004ea0:	f003 fed2 	bl	20008c48 <__aeabi_dcmplt>
20004ea4:	b140      	cbz	r0, 20004eb8 <_dtoa_r+0x168>
20004ea6:	4630      	mov	r0, r6
20004ea8:	f003 fbf6 	bl	20008698 <__aeabi_i2d>
20004eac:	e9dd 2308 	ldrd	r2, r3, [sp, #32]
20004eb0:	f003 fec0 	bl	20008c34 <__aeabi_dcmpeq>
20004eb4:	b900      	cbnz	r0, 20004eb8 <_dtoa_r+0x168>
20004eb6:	3e01      	subs	r6, #1
20004eb8:	2e16      	cmp	r6, #22
20004eba:	d95b      	bls.n	20004f74 <_dtoa_r+0x224>
20004ebc:	2301      	movs	r3, #1
20004ebe:	9318      	str	r3, [sp, #96]	; 0x60
20004ec0:	3f01      	subs	r7, #1
20004ec2:	ebb7 0a05 	subs.w	sl, r7, r5
20004ec6:	bf42      	ittt	mi
20004ec8:	f1ca 0a00 	rsbmi	sl, sl, #0
20004ecc:	f8cd a03c 	strmi.w	sl, [sp, #60]	; 0x3c
20004ed0:	f04f 0a00 	movmi.w	sl, #0
20004ed4:	d401      	bmi.n	20004eda <_dtoa_r+0x18a>
20004ed6:	2200      	movs	r2, #0
20004ed8:	920f      	str	r2, [sp, #60]	; 0x3c
20004eda:	2e00      	cmp	r6, #0
20004edc:	f2c0 8371 	blt.w	200055c2 <_dtoa_r+0x872>
20004ee0:	44b2      	add	sl, r6
20004ee2:	2300      	movs	r3, #0
20004ee4:	9617      	str	r6, [sp, #92]	; 0x5c
20004ee6:	9315      	str	r3, [sp, #84]	; 0x54
20004ee8:	9b2a      	ldr	r3, [sp, #168]	; 0xa8
20004eea:	2b09      	cmp	r3, #9
20004eec:	d862      	bhi.n	20004fb4 <_dtoa_r+0x264>
20004eee:	2b05      	cmp	r3, #5
20004ef0:	f340 8677 	ble.w	20005be2 <_dtoa_r+0xe92>
20004ef4:	982a      	ldr	r0, [sp, #168]	; 0xa8
20004ef6:	2700      	movs	r7, #0
20004ef8:	3804      	subs	r0, #4
20004efa:	902a      	str	r0, [sp, #168]	; 0xa8
20004efc:	992a      	ldr	r1, [sp, #168]	; 0xa8
20004efe:	1e8b      	subs	r3, r1, #2
20004f00:	2b03      	cmp	r3, #3
20004f02:	f200 83dd 	bhi.w	200056c0 <_dtoa_r+0x970>
20004f06:	e8df f013 	tbh	[pc, r3, lsl #1]
20004f0a:	03a5      	.short	0x03a5
20004f0c:	03d503d8 	.word	0x03d503d8
20004f10:	03c4      	.short	0x03c4
20004f12:	f026 467f 	bic.w	r6, r6, #4278190080	; 0xff000000
20004f16:	f426 0670 	bic.w	r6, r6, #15728640	; 0xf00000
20004f1a:	2e00      	cmp	r6, #0
20004f1c:	f47f af64 	bne.w	20004de8 <_dtoa_r+0x98>
20004f20:	f249 6070 	movw	r0, #38512	; 0x9670
20004f24:	f2c2 0000 	movt	r0, #8192	; 0x2000
20004f28:	e762      	b.n	20004df0 <_dtoa_r+0xa0>
20004f2a:	9f1f      	ldr	r7, [sp, #124]	; 0x7c
20004f2c:	9b1e      	ldr	r3, [sp, #120]	; 0x78
20004f2e:	18fb      	adds	r3, r7, r3
20004f30:	f503 6386 	add.w	r3, r3, #1072	; 0x430
20004f34:	1c9d      	adds	r5, r3, #2
20004f36:	2d20      	cmp	r5, #32
20004f38:	bfdc      	itt	le
20004f3a:	f1c5 0020 	rsble	r0, r5, #32
20004f3e:	fa08 f000 	lslle.w	r0, r8, r0
20004f42:	dd08      	ble.n	20004f56 <_dtoa_r+0x206>
20004f44:	3b1e      	subs	r3, #30
20004f46:	f1c5 0240 	rsb	r2, r5, #64	; 0x40
20004f4a:	fa16 f202 	lsls.w	r2, r6, r2
20004f4e:	fa28 f303 	lsr.w	r3, r8, r3
20004f52:	ea42 0003 	orr.w	r0, r2, r3
20004f56:	f003 fb8f 	bl	20008678 <__aeabi_ui2d>
20004f5a:	f5a5 6586 	sub.w	r5, r5, #1072	; 0x430
20004f5e:	2201      	movs	r2, #1
20004f60:	3d03      	subs	r5, #3
20004f62:	9219      	str	r2, [sp, #100]	; 0x64
20004f64:	f1a1 71f8 	sub.w	r1, r1, #32505856	; 0x1f00000
20004f68:	e770      	b.n	20004e4c <_dtoa_r+0xfc>
20004f6a:	f249 606c 	movw	r0, #38508	; 0x966c
20004f6e:	f2c2 0000 	movt	r0, #8192	; 0x2000
20004f72:	e72e      	b.n	20004dd2 <_dtoa_r+0x82>
20004f74:	f249 7328 	movw	r3, #38696	; 0x9728
20004f78:	e9dd 0106 	ldrd	r0, r1, [sp, #24]
20004f7c:	f2c2 0300 	movt	r3, #8192	; 0x2000
20004f80:	eb03 03c6 	add.w	r3, r3, r6, lsl #3
20004f84:	e9d3 2300 	ldrd	r2, r3, [r3]
20004f88:	f003 fe5e 	bl	20008c48 <__aeabi_dcmplt>
20004f8c:	2800      	cmp	r0, #0
20004f8e:	f040 8320 	bne.w	200055d2 <_dtoa_r+0x882>
20004f92:	9018      	str	r0, [sp, #96]	; 0x60
20004f94:	e794      	b.n	20004ec0 <_dtoa_r+0x170>
20004f96:	bf00      	nop
20004f98:	636f4361 	.word	0x636f4361
20004f9c:	3fd287a7 	.word	0x3fd287a7
20004fa0:	8b60c8b3 	.word	0x8b60c8b3
20004fa4:	3fc68a28 	.word	0x3fc68a28
20004fa8:	509f79fb 	.word	0x509f79fb
20004fac:	3fd34413 	.word	0x3fd34413
20004fb0:	2000966d 	.word	0x2000966d
20004fb4:	2300      	movs	r3, #0
20004fb6:	f04f 30ff 	mov.w	r0, #4294967295
20004fba:	461f      	mov	r7, r3
20004fbc:	2101      	movs	r1, #1
20004fbe:	932a      	str	r3, [sp, #168]	; 0xa8
20004fc0:	9011      	str	r0, [sp, #68]	; 0x44
20004fc2:	9116      	str	r1, [sp, #88]	; 0x58
20004fc4:	9008      	str	r0, [sp, #32]
20004fc6:	932b      	str	r3, [sp, #172]	; 0xac
20004fc8:	6a65      	ldr	r5, [r4, #36]	; 0x24
20004fca:	2300      	movs	r3, #0
20004fcc:	606b      	str	r3, [r5, #4]
20004fce:	4620      	mov	r0, r4
20004fd0:	6869      	ldr	r1, [r5, #4]
20004fd2:	f002 f95b 	bl	2000728c <_Balloc>
20004fd6:	6a63      	ldr	r3, [r4, #36]	; 0x24
20004fd8:	6028      	str	r0, [r5, #0]
20004fda:	681b      	ldr	r3, [r3, #0]
20004fdc:	9310      	str	r3, [sp, #64]	; 0x40
20004fde:	2f00      	cmp	r7, #0
20004fe0:	f000 815b 	beq.w	2000529a <_dtoa_r+0x54a>
20004fe4:	2e00      	cmp	r6, #0
20004fe6:	f340 842a 	ble.w	2000583e <_dtoa_r+0xaee>
20004fea:	f249 7328 	movw	r3, #38696	; 0x9728
20004fee:	f006 020f 	and.w	r2, r6, #15
20004ff2:	f2c2 0300 	movt	r3, #8192	; 0x2000
20004ff6:	1135      	asrs	r5, r6, #4
20004ff8:	eb03 03c2 	add.w	r3, r3, r2, lsl #3
20004ffc:	f015 0f10 	tst.w	r5, #16
20005000:	e9d3 0100 	ldrd	r0, r1, [r3]
20005004:	e9cd 010c 	strd	r0, r1, [sp, #48]	; 0x30
20005008:	f000 82e7 	beq.w	200055da <_dtoa_r+0x88a>
2000500c:	f649 0300 	movw	r3, #38912	; 0x9800
20005010:	e9dd 0106 	ldrd	r0, r1, [sp, #24]
20005014:	f2c2 0300 	movt	r3, #8192	; 0x2000
20005018:	f005 050f 	and.w	r5, r5, #15
2000501c:	f04f 0803 	mov.w	r8, #3
20005020:	e9d3 2308 	ldrd	r2, r3, [r3, #32]
20005024:	f003 fcc8 	bl	200089b8 <__aeabi_ddiv>
20005028:	e9cd 0112 	strd	r0, r1, [sp, #72]	; 0x48
2000502c:	b1bd      	cbz	r5, 2000505e <_dtoa_r+0x30e>
2000502e:	f649 0700 	movw	r7, #38912	; 0x9800
20005032:	e9dd 230c 	ldrd	r2, r3, [sp, #48]	; 0x30
20005036:	f2c2 0700 	movt	r7, #8192	; 0x2000
2000503a:	f015 0f01 	tst.w	r5, #1
2000503e:	4610      	mov	r0, r2
20005040:	4619      	mov	r1, r3
20005042:	d007      	beq.n	20005054 <_dtoa_r+0x304>
20005044:	e9d7 2300 	ldrd	r2, r3, [r7]
20005048:	f108 0801 	add.w	r8, r8, #1
2000504c:	f003 fb8a 	bl	20008764 <__aeabi_dmul>
20005050:	4602      	mov	r2, r0
20005052:	460b      	mov	r3, r1
20005054:	3708      	adds	r7, #8
20005056:	106d      	asrs	r5, r5, #1
20005058:	d1ef      	bne.n	2000503a <_dtoa_r+0x2ea>
2000505a:	e9cd 230c 	strd	r2, r3, [sp, #48]	; 0x30
2000505e:	e9dd 230c 	ldrd	r2, r3, [sp, #48]	; 0x30
20005062:	e9dd 0112 	ldrd	r0, r1, [sp, #72]	; 0x48
20005066:	f003 fca7 	bl	200089b8 <__aeabi_ddiv>
2000506a:	e9cd 010c 	strd	r0, r1, [sp, #48]	; 0x30
2000506e:	9918      	ldr	r1, [sp, #96]	; 0x60
20005070:	2900      	cmp	r1, #0
20005072:	f000 80de 	beq.w	20005232 <_dtoa_r+0x4e2>
20005076:	f240 0300 	movw	r3, #0
2000507a:	e9dd 010c 	ldrd	r0, r1, [sp, #48]	; 0x30
2000507e:	2200      	movs	r2, #0
20005080:	f6c3 73f0 	movt	r3, #16368	; 0x3ff0
20005084:	f04f 0500 	mov.w	r5, #0
20005088:	f003 fdde 	bl	20008c48 <__aeabi_dcmplt>
2000508c:	b108      	cbz	r0, 20005092 <_dtoa_r+0x342>
2000508e:	f04f 0501 	mov.w	r5, #1
20005092:	9a08      	ldr	r2, [sp, #32]
20005094:	2a00      	cmp	r2, #0
20005096:	bfd4      	ite	le
20005098:	2500      	movle	r5, #0
2000509a:	f005 0501 	andgt.w	r5, r5, #1
2000509e:	2d00      	cmp	r5, #0
200050a0:	f000 80c7 	beq.w	20005232 <_dtoa_r+0x4e2>
200050a4:	9b11      	ldr	r3, [sp, #68]	; 0x44
200050a6:	2b00      	cmp	r3, #0
200050a8:	f340 80f5 	ble.w	20005296 <_dtoa_r+0x546>
200050ac:	f240 0300 	movw	r3, #0
200050b0:	2200      	movs	r2, #0
200050b2:	f2c4 0324 	movt	r3, #16420	; 0x4024
200050b6:	e9dd 010c 	ldrd	r0, r1, [sp, #48]	; 0x30
200050ba:	f003 fb53 	bl	20008764 <__aeabi_dmul>
200050be:	e9cd 010c 	strd	r0, r1, [sp, #48]	; 0x30
200050c2:	f108 0001 	add.w	r0, r8, #1
200050c6:	1e71      	subs	r1, r6, #1
200050c8:	9112      	str	r1, [sp, #72]	; 0x48
200050ca:	f003 fae5 	bl	20008698 <__aeabi_i2d>
200050ce:	4602      	mov	r2, r0
200050d0:	460b      	mov	r3, r1
200050d2:	e9dd 010c 	ldrd	r0, r1, [sp, #48]	; 0x30
200050d6:	f003 fb45 	bl	20008764 <__aeabi_dmul>
200050da:	f240 0300 	movw	r3, #0
200050de:	2200      	movs	r2, #0
200050e0:	f2c4 031c 	movt	r3, #16412	; 0x401c
200050e4:	f003 f98c 	bl	20008400 <__adddf3>
200050e8:	f8dd c044 	ldr.w	ip, [sp, #68]	; 0x44
200050ec:	4680      	mov	r8, r0
200050ee:	f1a1 7950 	sub.w	r9, r1, #54525952	; 0x3400000
200050f2:	9b16      	ldr	r3, [sp, #88]	; 0x58
200050f4:	2b00      	cmp	r3, #0
200050f6:	f000 83ad 	beq.w	20005854 <_dtoa_r+0xb04>
200050fa:	f249 7328 	movw	r3, #38696	; 0x9728
200050fe:	f240 0100 	movw	r1, #0
20005102:	f2c2 0300 	movt	r3, #8192	; 0x2000
20005106:	2000      	movs	r0, #0
20005108:	eb03 03cc 	add.w	r3, r3, ip, lsl #3
2000510c:	f6c3 71e0 	movt	r1, #16352	; 0x3fe0
20005110:	f8cd c00c 	str.w	ip, [sp, #12]
20005114:	e953 2302 	ldrd	r2, r3, [r3, #-8]
20005118:	f003 fc4e 	bl	200089b8 <__aeabi_ddiv>
2000511c:	4642      	mov	r2, r8
2000511e:	464b      	mov	r3, r9
20005120:	9d10      	ldr	r5, [sp, #64]	; 0x40
20005122:	f003 f96b 	bl	200083fc <__aeabi_dsub>
20005126:	4680      	mov	r8, r0
20005128:	4689      	mov	r9, r1
2000512a:	e9dd 010c 	ldrd	r0, r1, [sp, #48]	; 0x30
2000512e:	f003 fdb3 	bl	20008c98 <__aeabi_d2iz>
20005132:	4607      	mov	r7, r0
20005134:	f003 fab0 	bl	20008698 <__aeabi_i2d>
20005138:	4602      	mov	r2, r0
2000513a:	460b      	mov	r3, r1
2000513c:	e9dd 010c 	ldrd	r0, r1, [sp, #48]	; 0x30
20005140:	f003 f95c 	bl	200083fc <__aeabi_dsub>
20005144:	f107 0330 	add.w	r3, r7, #48	; 0x30
20005148:	e9cd 010c 	strd	r0, r1, [sp, #48]	; 0x30
2000514c:	4640      	mov	r0, r8
2000514e:	f805 3b01 	strb.w	r3, [r5], #1
20005152:	4649      	mov	r1, r9
20005154:	e9dd 230c 	ldrd	r2, r3, [sp, #48]	; 0x30
20005158:	f003 fd94 	bl	20008c84 <__aeabi_dcmpgt>
2000515c:	2800      	cmp	r0, #0
2000515e:	f040 8213 	bne.w	20005588 <_dtoa_r+0x838>
20005162:	f240 0100 	movw	r1, #0
20005166:	e9dd 230c 	ldrd	r2, r3, [sp, #48]	; 0x30
2000516a:	2000      	movs	r0, #0
2000516c:	f6c3 71f0 	movt	r1, #16368	; 0x3ff0
20005170:	f003 f944 	bl	200083fc <__aeabi_dsub>
20005174:	4602      	mov	r2, r0
20005176:	460b      	mov	r3, r1
20005178:	4640      	mov	r0, r8
2000517a:	4649      	mov	r1, r9
2000517c:	f003 fd82 	bl	20008c84 <__aeabi_dcmpgt>
20005180:	f8dd c00c 	ldr.w	ip, [sp, #12]
20005184:	2800      	cmp	r0, #0
20005186:	f040 83e7 	bne.w	20005958 <_dtoa_r+0xc08>
2000518a:	f1bc 0f01 	cmp.w	ip, #1
2000518e:	f340 8082 	ble.w	20005296 <_dtoa_r+0x546>
20005192:	f8cd b068 	str.w	fp, [sp, #104]	; 0x68
20005196:	2701      	movs	r7, #1
20005198:	f8cd a070 	str.w	sl, [sp, #112]	; 0x70
2000519c:	961d      	str	r6, [sp, #116]	; 0x74
2000519e:	4666      	mov	r6, ip
200051a0:	e9dd ab0c 	ldrd	sl, fp, [sp, #48]	; 0x30
200051a4:	940c      	str	r4, [sp, #48]	; 0x30
200051a6:	e010      	b.n	200051ca <_dtoa_r+0x47a>
200051a8:	f240 0100 	movw	r1, #0
200051ac:	2000      	movs	r0, #0
200051ae:	f6c3 71f0 	movt	r1, #16368	; 0x3ff0
200051b2:	f003 f923 	bl	200083fc <__aeabi_dsub>
200051b6:	4642      	mov	r2, r8
200051b8:	464b      	mov	r3, r9
200051ba:	f003 fd45 	bl	20008c48 <__aeabi_dcmplt>
200051be:	2800      	cmp	r0, #0
200051c0:	f040 83c7 	bne.w	20005952 <_dtoa_r+0xc02>
200051c4:	42b7      	cmp	r7, r6
200051c6:	f280 848b 	bge.w	20005ae0 <_dtoa_r+0xd90>
200051ca:	f240 0300 	movw	r3, #0
200051ce:	4640      	mov	r0, r8
200051d0:	4649      	mov	r1, r9
200051d2:	2200      	movs	r2, #0
200051d4:	f2c4 0324 	movt	r3, #16420	; 0x4024
200051d8:	3501      	adds	r5, #1
200051da:	f003 fac3 	bl	20008764 <__aeabi_dmul>
200051de:	f240 0300 	movw	r3, #0
200051e2:	2200      	movs	r2, #0
200051e4:	f2c4 0324 	movt	r3, #16420	; 0x4024
200051e8:	4680      	mov	r8, r0
200051ea:	4689      	mov	r9, r1
200051ec:	4650      	mov	r0, sl
200051ee:	4659      	mov	r1, fp
200051f0:	f003 fab8 	bl	20008764 <__aeabi_dmul>
200051f4:	468b      	mov	fp, r1
200051f6:	4682      	mov	sl, r0
200051f8:	f003 fd4e 	bl	20008c98 <__aeabi_d2iz>
200051fc:	4604      	mov	r4, r0
200051fe:	f003 fa4b 	bl	20008698 <__aeabi_i2d>
20005202:	3430      	adds	r4, #48	; 0x30
20005204:	4602      	mov	r2, r0
20005206:	460b      	mov	r3, r1
20005208:	4650      	mov	r0, sl
2000520a:	4659      	mov	r1, fp
2000520c:	f003 f8f6 	bl	200083fc <__aeabi_dsub>
20005210:	9a10      	ldr	r2, [sp, #64]	; 0x40
20005212:	464b      	mov	r3, r9
20005214:	55d4      	strb	r4, [r2, r7]
20005216:	4642      	mov	r2, r8
20005218:	3701      	adds	r7, #1
2000521a:	4682      	mov	sl, r0
2000521c:	468b      	mov	fp, r1
2000521e:	f003 fd13 	bl	20008c48 <__aeabi_dcmplt>
20005222:	4652      	mov	r2, sl
20005224:	465b      	mov	r3, fp
20005226:	2800      	cmp	r0, #0
20005228:	d0be      	beq.n	200051a8 <_dtoa_r+0x458>
2000522a:	f8dd b068 	ldr.w	fp, [sp, #104]	; 0x68
2000522e:	9c0c      	ldr	r4, [sp, #48]	; 0x30
20005230:	e1aa      	b.n	20005588 <_dtoa_r+0x838>
20005232:	4640      	mov	r0, r8
20005234:	f003 fa30 	bl	20008698 <__aeabi_i2d>
20005238:	e9dd 230c 	ldrd	r2, r3, [sp, #48]	; 0x30
2000523c:	f003 fa92 	bl	20008764 <__aeabi_dmul>
20005240:	f240 0300 	movw	r3, #0
20005244:	2200      	movs	r2, #0
20005246:	f2c4 031c 	movt	r3, #16412	; 0x401c
2000524a:	f003 f8d9 	bl	20008400 <__adddf3>
2000524e:	9a08      	ldr	r2, [sp, #32]
20005250:	f1a1 7550 	sub.w	r5, r1, #54525952	; 0x3400000
20005254:	4680      	mov	r8, r0
20005256:	46a9      	mov	r9, r5
20005258:	2a00      	cmp	r2, #0
2000525a:	f040 82ec 	bne.w	20005836 <_dtoa_r+0xae6>
2000525e:	f240 0300 	movw	r3, #0
20005262:	e9dd 010c 	ldrd	r0, r1, [sp, #48]	; 0x30
20005266:	2200      	movs	r2, #0
20005268:	f2c4 0314 	movt	r3, #16404	; 0x4014
2000526c:	f003 f8c6 	bl	200083fc <__aeabi_dsub>
20005270:	4642      	mov	r2, r8
20005272:	462b      	mov	r3, r5
20005274:	e9cd 010c 	strd	r0, r1, [sp, #48]	; 0x30
20005278:	f003 fd04 	bl	20008c84 <__aeabi_dcmpgt>
2000527c:	2800      	cmp	r0, #0
2000527e:	f040 824a 	bne.w	20005716 <_dtoa_r+0x9c6>
20005282:	4642      	mov	r2, r8
20005284:	e9dd 010c 	ldrd	r0, r1, [sp, #48]	; 0x30
20005288:	f105 4300 	add.w	r3, r5, #2147483648	; 0x80000000
2000528c:	f003 fcdc 	bl	20008c48 <__aeabi_dcmplt>
20005290:	2800      	cmp	r0, #0
20005292:	f040 81d5 	bne.w	20005640 <_dtoa_r+0x8f0>
20005296:	e9dd 8906 	ldrd	r8, r9, [sp, #24]
2000529a:	9b1e      	ldr	r3, [sp, #120]	; 0x78
2000529c:	ea6f 0703 	mvn.w	r7, r3
200052a0:	ea4f 77d7 	mov.w	r7, r7, lsr #31
200052a4:	2e0e      	cmp	r6, #14
200052a6:	bfcc      	ite	gt
200052a8:	2700      	movgt	r7, #0
200052aa:	f007 0701 	andle.w	r7, r7, #1
200052ae:	2f00      	cmp	r7, #0
200052b0:	f000 80b7 	beq.w	20005422 <_dtoa_r+0x6d2>
200052b4:	982b      	ldr	r0, [sp, #172]	; 0xac
200052b6:	f249 7328 	movw	r3, #38696	; 0x9728
200052ba:	f2c2 0300 	movt	r3, #8192	; 0x2000
200052be:	9908      	ldr	r1, [sp, #32]
200052c0:	eb03 03c6 	add.w	r3, r3, r6, lsl #3
200052c4:	0fc2      	lsrs	r2, r0, #31
200052c6:	2900      	cmp	r1, #0
200052c8:	bfcc      	ite	gt
200052ca:	2200      	movgt	r2, #0
200052cc:	f002 0201 	andle.w	r2, r2, #1
200052d0:	e9d3 0100 	ldrd	r0, r1, [r3]
200052d4:	e9cd 0104 	strd	r0, r1, [sp, #16]
200052d8:	2a00      	cmp	r2, #0
200052da:	f040 81a0 	bne.w	2000561e <_dtoa_r+0x8ce>
200052de:	4602      	mov	r2, r0
200052e0:	460b      	mov	r3, r1
200052e2:	4640      	mov	r0, r8
200052e4:	4649      	mov	r1, r9
200052e6:	f003 fb67 	bl	200089b8 <__aeabi_ddiv>
200052ea:	9d10      	ldr	r5, [sp, #64]	; 0x40
200052ec:	f003 fcd4 	bl	20008c98 <__aeabi_d2iz>
200052f0:	4682      	mov	sl, r0
200052f2:	f003 f9d1 	bl	20008698 <__aeabi_i2d>
200052f6:	e9dd 2304 	ldrd	r2, r3, [sp, #16]
200052fa:	f003 fa33 	bl	20008764 <__aeabi_dmul>
200052fe:	4602      	mov	r2, r0
20005300:	460b      	mov	r3, r1
20005302:	4640      	mov	r0, r8
20005304:	4649      	mov	r1, r9
20005306:	f003 f879 	bl	200083fc <__aeabi_dsub>
2000530a:	f10a 0330 	add.w	r3, sl, #48	; 0x30
2000530e:	f805 3b01 	strb.w	r3, [r5], #1
20005312:	9a08      	ldr	r2, [sp, #32]
20005314:	2a01      	cmp	r2, #1
20005316:	4680      	mov	r8, r0
20005318:	4689      	mov	r9, r1
2000531a:	d052      	beq.n	200053c2 <_dtoa_r+0x672>
2000531c:	f240 0300 	movw	r3, #0
20005320:	2200      	movs	r2, #0
20005322:	f2c4 0324 	movt	r3, #16420	; 0x4024
20005326:	f003 fa1d 	bl	20008764 <__aeabi_dmul>
2000532a:	2200      	movs	r2, #0
2000532c:	2300      	movs	r3, #0
2000532e:	e9cd 0106 	strd	r0, r1, [sp, #24]
20005332:	f003 fc7f 	bl	20008c34 <__aeabi_dcmpeq>
20005336:	2800      	cmp	r0, #0
20005338:	f040 81eb 	bne.w	20005712 <_dtoa_r+0x9c2>
2000533c:	9810      	ldr	r0, [sp, #64]	; 0x40
2000533e:	f04f 0801 	mov.w	r8, #1
20005342:	f8cd b02c 	str.w	fp, [sp, #44]	; 0x2c
20005346:	46a3      	mov	fp, r4
20005348:	1c87      	adds	r7, r0, #2
2000534a:	960f      	str	r6, [sp, #60]	; 0x3c
2000534c:	f8dd 9020 	ldr.w	r9, [sp, #32]
20005350:	e9dd 4506 	ldrd	r4, r5, [sp, #24]
20005354:	e00a      	b.n	2000536c <_dtoa_r+0x61c>
20005356:	f003 fa05 	bl	20008764 <__aeabi_dmul>
2000535a:	2200      	movs	r2, #0
2000535c:	2300      	movs	r3, #0
2000535e:	4604      	mov	r4, r0
20005360:	460d      	mov	r5, r1
20005362:	f003 fc67 	bl	20008c34 <__aeabi_dcmpeq>
20005366:	2800      	cmp	r0, #0
20005368:	f040 81ce 	bne.w	20005708 <_dtoa_r+0x9b8>
2000536c:	e9dd 2304 	ldrd	r2, r3, [sp, #16]
20005370:	4620      	mov	r0, r4
20005372:	4629      	mov	r1, r5
20005374:	f108 0801 	add.w	r8, r8, #1
20005378:	f003 fb1e 	bl	200089b8 <__aeabi_ddiv>
2000537c:	463e      	mov	r6, r7
2000537e:	f003 fc8b 	bl	20008c98 <__aeabi_d2iz>
20005382:	4682      	mov	sl, r0
20005384:	f003 f988 	bl	20008698 <__aeabi_i2d>
20005388:	e9dd 2304 	ldrd	r2, r3, [sp, #16]
2000538c:	f003 f9ea 	bl	20008764 <__aeabi_dmul>
20005390:	4602      	mov	r2, r0
20005392:	460b      	mov	r3, r1
20005394:	4620      	mov	r0, r4
20005396:	4629      	mov	r1, r5
20005398:	f003 f830 	bl	200083fc <__aeabi_dsub>
2000539c:	2200      	movs	r2, #0
2000539e:	f10a 0c30 	add.w	ip, sl, #48	; 0x30
200053a2:	f807 cc01 	strb.w	ip, [r7, #-1]
200053a6:	3701      	adds	r7, #1
200053a8:	45c1      	cmp	r9, r8
200053aa:	f240 0300 	movw	r3, #0
200053ae:	f2c4 0324 	movt	r3, #16420	; 0x4024
200053b2:	d1d0      	bne.n	20005356 <_dtoa_r+0x606>
200053b4:	4635      	mov	r5, r6
200053b6:	465c      	mov	r4, fp
200053b8:	9e0f      	ldr	r6, [sp, #60]	; 0x3c
200053ba:	4680      	mov	r8, r0
200053bc:	f8dd b02c 	ldr.w	fp, [sp, #44]	; 0x2c
200053c0:	4689      	mov	r9, r1
200053c2:	4642      	mov	r2, r8
200053c4:	464b      	mov	r3, r9
200053c6:	4640      	mov	r0, r8
200053c8:	4649      	mov	r1, r9
200053ca:	f003 f819 	bl	20008400 <__adddf3>
200053ce:	4680      	mov	r8, r0
200053d0:	4689      	mov	r9, r1
200053d2:	4642      	mov	r2, r8
200053d4:	e9dd 0104 	ldrd	r0, r1, [sp, #16]
200053d8:	464b      	mov	r3, r9
200053da:	f003 fc35 	bl	20008c48 <__aeabi_dcmplt>
200053de:	b960      	cbnz	r0, 200053fa <_dtoa_r+0x6aa>
200053e0:	e9dd 0104 	ldrd	r0, r1, [sp, #16]
200053e4:	4642      	mov	r2, r8
200053e6:	464b      	mov	r3, r9
200053e8:	f003 fc24 	bl	20008c34 <__aeabi_dcmpeq>
200053ec:	2800      	cmp	r0, #0
200053ee:	f000 8190 	beq.w	20005712 <_dtoa_r+0x9c2>
200053f2:	f01a 0f01 	tst.w	sl, #1
200053f6:	f000 818c 	beq.w	20005712 <_dtoa_r+0x9c2>
200053fa:	9910      	ldr	r1, [sp, #64]	; 0x40
200053fc:	e000      	b.n	20005400 <_dtoa_r+0x6b0>
200053fe:	461d      	mov	r5, r3
20005400:	f815 2c01 	ldrb.w	r2, [r5, #-1]
20005404:	1e6b      	subs	r3, r5, #1
20005406:	2a39      	cmp	r2, #57	; 0x39
20005408:	f040 8367 	bne.w	20005ada <_dtoa_r+0xd8a>
2000540c:	428b      	cmp	r3, r1
2000540e:	d1f6      	bne.n	200053fe <_dtoa_r+0x6ae>
20005410:	9910      	ldr	r1, [sp, #64]	; 0x40
20005412:	2330      	movs	r3, #48	; 0x30
20005414:	3601      	adds	r6, #1
20005416:	2231      	movs	r2, #49	; 0x31
20005418:	700b      	strb	r3, [r1, #0]
2000541a:	9b10      	ldr	r3, [sp, #64]	; 0x40
2000541c:	701a      	strb	r2, [r3, #0]
2000541e:	9612      	str	r6, [sp, #72]	; 0x48
20005420:	e0b2      	b.n	20005588 <_dtoa_r+0x838>
20005422:	9a16      	ldr	r2, [sp, #88]	; 0x58
20005424:	2a00      	cmp	r2, #0
20005426:	f040 80df 	bne.w	200055e8 <_dtoa_r+0x898>
2000542a:	9f15      	ldr	r7, [sp, #84]	; 0x54
2000542c:	9d0f      	ldr	r5, [sp, #60]	; 0x3c
2000542e:	920c      	str	r2, [sp, #48]	; 0x30
20005430:	2d00      	cmp	r5, #0
20005432:	bfd4      	ite	le
20005434:	2300      	movle	r3, #0
20005436:	2301      	movgt	r3, #1
20005438:	f1ba 0f00 	cmp.w	sl, #0
2000543c:	bfd4      	ite	le
2000543e:	2300      	movle	r3, #0
20005440:	f003 0301 	andgt.w	r3, r3, #1
20005444:	b14b      	cbz	r3, 2000545a <_dtoa_r+0x70a>
20005446:	45aa      	cmp	sl, r5
20005448:	bfb4      	ite	lt
2000544a:	4653      	movlt	r3, sl
2000544c:	462b      	movge	r3, r5
2000544e:	980f      	ldr	r0, [sp, #60]	; 0x3c
20005450:	ebc3 0a0a 	rsb	sl, r3, sl
20005454:	1aed      	subs	r5, r5, r3
20005456:	1ac0      	subs	r0, r0, r3
20005458:	900f      	str	r0, [sp, #60]	; 0x3c
2000545a:	9915      	ldr	r1, [sp, #84]	; 0x54
2000545c:	2900      	cmp	r1, #0
2000545e:	dd1c      	ble.n	2000549a <_dtoa_r+0x74a>
20005460:	9a16      	ldr	r2, [sp, #88]	; 0x58
20005462:	2a00      	cmp	r2, #0
20005464:	f000 82e9 	beq.w	20005a3a <_dtoa_r+0xcea>
20005468:	2f00      	cmp	r7, #0
2000546a:	dd12      	ble.n	20005492 <_dtoa_r+0x742>
2000546c:	990c      	ldr	r1, [sp, #48]	; 0x30
2000546e:	463a      	mov	r2, r7
20005470:	4620      	mov	r0, r4
20005472:	f002 f96b 	bl	2000774c <__pow5mult>
20005476:	465a      	mov	r2, fp
20005478:	900c      	str	r0, [sp, #48]	; 0x30
2000547a:	4620      	mov	r0, r4
2000547c:	990c      	ldr	r1, [sp, #48]	; 0x30
2000547e:	f002 f87d 	bl	2000757c <__multiply>
20005482:	4659      	mov	r1, fp
20005484:	4603      	mov	r3, r0
20005486:	4620      	mov	r0, r4
20005488:	9303      	str	r3, [sp, #12]
2000548a:	f001 fee3 	bl	20007254 <_Bfree>
2000548e:	9b03      	ldr	r3, [sp, #12]
20005490:	469b      	mov	fp, r3
20005492:	9b15      	ldr	r3, [sp, #84]	; 0x54
20005494:	1bda      	subs	r2, r3, r7
20005496:	f040 8311 	bne.w	20005abc <_dtoa_r+0xd6c>
2000549a:	2101      	movs	r1, #1
2000549c:	4620      	mov	r0, r4
2000549e:	f002 f907 	bl	200076b0 <__i2b>
200054a2:	9006      	str	r0, [sp, #24]
200054a4:	9817      	ldr	r0, [sp, #92]	; 0x5c
200054a6:	2800      	cmp	r0, #0
200054a8:	dd05      	ble.n	200054b6 <_dtoa_r+0x766>
200054aa:	9906      	ldr	r1, [sp, #24]
200054ac:	4620      	mov	r0, r4
200054ae:	9a17      	ldr	r2, [sp, #92]	; 0x5c
200054b0:	f002 f94c 	bl	2000774c <__pow5mult>
200054b4:	9006      	str	r0, [sp, #24]
200054b6:	992a      	ldr	r1, [sp, #168]	; 0xa8
200054b8:	2901      	cmp	r1, #1
200054ba:	f340 810a 	ble.w	200056d2 <_dtoa_r+0x982>
200054be:	2700      	movs	r7, #0
200054c0:	9b17      	ldr	r3, [sp, #92]	; 0x5c
200054c2:	2b00      	cmp	r3, #0
200054c4:	f040 8261 	bne.w	2000598a <_dtoa_r+0xc3a>
200054c8:	2301      	movs	r3, #1
200054ca:	4453      	add	r3, sl
200054cc:	f013 031f 	ands.w	r3, r3, #31
200054d0:	f040 812a 	bne.w	20005728 <_dtoa_r+0x9d8>
200054d4:	231c      	movs	r3, #28
200054d6:	9a0f      	ldr	r2, [sp, #60]	; 0x3c
200054d8:	449a      	add	sl, r3
200054da:	18ed      	adds	r5, r5, r3
200054dc:	18d2      	adds	r2, r2, r3
200054de:	920f      	str	r2, [sp, #60]	; 0x3c
200054e0:	9b0f      	ldr	r3, [sp, #60]	; 0x3c
200054e2:	2b00      	cmp	r3, #0
200054e4:	dd05      	ble.n	200054f2 <_dtoa_r+0x7a2>
200054e6:	4659      	mov	r1, fp
200054e8:	461a      	mov	r2, r3
200054ea:	4620      	mov	r0, r4
200054ec:	f001 ffe8 	bl	200074c0 <__lshift>
200054f0:	4683      	mov	fp, r0
200054f2:	f1ba 0f00 	cmp.w	sl, #0
200054f6:	dd05      	ble.n	20005504 <_dtoa_r+0x7b4>
200054f8:	9906      	ldr	r1, [sp, #24]
200054fa:	4652      	mov	r2, sl
200054fc:	4620      	mov	r0, r4
200054fe:	f001 ffdf 	bl	200074c0 <__lshift>
20005502:	9006      	str	r0, [sp, #24]
20005504:	9818      	ldr	r0, [sp, #96]	; 0x60
20005506:	2800      	cmp	r0, #0
20005508:	f040 8229 	bne.w	2000595e <_dtoa_r+0xc0e>
2000550c:	982a      	ldr	r0, [sp, #168]	; 0xa8
2000550e:	9908      	ldr	r1, [sp, #32]
20005510:	2802      	cmp	r0, #2
20005512:	bfd4      	ite	le
20005514:	2300      	movle	r3, #0
20005516:	2301      	movgt	r3, #1
20005518:	2900      	cmp	r1, #0
2000551a:	bfcc      	ite	gt
2000551c:	2300      	movgt	r3, #0
2000551e:	f003 0301 	andle.w	r3, r3, #1
20005522:	2b00      	cmp	r3, #0
20005524:	f000 810c 	beq.w	20005740 <_dtoa_r+0x9f0>
20005528:	2900      	cmp	r1, #0
2000552a:	f040 808c 	bne.w	20005646 <_dtoa_r+0x8f6>
2000552e:	2205      	movs	r2, #5
20005530:	9906      	ldr	r1, [sp, #24]
20005532:	9b08      	ldr	r3, [sp, #32]
20005534:	4620      	mov	r0, r4
20005536:	f002 f8c5 	bl	200076c4 <__multadd>
2000553a:	9006      	str	r0, [sp, #24]
2000553c:	4658      	mov	r0, fp
2000553e:	9906      	ldr	r1, [sp, #24]
20005540:	f001 fd4e 	bl	20006fe0 <__mcmp>
20005544:	2800      	cmp	r0, #0
20005546:	dd7e      	ble.n	20005646 <_dtoa_r+0x8f6>
20005548:	9d10      	ldr	r5, [sp, #64]	; 0x40
2000554a:	3601      	adds	r6, #1
2000554c:	2700      	movs	r7, #0
2000554e:	f8dd a030 	ldr.w	sl, [sp, #48]	; 0x30
20005552:	2331      	movs	r3, #49	; 0x31
20005554:	f805 3b01 	strb.w	r3, [r5], #1
20005558:	9906      	ldr	r1, [sp, #24]
2000555a:	4620      	mov	r0, r4
2000555c:	f001 fe7a 	bl	20007254 <_Bfree>
20005560:	f1ba 0f00 	cmp.w	sl, #0
20005564:	f000 80d5 	beq.w	20005712 <_dtoa_r+0x9c2>
20005568:	1e3b      	subs	r3, r7, #0
2000556a:	bf18      	it	ne
2000556c:	2301      	movne	r3, #1
2000556e:	4557      	cmp	r7, sl
20005570:	bf0c      	ite	eq
20005572:	2300      	moveq	r3, #0
20005574:	f003 0301 	andne.w	r3, r3, #1
20005578:	2b00      	cmp	r3, #0
2000557a:	f040 80d0 	bne.w	2000571e <_dtoa_r+0x9ce>
2000557e:	4651      	mov	r1, sl
20005580:	4620      	mov	r0, r4
20005582:	f001 fe67 	bl	20007254 <_Bfree>
20005586:	9612      	str	r6, [sp, #72]	; 0x48
20005588:	4620      	mov	r0, r4
2000558a:	4659      	mov	r1, fp
2000558c:	f001 fe62 	bl	20007254 <_Bfree>
20005590:	9a12      	ldr	r2, [sp, #72]	; 0x48
20005592:	1c53      	adds	r3, r2, #1
20005594:	2200      	movs	r2, #0
20005596:	702a      	strb	r2, [r5, #0]
20005598:	982c      	ldr	r0, [sp, #176]	; 0xb0
2000559a:	992e      	ldr	r1, [sp, #184]	; 0xb8
2000559c:	6003      	str	r3, [r0, #0]
2000559e:	2900      	cmp	r1, #0
200055a0:	f000 81d4 	beq.w	2000594c <_dtoa_r+0xbfc>
200055a4:	9a2e      	ldr	r2, [sp, #184]	; 0xb8
200055a6:	9810      	ldr	r0, [sp, #64]	; 0x40
200055a8:	6015      	str	r5, [r2, #0]
200055aa:	e412      	b.n	20004dd2 <_dtoa_r+0x82>
200055ac:	2010      	movs	r0, #16
200055ae:	f001 f889 	bl	200066c4 <malloc>
200055b2:	60c6      	str	r6, [r0, #12]
200055b4:	6046      	str	r6, [r0, #4]
200055b6:	6086      	str	r6, [r0, #8]
200055b8:	6006      	str	r6, [r0, #0]
200055ba:	4606      	mov	r6, r0
200055bc:	6260      	str	r0, [r4, #36]	; 0x24
200055be:	f7ff bbd2 	b.w	20004d66 <_dtoa_r+0x16>
200055c2:	980f      	ldr	r0, [sp, #60]	; 0x3c
200055c4:	4271      	negs	r1, r6
200055c6:	2200      	movs	r2, #0
200055c8:	9115      	str	r1, [sp, #84]	; 0x54
200055ca:	1b80      	subs	r0, r0, r6
200055cc:	9217      	str	r2, [sp, #92]	; 0x5c
200055ce:	900f      	str	r0, [sp, #60]	; 0x3c
200055d0:	e48a      	b.n	20004ee8 <_dtoa_r+0x198>
200055d2:	2100      	movs	r1, #0
200055d4:	3e01      	subs	r6, #1
200055d6:	9118      	str	r1, [sp, #96]	; 0x60
200055d8:	e472      	b.n	20004ec0 <_dtoa_r+0x170>
200055da:	e9dd 2306 	ldrd	r2, r3, [sp, #24]
200055de:	f04f 0802 	mov.w	r8, #2
200055e2:	e9cd 2312 	strd	r2, r3, [sp, #72]	; 0x48
200055e6:	e521      	b.n	2000502c <_dtoa_r+0x2dc>
200055e8:	982a      	ldr	r0, [sp, #168]	; 0xa8
200055ea:	2801      	cmp	r0, #1
200055ec:	f340 826c 	ble.w	20005ac8 <_dtoa_r+0xd78>
200055f0:	9a08      	ldr	r2, [sp, #32]
200055f2:	9815      	ldr	r0, [sp, #84]	; 0x54
200055f4:	1e53      	subs	r3, r2, #1
200055f6:	4298      	cmp	r0, r3
200055f8:	f2c0 8258 	blt.w	20005aac <_dtoa_r+0xd5c>
200055fc:	1ac7      	subs	r7, r0, r3
200055fe:	9b08      	ldr	r3, [sp, #32]
20005600:	2b00      	cmp	r3, #0
20005602:	bfa8      	it	ge
20005604:	9d0f      	ldrge	r5, [sp, #60]	; 0x3c
20005606:	f2c0 8273 	blt.w	20005af0 <_dtoa_r+0xda0>
2000560a:	9a0f      	ldr	r2, [sp, #60]	; 0x3c
2000560c:	4620      	mov	r0, r4
2000560e:	2101      	movs	r1, #1
20005610:	449a      	add	sl, r3
20005612:	18d2      	adds	r2, r2, r3
20005614:	920f      	str	r2, [sp, #60]	; 0x3c
20005616:	f002 f84b 	bl	200076b0 <__i2b>
2000561a:	900c      	str	r0, [sp, #48]	; 0x30
2000561c:	e708      	b.n	20005430 <_dtoa_r+0x6e0>
2000561e:	9b08      	ldr	r3, [sp, #32]
20005620:	b973      	cbnz	r3, 20005640 <_dtoa_r+0x8f0>
20005622:	f240 0300 	movw	r3, #0
20005626:	2200      	movs	r2, #0
20005628:	f2c4 0314 	movt	r3, #16404	; 0x4014
2000562c:	e9dd 0104 	ldrd	r0, r1, [sp, #16]
20005630:	f003 f898 	bl	20008764 <__aeabi_dmul>
20005634:	4642      	mov	r2, r8
20005636:	464b      	mov	r3, r9
20005638:	f003 fb1a 	bl	20008c70 <__aeabi_dcmpge>
2000563c:	2800      	cmp	r0, #0
2000563e:	d06a      	beq.n	20005716 <_dtoa_r+0x9c6>
20005640:	2200      	movs	r2, #0
20005642:	9206      	str	r2, [sp, #24]
20005644:	920c      	str	r2, [sp, #48]	; 0x30
20005646:	9b2b      	ldr	r3, [sp, #172]	; 0xac
20005648:	2700      	movs	r7, #0
2000564a:	f8dd a030 	ldr.w	sl, [sp, #48]	; 0x30
2000564e:	43de      	mvns	r6, r3
20005650:	9d10      	ldr	r5, [sp, #64]	; 0x40
20005652:	e781      	b.n	20005558 <_dtoa_r+0x808>
20005654:	2100      	movs	r1, #0
20005656:	9116      	str	r1, [sp, #88]	; 0x58
20005658:	982b      	ldr	r0, [sp, #172]	; 0xac
2000565a:	2800      	cmp	r0, #0
2000565c:	f340 819f 	ble.w	2000599e <_dtoa_r+0xc4e>
20005660:	982b      	ldr	r0, [sp, #172]	; 0xac
20005662:	4601      	mov	r1, r0
20005664:	9011      	str	r0, [sp, #68]	; 0x44
20005666:	9008      	str	r0, [sp, #32]
20005668:	6a65      	ldr	r5, [r4, #36]	; 0x24
2000566a:	2200      	movs	r2, #0
2000566c:	2917      	cmp	r1, #23
2000566e:	606a      	str	r2, [r5, #4]
20005670:	f240 82ab 	bls.w	20005bca <_dtoa_r+0xe7a>
20005674:	2304      	movs	r3, #4
20005676:	005b      	lsls	r3, r3, #1
20005678:	3201      	adds	r2, #1
2000567a:	f103 0014 	add.w	r0, r3, #20
2000567e:	4288      	cmp	r0, r1
20005680:	d9f9      	bls.n	20005676 <_dtoa_r+0x926>
20005682:	9b08      	ldr	r3, [sp, #32]
20005684:	606a      	str	r2, [r5, #4]
20005686:	2b0e      	cmp	r3, #14
20005688:	bf8c      	ite	hi
2000568a:	2700      	movhi	r7, #0
2000568c:	f007 0701 	andls.w	r7, r7, #1
20005690:	e49d      	b.n	20004fce <_dtoa_r+0x27e>
20005692:	2201      	movs	r2, #1
20005694:	9216      	str	r2, [sp, #88]	; 0x58
20005696:	9b2b      	ldr	r3, [sp, #172]	; 0xac
20005698:	18f3      	adds	r3, r6, r3
2000569a:	9311      	str	r3, [sp, #68]	; 0x44
2000569c:	1c59      	adds	r1, r3, #1
2000569e:	2900      	cmp	r1, #0
200056a0:	bfc8      	it	gt
200056a2:	9108      	strgt	r1, [sp, #32]
200056a4:	dce0      	bgt.n	20005668 <_dtoa_r+0x918>
200056a6:	290e      	cmp	r1, #14
200056a8:	bf8c      	ite	hi
200056aa:	2700      	movhi	r7, #0
200056ac:	f007 0701 	andls.w	r7, r7, #1
200056b0:	9108      	str	r1, [sp, #32]
200056b2:	e489      	b.n	20004fc8 <_dtoa_r+0x278>
200056b4:	2301      	movs	r3, #1
200056b6:	9316      	str	r3, [sp, #88]	; 0x58
200056b8:	e7ce      	b.n	20005658 <_dtoa_r+0x908>
200056ba:	2200      	movs	r2, #0
200056bc:	9216      	str	r2, [sp, #88]	; 0x58
200056be:	e7ea      	b.n	20005696 <_dtoa_r+0x946>
200056c0:	f04f 33ff 	mov.w	r3, #4294967295
200056c4:	2700      	movs	r7, #0
200056c6:	2001      	movs	r0, #1
200056c8:	9311      	str	r3, [sp, #68]	; 0x44
200056ca:	9016      	str	r0, [sp, #88]	; 0x58
200056cc:	9308      	str	r3, [sp, #32]
200056ce:	972b      	str	r7, [sp, #172]	; 0xac
200056d0:	e47a      	b.n	20004fc8 <_dtoa_r+0x278>
200056d2:	f1b8 0f00 	cmp.w	r8, #0
200056d6:	f47f aef2 	bne.w	200054be <_dtoa_r+0x76e>
200056da:	f029 437f 	bic.w	r3, r9, #4278190080	; 0xff000000
200056de:	f423 0370 	bic.w	r3, r3, #15728640	; 0xf00000
200056e2:	2b00      	cmp	r3, #0
200056e4:	f47f aeeb 	bne.w	200054be <_dtoa_r+0x76e>
200056e8:	f240 0300 	movw	r3, #0
200056ec:	f6c7 73f0 	movt	r3, #32752	; 0x7ff0
200056f0:	ea09 0303 	and.w	r3, r9, r3
200056f4:	2b00      	cmp	r3, #0
200056f6:	f43f aee2 	beq.w	200054be <_dtoa_r+0x76e>
200056fa:	9a0f      	ldr	r2, [sp, #60]	; 0x3c
200056fc:	f10a 0a01 	add.w	sl, sl, #1
20005700:	2701      	movs	r7, #1
20005702:	3201      	adds	r2, #1
20005704:	920f      	str	r2, [sp, #60]	; 0x3c
20005706:	e6db      	b.n	200054c0 <_dtoa_r+0x770>
20005708:	4635      	mov	r5, r6
2000570a:	465c      	mov	r4, fp
2000570c:	9e0f      	ldr	r6, [sp, #60]	; 0x3c
2000570e:	f8dd b02c 	ldr.w	fp, [sp, #44]	; 0x2c
20005712:	9612      	str	r6, [sp, #72]	; 0x48
20005714:	e738      	b.n	20005588 <_dtoa_r+0x838>
20005716:	2000      	movs	r0, #0
20005718:	9006      	str	r0, [sp, #24]
2000571a:	900c      	str	r0, [sp, #48]	; 0x30
2000571c:	e714      	b.n	20005548 <_dtoa_r+0x7f8>
2000571e:	4639      	mov	r1, r7
20005720:	4620      	mov	r0, r4
20005722:	f001 fd97 	bl	20007254 <_Bfree>
20005726:	e72a      	b.n	2000557e <_dtoa_r+0x82e>
20005728:	f1c3 0320 	rsb	r3, r3, #32
2000572c:	2b04      	cmp	r3, #4
2000572e:	f340 8254 	ble.w	20005bda <_dtoa_r+0xe8a>
20005732:	990f      	ldr	r1, [sp, #60]	; 0x3c
20005734:	3b04      	subs	r3, #4
20005736:	449a      	add	sl, r3
20005738:	18ed      	adds	r5, r5, r3
2000573a:	18c9      	adds	r1, r1, r3
2000573c:	910f      	str	r1, [sp, #60]	; 0x3c
2000573e:	e6cf      	b.n	200054e0 <_dtoa_r+0x790>
20005740:	9916      	ldr	r1, [sp, #88]	; 0x58
20005742:	2900      	cmp	r1, #0
20005744:	f000 8131 	beq.w	200059aa <_dtoa_r+0xc5a>
20005748:	2d00      	cmp	r5, #0
2000574a:	dd05      	ble.n	20005758 <_dtoa_r+0xa08>
2000574c:	990c      	ldr	r1, [sp, #48]	; 0x30
2000574e:	462a      	mov	r2, r5
20005750:	4620      	mov	r0, r4
20005752:	f001 feb5 	bl	200074c0 <__lshift>
20005756:	900c      	str	r0, [sp, #48]	; 0x30
20005758:	2f00      	cmp	r7, #0
2000575a:	f040 81ea 	bne.w	20005b32 <_dtoa_r+0xde2>
2000575e:	f8dd a030 	ldr.w	sl, [sp, #48]	; 0x30
20005762:	9d10      	ldr	r5, [sp, #64]	; 0x40
20005764:	2301      	movs	r3, #1
20005766:	f008 0001 	and.w	r0, r8, #1
2000576a:	9f0c      	ldr	r7, [sp, #48]	; 0x30
2000576c:	9011      	str	r0, [sp, #68]	; 0x44
2000576e:	950f      	str	r5, [sp, #60]	; 0x3c
20005770:	461d      	mov	r5, r3
20005772:	960c      	str	r6, [sp, #48]	; 0x30
20005774:	9906      	ldr	r1, [sp, #24]
20005776:	4658      	mov	r0, fp
20005778:	f7ff fa5a 	bl	20004c30 <quorem>
2000577c:	4639      	mov	r1, r7
2000577e:	3030      	adds	r0, #48	; 0x30
20005780:	900b      	str	r0, [sp, #44]	; 0x2c
20005782:	4658      	mov	r0, fp
20005784:	f001 fc2c 	bl	20006fe0 <__mcmp>
20005788:	9906      	ldr	r1, [sp, #24]
2000578a:	4652      	mov	r2, sl
2000578c:	4606      	mov	r6, r0
2000578e:	4620      	mov	r0, r4
20005790:	f001 fe1a 	bl	200073c8 <__mdiff>
20005794:	68c3      	ldr	r3, [r0, #12]
20005796:	4680      	mov	r8, r0
20005798:	2b00      	cmp	r3, #0
2000579a:	d03d      	beq.n	20005818 <_dtoa_r+0xac8>
2000579c:	f04f 0901 	mov.w	r9, #1
200057a0:	4641      	mov	r1, r8
200057a2:	4620      	mov	r0, r4
200057a4:	f001 fd56 	bl	20007254 <_Bfree>
200057a8:	992a      	ldr	r1, [sp, #168]	; 0xa8
200057aa:	ea59 0101 	orrs.w	r1, r9, r1
200057ae:	d103      	bne.n	200057b8 <_dtoa_r+0xa68>
200057b0:	9a11      	ldr	r2, [sp, #68]	; 0x44
200057b2:	2a00      	cmp	r2, #0
200057b4:	f000 81eb 	beq.w	20005b8e <_dtoa_r+0xe3e>
200057b8:	2e00      	cmp	r6, #0
200057ba:	f2c0 819e 	blt.w	20005afa <_dtoa_r+0xdaa>
200057be:	9a2a      	ldr	r2, [sp, #168]	; 0xa8
200057c0:	4332      	orrs	r2, r6
200057c2:	d103      	bne.n	200057cc <_dtoa_r+0xa7c>
200057c4:	9b11      	ldr	r3, [sp, #68]	; 0x44
200057c6:	2b00      	cmp	r3, #0
200057c8:	f000 8197 	beq.w	20005afa <_dtoa_r+0xdaa>
200057cc:	f1b9 0f00 	cmp.w	r9, #0
200057d0:	f300 81ce 	bgt.w	20005b70 <_dtoa_r+0xe20>
200057d4:	990f      	ldr	r1, [sp, #60]	; 0x3c
200057d6:	9a0b      	ldr	r2, [sp, #44]	; 0x2c
200057d8:	f801 2b01 	strb.w	r2, [r1], #1
200057dc:	9b08      	ldr	r3, [sp, #32]
200057de:	910f      	str	r1, [sp, #60]	; 0x3c
200057e0:	429d      	cmp	r5, r3
200057e2:	f000 81c2 	beq.w	20005b6a <_dtoa_r+0xe1a>
200057e6:	4659      	mov	r1, fp
200057e8:	220a      	movs	r2, #10
200057ea:	2300      	movs	r3, #0
200057ec:	4620      	mov	r0, r4
200057ee:	f001 ff69 	bl	200076c4 <__multadd>
200057f2:	4557      	cmp	r7, sl
200057f4:	4639      	mov	r1, r7
200057f6:	4683      	mov	fp, r0
200057f8:	d014      	beq.n	20005824 <_dtoa_r+0xad4>
200057fa:	220a      	movs	r2, #10
200057fc:	2300      	movs	r3, #0
200057fe:	4620      	mov	r0, r4
20005800:	3501      	adds	r5, #1
20005802:	f001 ff5f 	bl	200076c4 <__multadd>
20005806:	4651      	mov	r1, sl
20005808:	220a      	movs	r2, #10
2000580a:	2300      	movs	r3, #0
2000580c:	4607      	mov	r7, r0
2000580e:	4620      	mov	r0, r4
20005810:	f001 ff58 	bl	200076c4 <__multadd>
20005814:	4682      	mov	sl, r0
20005816:	e7ad      	b.n	20005774 <_dtoa_r+0xa24>
20005818:	4658      	mov	r0, fp
2000581a:	4641      	mov	r1, r8
2000581c:	f001 fbe0 	bl	20006fe0 <__mcmp>
20005820:	4681      	mov	r9, r0
20005822:	e7bd      	b.n	200057a0 <_dtoa_r+0xa50>
20005824:	4620      	mov	r0, r4
20005826:	220a      	movs	r2, #10
20005828:	2300      	movs	r3, #0
2000582a:	3501      	adds	r5, #1
2000582c:	f001 ff4a 	bl	200076c4 <__multadd>
20005830:	4607      	mov	r7, r0
20005832:	4682      	mov	sl, r0
20005834:	e79e      	b.n	20005774 <_dtoa_r+0xa24>
20005836:	9612      	str	r6, [sp, #72]	; 0x48
20005838:	f8dd c020 	ldr.w	ip, [sp, #32]
2000583c:	e459      	b.n	200050f2 <_dtoa_r+0x3a2>
2000583e:	4275      	negs	r5, r6
20005840:	2d00      	cmp	r5, #0
20005842:	f040 8101 	bne.w	20005a48 <_dtoa_r+0xcf8>
20005846:	e9dd 0106 	ldrd	r0, r1, [sp, #24]
2000584a:	f04f 0802 	mov.w	r8, #2
2000584e:	e9cd 010c 	strd	r0, r1, [sp, #48]	; 0x30
20005852:	e40c      	b.n	2000506e <_dtoa_r+0x31e>
20005854:	f249 7128 	movw	r1, #38696	; 0x9728
20005858:	4642      	mov	r2, r8
2000585a:	f2c2 0100 	movt	r1, #8192	; 0x2000
2000585e:	464b      	mov	r3, r9
20005860:	eb01 01cc 	add.w	r1, r1, ip, lsl #3
20005864:	f8cd c00c 	str.w	ip, [sp, #12]
20005868:	9d10      	ldr	r5, [sp, #64]	; 0x40
2000586a:	e951 0102 	ldrd	r0, r1, [r1, #-8]
2000586e:	f002 ff79 	bl	20008764 <__aeabi_dmul>
20005872:	e9cd 011a 	strd	r0, r1, [sp, #104]	; 0x68
20005876:	e9dd 010c 	ldrd	r0, r1, [sp, #48]	; 0x30
2000587a:	f003 fa0d 	bl	20008c98 <__aeabi_d2iz>
2000587e:	4607      	mov	r7, r0
20005880:	f002 ff0a 	bl	20008698 <__aeabi_i2d>
20005884:	460b      	mov	r3, r1
20005886:	4602      	mov	r2, r0
20005888:	e9dd 010c 	ldrd	r0, r1, [sp, #48]	; 0x30
2000588c:	f002 fdb6 	bl	200083fc <__aeabi_dsub>
20005890:	f107 0330 	add.w	r3, r7, #48	; 0x30
20005894:	e9cd 010c 	strd	r0, r1, [sp, #48]	; 0x30
20005898:	f805 3b01 	strb.w	r3, [r5], #1
2000589c:	f8dd c00c 	ldr.w	ip, [sp, #12]
200058a0:	f1bc 0f01 	cmp.w	ip, #1
200058a4:	d029      	beq.n	200058fa <_dtoa_r+0xbaa>
200058a6:	46d1      	mov	r9, sl
200058a8:	e9dd 010c 	ldrd	r0, r1, [sp, #48]	; 0x30
200058ac:	46b2      	mov	sl, r6
200058ae:	9e10      	ldr	r6, [sp, #64]	; 0x40
200058b0:	951c      	str	r5, [sp, #112]	; 0x70
200058b2:	2701      	movs	r7, #1
200058b4:	4665      	mov	r5, ip
200058b6:	46a0      	mov	r8, r4
200058b8:	f240 0300 	movw	r3, #0
200058bc:	2200      	movs	r2, #0
200058be:	f2c4 0324 	movt	r3, #16420	; 0x4024
200058c2:	f002 ff4f 	bl	20008764 <__aeabi_dmul>
200058c6:	e9cd 010c 	strd	r0, r1, [sp, #48]	; 0x30
200058ca:	f003 f9e5 	bl	20008c98 <__aeabi_d2iz>
200058ce:	4604      	mov	r4, r0
200058d0:	f002 fee2 	bl	20008698 <__aeabi_i2d>
200058d4:	3430      	adds	r4, #48	; 0x30
200058d6:	4602      	mov	r2, r0
200058d8:	460b      	mov	r3, r1
200058da:	e9dd 010c 	ldrd	r0, r1, [sp, #48]	; 0x30
200058de:	f002 fd8d 	bl	200083fc <__aeabi_dsub>
200058e2:	55f4      	strb	r4, [r6, r7]
200058e4:	3701      	adds	r7, #1
200058e6:	42af      	cmp	r7, r5
200058e8:	d1e6      	bne.n	200058b8 <_dtoa_r+0xb68>
200058ea:	9d1c      	ldr	r5, [sp, #112]	; 0x70
200058ec:	3f01      	subs	r7, #1
200058ee:	4656      	mov	r6, sl
200058f0:	4644      	mov	r4, r8
200058f2:	46ca      	mov	sl, r9
200058f4:	19ed      	adds	r5, r5, r7
200058f6:	e9cd 010c 	strd	r0, r1, [sp, #48]	; 0x30
200058fa:	f240 0300 	movw	r3, #0
200058fe:	2200      	movs	r2, #0
20005900:	f6c3 73e0 	movt	r3, #16352	; 0x3fe0
20005904:	e9dd 011a 	ldrd	r0, r1, [sp, #104]	; 0x68
20005908:	f002 fd7a 	bl	20008400 <__adddf3>
2000590c:	4602      	mov	r2, r0
2000590e:	460b      	mov	r3, r1
20005910:	e9dd 010c 	ldrd	r0, r1, [sp, #48]	; 0x30
20005914:	f003 f9b6 	bl	20008c84 <__aeabi_dcmpgt>
20005918:	b9f0      	cbnz	r0, 20005958 <_dtoa_r+0xc08>
2000591a:	f240 0100 	movw	r1, #0
2000591e:	e9dd 231a 	ldrd	r2, r3, [sp, #104]	; 0x68
20005922:	2000      	movs	r0, #0
20005924:	f6c3 71e0 	movt	r1, #16352	; 0x3fe0
20005928:	f002 fd68 	bl	200083fc <__aeabi_dsub>
2000592c:	4602      	mov	r2, r0
2000592e:	460b      	mov	r3, r1
20005930:	e9dd 010c 	ldrd	r0, r1, [sp, #48]	; 0x30
20005934:	f003 f988 	bl	20008c48 <__aeabi_dcmplt>
20005938:	2800      	cmp	r0, #0
2000593a:	f43f acac 	beq.w	20005296 <_dtoa_r+0x546>
2000593e:	462b      	mov	r3, r5
20005940:	461d      	mov	r5, r3
20005942:	f813 2d01 	ldrb.w	r2, [r3, #-1]!
20005946:	2a30      	cmp	r2, #48	; 0x30
20005948:	d0fa      	beq.n	20005940 <_dtoa_r+0xbf0>
2000594a:	e61d      	b.n	20005588 <_dtoa_r+0x838>
2000594c:	9810      	ldr	r0, [sp, #64]	; 0x40
2000594e:	f7ff ba40 	b.w	20004dd2 <_dtoa_r+0x82>
20005952:	f8dd b068 	ldr.w	fp, [sp, #104]	; 0x68
20005956:	9c0c      	ldr	r4, [sp, #48]	; 0x30
20005958:	9e12      	ldr	r6, [sp, #72]	; 0x48
2000595a:	9910      	ldr	r1, [sp, #64]	; 0x40
2000595c:	e550      	b.n	20005400 <_dtoa_r+0x6b0>
2000595e:	4658      	mov	r0, fp
20005960:	9906      	ldr	r1, [sp, #24]
20005962:	f001 fb3d 	bl	20006fe0 <__mcmp>
20005966:	2800      	cmp	r0, #0
20005968:	f6bf add0 	bge.w	2000550c <_dtoa_r+0x7bc>
2000596c:	4659      	mov	r1, fp
2000596e:	4620      	mov	r0, r4
20005970:	220a      	movs	r2, #10
20005972:	2300      	movs	r3, #0
20005974:	f001 fea6 	bl	200076c4 <__multadd>
20005978:	9916      	ldr	r1, [sp, #88]	; 0x58
2000597a:	3e01      	subs	r6, #1
2000597c:	4683      	mov	fp, r0
2000597e:	2900      	cmp	r1, #0
20005980:	f040 8119 	bne.w	20005bb6 <_dtoa_r+0xe66>
20005984:	9a11      	ldr	r2, [sp, #68]	; 0x44
20005986:	9208      	str	r2, [sp, #32]
20005988:	e5c0      	b.n	2000550c <_dtoa_r+0x7bc>
2000598a:	9806      	ldr	r0, [sp, #24]
2000598c:	6903      	ldr	r3, [r0, #16]
2000598e:	eb00 0383 	add.w	r3, r0, r3, lsl #2
20005992:	6918      	ldr	r0, [r3, #16]
20005994:	f001 fad2 	bl	20006f3c <__hi0bits>
20005998:	f1c0 0320 	rsb	r3, r0, #32
2000599c:	e595      	b.n	200054ca <_dtoa_r+0x77a>
2000599e:	2101      	movs	r1, #1
200059a0:	9111      	str	r1, [sp, #68]	; 0x44
200059a2:	9108      	str	r1, [sp, #32]
200059a4:	912b      	str	r1, [sp, #172]	; 0xac
200059a6:	f7ff bb0f 	b.w	20004fc8 <_dtoa_r+0x278>
200059aa:	9d10      	ldr	r5, [sp, #64]	; 0x40
200059ac:	46b1      	mov	r9, r6
200059ae:	9f16      	ldr	r7, [sp, #88]	; 0x58
200059b0:	46aa      	mov	sl, r5
200059b2:	f8dd 8018 	ldr.w	r8, [sp, #24]
200059b6:	9e08      	ldr	r6, [sp, #32]
200059b8:	e002      	b.n	200059c0 <_dtoa_r+0xc70>
200059ba:	f001 fe83 	bl	200076c4 <__multadd>
200059be:	4683      	mov	fp, r0
200059c0:	4641      	mov	r1, r8
200059c2:	4658      	mov	r0, fp
200059c4:	f7ff f934 	bl	20004c30 <quorem>
200059c8:	3501      	adds	r5, #1
200059ca:	220a      	movs	r2, #10
200059cc:	2300      	movs	r3, #0
200059ce:	4659      	mov	r1, fp
200059d0:	f100 0c30 	add.w	ip, r0, #48	; 0x30
200059d4:	f80a c007 	strb.w	ip, [sl, r7]
200059d8:	3701      	adds	r7, #1
200059da:	4620      	mov	r0, r4
200059dc:	42be      	cmp	r6, r7
200059de:	dcec      	bgt.n	200059ba <_dtoa_r+0xc6a>
200059e0:	f8dd a030 	ldr.w	sl, [sp, #48]	; 0x30
200059e4:	464e      	mov	r6, r9
200059e6:	2700      	movs	r7, #0
200059e8:	f8cd c02c 	str.w	ip, [sp, #44]	; 0x2c
200059ec:	4659      	mov	r1, fp
200059ee:	2201      	movs	r2, #1
200059f0:	4620      	mov	r0, r4
200059f2:	f001 fd65 	bl	200074c0 <__lshift>
200059f6:	9906      	ldr	r1, [sp, #24]
200059f8:	4683      	mov	fp, r0
200059fa:	f001 faf1 	bl	20006fe0 <__mcmp>
200059fe:	2800      	cmp	r0, #0
20005a00:	dd0f      	ble.n	20005a22 <_dtoa_r+0xcd2>
20005a02:	9910      	ldr	r1, [sp, #64]	; 0x40
20005a04:	e000      	b.n	20005a08 <_dtoa_r+0xcb8>
20005a06:	461d      	mov	r5, r3
20005a08:	f815 2c01 	ldrb.w	r2, [r5, #-1]
20005a0c:	1e6b      	subs	r3, r5, #1
20005a0e:	2a39      	cmp	r2, #57	; 0x39
20005a10:	f040 808c 	bne.w	20005b2c <_dtoa_r+0xddc>
20005a14:	428b      	cmp	r3, r1
20005a16:	d1f6      	bne.n	20005a06 <_dtoa_r+0xcb6>
20005a18:	9910      	ldr	r1, [sp, #64]	; 0x40
20005a1a:	2331      	movs	r3, #49	; 0x31
20005a1c:	3601      	adds	r6, #1
20005a1e:	700b      	strb	r3, [r1, #0]
20005a20:	e59a      	b.n	20005558 <_dtoa_r+0x808>
20005a22:	d103      	bne.n	20005a2c <_dtoa_r+0xcdc>
20005a24:	980b      	ldr	r0, [sp, #44]	; 0x2c
20005a26:	f010 0f01 	tst.w	r0, #1
20005a2a:	d1ea      	bne.n	20005a02 <_dtoa_r+0xcb2>
20005a2c:	462b      	mov	r3, r5
20005a2e:	461d      	mov	r5, r3
20005a30:	f813 2d01 	ldrb.w	r2, [r3, #-1]!
20005a34:	2a30      	cmp	r2, #48	; 0x30
20005a36:	d0fa      	beq.n	20005a2e <_dtoa_r+0xcde>
20005a38:	e58e      	b.n	20005558 <_dtoa_r+0x808>
20005a3a:	4659      	mov	r1, fp
20005a3c:	9a15      	ldr	r2, [sp, #84]	; 0x54
20005a3e:	4620      	mov	r0, r4
20005a40:	f001 fe84 	bl	2000774c <__pow5mult>
20005a44:	4683      	mov	fp, r0
20005a46:	e528      	b.n	2000549a <_dtoa_r+0x74a>
20005a48:	f005 030f 	and.w	r3, r5, #15
20005a4c:	f249 7228 	movw	r2, #38696	; 0x9728
20005a50:	f2c2 0200 	movt	r2, #8192	; 0x2000
20005a54:	e9dd 0106 	ldrd	r0, r1, [sp, #24]
20005a58:	eb02 03c3 	add.w	r3, r2, r3, lsl #3
20005a5c:	e9d3 2300 	ldrd	r2, r3, [r3]
20005a60:	f002 fe80 	bl	20008764 <__aeabi_dmul>
20005a64:	112d      	asrs	r5, r5, #4
20005a66:	bf08      	it	eq
20005a68:	f04f 0802 	moveq.w	r8, #2
20005a6c:	e9cd 010c 	strd	r0, r1, [sp, #48]	; 0x30
20005a70:	f43f aafd 	beq.w	2000506e <_dtoa_r+0x31e>
20005a74:	f649 0700 	movw	r7, #38912	; 0x9800
20005a78:	e9dd 230c 	ldrd	r2, r3, [sp, #48]	; 0x30
20005a7c:	f04f 0802 	mov.w	r8, #2
20005a80:	f2c2 0700 	movt	r7, #8192	; 0x2000
20005a84:	f015 0f01 	tst.w	r5, #1
20005a88:	4610      	mov	r0, r2
20005a8a:	4619      	mov	r1, r3
20005a8c:	d007      	beq.n	20005a9e <_dtoa_r+0xd4e>
20005a8e:	e9d7 2300 	ldrd	r2, r3, [r7]
20005a92:	f108 0801 	add.w	r8, r8, #1
20005a96:	f002 fe65 	bl	20008764 <__aeabi_dmul>
20005a9a:	4602      	mov	r2, r0
20005a9c:	460b      	mov	r3, r1
20005a9e:	3708      	adds	r7, #8
20005aa0:	106d      	asrs	r5, r5, #1
20005aa2:	d1ef      	bne.n	20005a84 <_dtoa_r+0xd34>
20005aa4:	e9cd 230c 	strd	r2, r3, [sp, #48]	; 0x30
20005aa8:	f7ff bae1 	b.w	2000506e <_dtoa_r+0x31e>
20005aac:	9915      	ldr	r1, [sp, #84]	; 0x54
20005aae:	9a17      	ldr	r2, [sp, #92]	; 0x5c
20005ab0:	1a5b      	subs	r3, r3, r1
20005ab2:	18c9      	adds	r1, r1, r3
20005ab4:	18d2      	adds	r2, r2, r3
20005ab6:	9115      	str	r1, [sp, #84]	; 0x54
20005ab8:	9217      	str	r2, [sp, #92]	; 0x5c
20005aba:	e5a0      	b.n	200055fe <_dtoa_r+0x8ae>
20005abc:	4659      	mov	r1, fp
20005abe:	4620      	mov	r0, r4
20005ac0:	f001 fe44 	bl	2000774c <__pow5mult>
20005ac4:	4683      	mov	fp, r0
20005ac6:	e4e8      	b.n	2000549a <_dtoa_r+0x74a>
20005ac8:	9919      	ldr	r1, [sp, #100]	; 0x64
20005aca:	2900      	cmp	r1, #0
20005acc:	d047      	beq.n	20005b5e <_dtoa_r+0xe0e>
20005ace:	f503 6386 	add.w	r3, r3, #1072	; 0x430
20005ad2:	9f15      	ldr	r7, [sp, #84]	; 0x54
20005ad4:	3303      	adds	r3, #3
20005ad6:	9d0f      	ldr	r5, [sp, #60]	; 0x3c
20005ad8:	e597      	b.n	2000560a <_dtoa_r+0x8ba>
20005ada:	3201      	adds	r2, #1
20005adc:	b2d2      	uxtb	r2, r2
20005ade:	e49d      	b.n	2000541c <_dtoa_r+0x6cc>
20005ae0:	f8dd b068 	ldr.w	fp, [sp, #104]	; 0x68
20005ae4:	f8dd a070 	ldr.w	sl, [sp, #112]	; 0x70
20005ae8:	9e1d      	ldr	r6, [sp, #116]	; 0x74
20005aea:	9c0c      	ldr	r4, [sp, #48]	; 0x30
20005aec:	f7ff bbd3 	b.w	20005296 <_dtoa_r+0x546>
20005af0:	990f      	ldr	r1, [sp, #60]	; 0x3c
20005af2:	2300      	movs	r3, #0
20005af4:	9808      	ldr	r0, [sp, #32]
20005af6:	1a0d      	subs	r5, r1, r0
20005af8:	e587      	b.n	2000560a <_dtoa_r+0x8ba>
20005afa:	f1b9 0f00 	cmp.w	r9, #0
20005afe:	9d0f      	ldr	r5, [sp, #60]	; 0x3c
20005b00:	9e0c      	ldr	r6, [sp, #48]	; 0x30
20005b02:	dd0f      	ble.n	20005b24 <_dtoa_r+0xdd4>
20005b04:	4659      	mov	r1, fp
20005b06:	2201      	movs	r2, #1
20005b08:	4620      	mov	r0, r4
20005b0a:	f001 fcd9 	bl	200074c0 <__lshift>
20005b0e:	9906      	ldr	r1, [sp, #24]
20005b10:	4683      	mov	fp, r0
20005b12:	f001 fa65 	bl	20006fe0 <__mcmp>
20005b16:	2800      	cmp	r0, #0
20005b18:	dd47      	ble.n	20005baa <_dtoa_r+0xe5a>
20005b1a:	990b      	ldr	r1, [sp, #44]	; 0x2c
20005b1c:	2939      	cmp	r1, #57	; 0x39
20005b1e:	d031      	beq.n	20005b84 <_dtoa_r+0xe34>
20005b20:	3101      	adds	r1, #1
20005b22:	910b      	str	r1, [sp, #44]	; 0x2c
20005b24:	9a0b      	ldr	r2, [sp, #44]	; 0x2c
20005b26:	f805 2b01 	strb.w	r2, [r5], #1
20005b2a:	e515      	b.n	20005558 <_dtoa_r+0x808>
20005b2c:	3201      	adds	r2, #1
20005b2e:	701a      	strb	r2, [r3, #0]
20005b30:	e512      	b.n	20005558 <_dtoa_r+0x808>
20005b32:	9a0c      	ldr	r2, [sp, #48]	; 0x30
20005b34:	4620      	mov	r0, r4
20005b36:	6851      	ldr	r1, [r2, #4]
20005b38:	f001 fba8 	bl	2000728c <_Balloc>
20005b3c:	9b0c      	ldr	r3, [sp, #48]	; 0x30
20005b3e:	f103 010c 	add.w	r1, r3, #12
20005b42:	691a      	ldr	r2, [r3, #16]
20005b44:	3202      	adds	r2, #2
20005b46:	0092      	lsls	r2, r2, #2
20005b48:	4605      	mov	r5, r0
20005b4a:	300c      	adds	r0, #12
20005b4c:	f001 f8ce 	bl	20006cec <memcpy>
20005b50:	4620      	mov	r0, r4
20005b52:	4629      	mov	r1, r5
20005b54:	2201      	movs	r2, #1
20005b56:	f001 fcb3 	bl	200074c0 <__lshift>
20005b5a:	4682      	mov	sl, r0
20005b5c:	e601      	b.n	20005762 <_dtoa_r+0xa12>
20005b5e:	9b1f      	ldr	r3, [sp, #124]	; 0x7c
20005b60:	9f15      	ldr	r7, [sp, #84]	; 0x54
20005b62:	9d0f      	ldr	r5, [sp, #60]	; 0x3c
20005b64:	f1c3 0336 	rsb	r3, r3, #54	; 0x36
20005b68:	e54f      	b.n	2000560a <_dtoa_r+0x8ba>
20005b6a:	9d0f      	ldr	r5, [sp, #60]	; 0x3c
20005b6c:	9e0c      	ldr	r6, [sp, #48]	; 0x30
20005b6e:	e73d      	b.n	200059ec <_dtoa_r+0xc9c>
20005b70:	9b0b      	ldr	r3, [sp, #44]	; 0x2c
20005b72:	9d0f      	ldr	r5, [sp, #60]	; 0x3c
20005b74:	2b39      	cmp	r3, #57	; 0x39
20005b76:	9e0c      	ldr	r6, [sp, #48]	; 0x30
20005b78:	d004      	beq.n	20005b84 <_dtoa_r+0xe34>
20005b7a:	980b      	ldr	r0, [sp, #44]	; 0x2c
20005b7c:	1c43      	adds	r3, r0, #1
20005b7e:	f805 3b01 	strb.w	r3, [r5], #1
20005b82:	e4e9      	b.n	20005558 <_dtoa_r+0x808>
20005b84:	2339      	movs	r3, #57	; 0x39
20005b86:	f805 3b01 	strb.w	r3, [r5], #1
20005b8a:	9910      	ldr	r1, [sp, #64]	; 0x40
20005b8c:	e73c      	b.n	20005a08 <_dtoa_r+0xcb8>
20005b8e:	980b      	ldr	r0, [sp, #44]	; 0x2c
20005b90:	4633      	mov	r3, r6
20005b92:	9d0f      	ldr	r5, [sp, #60]	; 0x3c
20005b94:	2839      	cmp	r0, #57	; 0x39
20005b96:	9e0c      	ldr	r6, [sp, #48]	; 0x30
20005b98:	d0f4      	beq.n	20005b84 <_dtoa_r+0xe34>
20005b9a:	2b00      	cmp	r3, #0
20005b9c:	dd01      	ble.n	20005ba2 <_dtoa_r+0xe52>
20005b9e:	3001      	adds	r0, #1
20005ba0:	900b      	str	r0, [sp, #44]	; 0x2c
20005ba2:	990b      	ldr	r1, [sp, #44]	; 0x2c
20005ba4:	f805 1b01 	strb.w	r1, [r5], #1
20005ba8:	e4d6      	b.n	20005558 <_dtoa_r+0x808>
20005baa:	d1bb      	bne.n	20005b24 <_dtoa_r+0xdd4>
20005bac:	980b      	ldr	r0, [sp, #44]	; 0x2c
20005bae:	f010 0f01 	tst.w	r0, #1
20005bb2:	d0b7      	beq.n	20005b24 <_dtoa_r+0xdd4>
20005bb4:	e7b1      	b.n	20005b1a <_dtoa_r+0xdca>
20005bb6:	2300      	movs	r3, #0
20005bb8:	990c      	ldr	r1, [sp, #48]	; 0x30
20005bba:	4620      	mov	r0, r4
20005bbc:	220a      	movs	r2, #10
20005bbe:	f001 fd81 	bl	200076c4 <__multadd>
20005bc2:	9b11      	ldr	r3, [sp, #68]	; 0x44
20005bc4:	9308      	str	r3, [sp, #32]
20005bc6:	900c      	str	r0, [sp, #48]	; 0x30
20005bc8:	e4a0      	b.n	2000550c <_dtoa_r+0x7bc>
20005bca:	9908      	ldr	r1, [sp, #32]
20005bcc:	290e      	cmp	r1, #14
20005bce:	bf8c      	ite	hi
20005bd0:	2700      	movhi	r7, #0
20005bd2:	f007 0701 	andls.w	r7, r7, #1
20005bd6:	f7ff b9fa 	b.w	20004fce <_dtoa_r+0x27e>
20005bda:	f43f ac81 	beq.w	200054e0 <_dtoa_r+0x790>
20005bde:	331c      	adds	r3, #28
20005be0:	e479      	b.n	200054d6 <_dtoa_r+0x786>
20005be2:	2701      	movs	r7, #1
20005be4:	f7ff b98a 	b.w	20004efc <_dtoa_r+0x1ac>

20005be8 <_fflush_r>:
20005be8:	690b      	ldr	r3, [r1, #16]
20005bea:	e92d 41f0 	stmdb	sp!, {r4, r5, r6, r7, r8, lr}
20005bee:	460c      	mov	r4, r1
20005bf0:	4680      	mov	r8, r0
20005bf2:	2b00      	cmp	r3, #0
20005bf4:	d071      	beq.n	20005cda <_fflush_r+0xf2>
20005bf6:	b110      	cbz	r0, 20005bfe <_fflush_r+0x16>
20005bf8:	6983      	ldr	r3, [r0, #24]
20005bfa:	2b00      	cmp	r3, #0
20005bfc:	d078      	beq.n	20005cf0 <_fflush_r+0x108>
20005bfe:	f249 6380 	movw	r3, #38528	; 0x9680
20005c02:	f2c2 0300 	movt	r3, #8192	; 0x2000
20005c06:	429c      	cmp	r4, r3
20005c08:	bf08      	it	eq
20005c0a:	f8d8 4004 	ldreq.w	r4, [r8, #4]
20005c0e:	d010      	beq.n	20005c32 <_fflush_r+0x4a>
20005c10:	f249 63a0 	movw	r3, #38560	; 0x96a0
20005c14:	f2c2 0300 	movt	r3, #8192	; 0x2000
20005c18:	429c      	cmp	r4, r3
20005c1a:	bf08      	it	eq
20005c1c:	f8d8 4008 	ldreq.w	r4, [r8, #8]
20005c20:	d007      	beq.n	20005c32 <_fflush_r+0x4a>
20005c22:	f249 63c0 	movw	r3, #38592	; 0x96c0
20005c26:	f2c2 0300 	movt	r3, #8192	; 0x2000
20005c2a:	429c      	cmp	r4, r3
20005c2c:	bf08      	it	eq
20005c2e:	f8d8 400c 	ldreq.w	r4, [r8, #12]
20005c32:	89a3      	ldrh	r3, [r4, #12]
20005c34:	b21a      	sxth	r2, r3
20005c36:	f012 0f08 	tst.w	r2, #8
20005c3a:	d135      	bne.n	20005ca8 <_fflush_r+0xc0>
20005c3c:	6862      	ldr	r2, [r4, #4]
20005c3e:	f443 6300 	orr.w	r3, r3, #2048	; 0x800
20005c42:	81a3      	strh	r3, [r4, #12]
20005c44:	2a00      	cmp	r2, #0
20005c46:	dd5e      	ble.n	20005d06 <_fflush_r+0x11e>
20005c48:	6ae6      	ldr	r6, [r4, #44]	; 0x2c
20005c4a:	2e00      	cmp	r6, #0
20005c4c:	d045      	beq.n	20005cda <_fflush_r+0xf2>
20005c4e:	b29b      	uxth	r3, r3
20005c50:	f413 5280 	ands.w	r2, r3, #4096	; 0x1000
20005c54:	bf18      	it	ne
20005c56:	6d65      	ldrne	r5, [r4, #84]	; 0x54
20005c58:	d059      	beq.n	20005d0e <_fflush_r+0x126>
20005c5a:	f013 0f04 	tst.w	r3, #4
20005c5e:	d14a      	bne.n	20005cf6 <_fflush_r+0x10e>
20005c60:	2300      	movs	r3, #0
20005c62:	4640      	mov	r0, r8
20005c64:	6a21      	ldr	r1, [r4, #32]
20005c66:	462a      	mov	r2, r5
20005c68:	47b0      	blx	r6
20005c6a:	4285      	cmp	r5, r0
20005c6c:	d138      	bne.n	20005ce0 <_fflush_r+0xf8>
20005c6e:	89a1      	ldrh	r1, [r4, #12]
20005c70:	f24f 73ff 	movw	r3, #63487	; 0xf7ff
20005c74:	6922      	ldr	r2, [r4, #16]
20005c76:	f2c0 0300 	movt	r3, #0
20005c7a:	ea01 0303 	and.w	r3, r1, r3
20005c7e:	2100      	movs	r1, #0
20005c80:	6061      	str	r1, [r4, #4]
20005c82:	f413 5f80 	tst.w	r3, #4096	; 0x1000
20005c86:	6b61      	ldr	r1, [r4, #52]	; 0x34
20005c88:	81a3      	strh	r3, [r4, #12]
20005c8a:	6022      	str	r2, [r4, #0]
20005c8c:	bf18      	it	ne
20005c8e:	6565      	strne	r5, [r4, #84]	; 0x54
20005c90:	b319      	cbz	r1, 20005cda <_fflush_r+0xf2>
20005c92:	f104 0344 	add.w	r3, r4, #68	; 0x44
20005c96:	4299      	cmp	r1, r3
20005c98:	d002      	beq.n	20005ca0 <_fflush_r+0xb8>
20005c9a:	4640      	mov	r0, r8
20005c9c:	f000 f998 	bl	20005fd0 <_free_r>
20005ca0:	2000      	movs	r0, #0
20005ca2:	6360      	str	r0, [r4, #52]	; 0x34
20005ca4:	e8bd 81f0 	ldmia.w	sp!, {r4, r5, r6, r7, r8, pc}
20005ca8:	6926      	ldr	r6, [r4, #16]
20005caa:	b1b6      	cbz	r6, 20005cda <_fflush_r+0xf2>
20005cac:	6825      	ldr	r5, [r4, #0]
20005cae:	6026      	str	r6, [r4, #0]
20005cb0:	1bad      	subs	r5, r5, r6
20005cb2:	f012 0f03 	tst.w	r2, #3
20005cb6:	bf0c      	ite	eq
20005cb8:	6963      	ldreq	r3, [r4, #20]
20005cba:	2300      	movne	r3, #0
20005cbc:	60a3      	str	r3, [r4, #8]
20005cbe:	e00a      	b.n	20005cd6 <_fflush_r+0xee>
20005cc0:	4632      	mov	r2, r6
20005cc2:	462b      	mov	r3, r5
20005cc4:	6aa7      	ldr	r7, [r4, #40]	; 0x28
20005cc6:	4640      	mov	r0, r8
20005cc8:	6a21      	ldr	r1, [r4, #32]
20005cca:	47b8      	blx	r7
20005ccc:	2800      	cmp	r0, #0
20005cce:	ebc0 0505 	rsb	r5, r0, r5
20005cd2:	4406      	add	r6, r0
20005cd4:	dd04      	ble.n	20005ce0 <_fflush_r+0xf8>
20005cd6:	2d00      	cmp	r5, #0
20005cd8:	dcf2      	bgt.n	20005cc0 <_fflush_r+0xd8>
20005cda:	2000      	movs	r0, #0
20005cdc:	e8bd 81f0 	ldmia.w	sp!, {r4, r5, r6, r7, r8, pc}
20005ce0:	89a3      	ldrh	r3, [r4, #12]
20005ce2:	f04f 30ff 	mov.w	r0, #4294967295
20005ce6:	f043 0340 	orr.w	r3, r3, #64	; 0x40
20005cea:	81a3      	strh	r3, [r4, #12]
20005cec:	e8bd 81f0 	ldmia.w	sp!, {r4, r5, r6, r7, r8, pc}
20005cf0:	f000 f8ea 	bl	20005ec8 <__sinit>
20005cf4:	e783      	b.n	20005bfe <_fflush_r+0x16>
20005cf6:	6862      	ldr	r2, [r4, #4]
20005cf8:	6b63      	ldr	r3, [r4, #52]	; 0x34
20005cfa:	1aad      	subs	r5, r5, r2
20005cfc:	2b00      	cmp	r3, #0
20005cfe:	d0af      	beq.n	20005c60 <_fflush_r+0x78>
20005d00:	6c23      	ldr	r3, [r4, #64]	; 0x40
20005d02:	1aed      	subs	r5, r5, r3
20005d04:	e7ac      	b.n	20005c60 <_fflush_r+0x78>
20005d06:	6c22      	ldr	r2, [r4, #64]	; 0x40
20005d08:	2a00      	cmp	r2, #0
20005d0a:	dc9d      	bgt.n	20005c48 <_fflush_r+0x60>
20005d0c:	e7e5      	b.n	20005cda <_fflush_r+0xf2>
20005d0e:	2301      	movs	r3, #1
20005d10:	4640      	mov	r0, r8
20005d12:	6a21      	ldr	r1, [r4, #32]
20005d14:	47b0      	blx	r6
20005d16:	f1b0 3fff 	cmp.w	r0, #4294967295
20005d1a:	4605      	mov	r5, r0
20005d1c:	d002      	beq.n	20005d24 <_fflush_r+0x13c>
20005d1e:	89a3      	ldrh	r3, [r4, #12]
20005d20:	6ae6      	ldr	r6, [r4, #44]	; 0x2c
20005d22:	e79a      	b.n	20005c5a <_fflush_r+0x72>
20005d24:	f8d8 3000 	ldr.w	r3, [r8]
20005d28:	2b1d      	cmp	r3, #29
20005d2a:	d0d6      	beq.n	20005cda <_fflush_r+0xf2>
20005d2c:	89a3      	ldrh	r3, [r4, #12]
20005d2e:	f043 0340 	orr.w	r3, r3, #64	; 0x40
20005d32:	81a3      	strh	r3, [r4, #12]
20005d34:	e8bd 81f0 	ldmia.w	sp!, {r4, r5, r6, r7, r8, pc}

20005d38 <fflush>:
20005d38:	4601      	mov	r1, r0
20005d3a:	b128      	cbz	r0, 20005d48 <fflush+0x10>
20005d3c:	f649 03ec 	movw	r3, #39148	; 0x98ec
20005d40:	f2c2 0300 	movt	r3, #8192	; 0x2000
20005d44:	6818      	ldr	r0, [r3, #0]
20005d46:	e74f      	b.n	20005be8 <_fflush_r>
20005d48:	f249 6304 	movw	r3, #38404	; 0x9604
20005d4c:	f645 31e9 	movw	r1, #23529	; 0x5be9
20005d50:	f2c2 0300 	movt	r3, #8192	; 0x2000
20005d54:	f2c2 0100 	movt	r1, #8192	; 0x2000
20005d58:	6818      	ldr	r0, [r3, #0]
20005d5a:	f000 bbb3 	b.w	200064c4 <_fwalk_reent>
20005d5e:	bf00      	nop

20005d60 <__sfp_lock_acquire>:
20005d60:	4770      	bx	lr
20005d62:	bf00      	nop

20005d64 <__sfp_lock_release>:
20005d64:	4770      	bx	lr
20005d66:	bf00      	nop

20005d68 <__sinit_lock_acquire>:
20005d68:	4770      	bx	lr
20005d6a:	bf00      	nop

20005d6c <__sinit_lock_release>:
20005d6c:	4770      	bx	lr
20005d6e:	bf00      	nop

20005d70 <__fp_lock>:
20005d70:	2000      	movs	r0, #0
20005d72:	4770      	bx	lr

20005d74 <__fp_unlock>:
20005d74:	2000      	movs	r0, #0
20005d76:	4770      	bx	lr

20005d78 <__fp_unlock_all>:
20005d78:	f649 03ec 	movw	r3, #39148	; 0x98ec
20005d7c:	f645 5175 	movw	r1, #23925	; 0x5d75
20005d80:	f2c2 0300 	movt	r3, #8192	; 0x2000
20005d84:	f2c2 0100 	movt	r1, #8192	; 0x2000
20005d88:	6818      	ldr	r0, [r3, #0]
20005d8a:	f000 bbc5 	b.w	20006518 <_fwalk>
20005d8e:	bf00      	nop

20005d90 <__fp_lock_all>:
20005d90:	f649 03ec 	movw	r3, #39148	; 0x98ec
20005d94:	f645 5171 	movw	r1, #23921	; 0x5d71
20005d98:	f2c2 0300 	movt	r3, #8192	; 0x2000
20005d9c:	f2c2 0100 	movt	r1, #8192	; 0x2000
20005da0:	6818      	ldr	r0, [r3, #0]
20005da2:	f000 bbb9 	b.w	20006518 <_fwalk>
20005da6:	bf00      	nop

20005da8 <_cleanup_r>:
20005da8:	f248 01bd 	movw	r1, #32957	; 0x80bd
20005dac:	f2c2 0100 	movt	r1, #8192	; 0x2000
20005db0:	f000 bbb2 	b.w	20006518 <_fwalk>

20005db4 <_cleanup>:
20005db4:	f249 6304 	movw	r3, #38404	; 0x9604
20005db8:	f2c2 0300 	movt	r3, #8192	; 0x2000
20005dbc:	6818      	ldr	r0, [r3, #0]
20005dbe:	e7f3      	b.n	20005da8 <_cleanup_r>

20005dc0 <std>:
20005dc0:	b510      	push	{r4, lr}
20005dc2:	4604      	mov	r4, r0
20005dc4:	2300      	movs	r3, #0
20005dc6:	305c      	adds	r0, #92	; 0x5c
20005dc8:	81a1      	strh	r1, [r4, #12]
20005dca:	4619      	mov	r1, r3
20005dcc:	81e2      	strh	r2, [r4, #14]
20005dce:	2208      	movs	r2, #8
20005dd0:	6023      	str	r3, [r4, #0]
20005dd2:	6063      	str	r3, [r4, #4]
20005dd4:	60a3      	str	r3, [r4, #8]
20005dd6:	6663      	str	r3, [r4, #100]	; 0x64
20005dd8:	6123      	str	r3, [r4, #16]
20005dda:	6163      	str	r3, [r4, #20]
20005ddc:	61a3      	str	r3, [r4, #24]
20005dde:	f7fd f915 	bl	2000300c <memset>
20005de2:	f647 501d 	movw	r0, #32029	; 0x7d1d
20005de6:	f647 41e1 	movw	r1, #31969	; 0x7ce1
20005dea:	f647 42b9 	movw	r2, #31929	; 0x7cb9
20005dee:	f647 43b1 	movw	r3, #31921	; 0x7cb1
20005df2:	f2c2 0000 	movt	r0, #8192	; 0x2000
20005df6:	f2c2 0100 	movt	r1, #8192	; 0x2000
20005dfa:	f2c2 0200 	movt	r2, #8192	; 0x2000
20005dfe:	f2c2 0300 	movt	r3, #8192	; 0x2000
20005e02:	6260      	str	r0, [r4, #36]	; 0x24
20005e04:	62a1      	str	r1, [r4, #40]	; 0x28
20005e06:	62e2      	str	r2, [r4, #44]	; 0x2c
20005e08:	6323      	str	r3, [r4, #48]	; 0x30
20005e0a:	6224      	str	r4, [r4, #32]
20005e0c:	bd10      	pop	{r4, pc}
20005e0e:	bf00      	nop

20005e10 <__sfmoreglue>:
20005e10:	b570      	push	{r4, r5, r6, lr}
20005e12:	2568      	movs	r5, #104	; 0x68
20005e14:	460e      	mov	r6, r1
20005e16:	fb05 f501 	mul.w	r5, r5, r1
20005e1a:	f105 010c 	add.w	r1, r5, #12
20005e1e:	f000 fc59 	bl	200066d4 <_malloc_r>
20005e22:	4604      	mov	r4, r0
20005e24:	b148      	cbz	r0, 20005e3a <__sfmoreglue+0x2a>
20005e26:	f100 030c 	add.w	r3, r0, #12
20005e2a:	2100      	movs	r1, #0
20005e2c:	6046      	str	r6, [r0, #4]
20005e2e:	462a      	mov	r2, r5
20005e30:	4618      	mov	r0, r3
20005e32:	6021      	str	r1, [r4, #0]
20005e34:	60a3      	str	r3, [r4, #8]
20005e36:	f7fd f8e9 	bl	2000300c <memset>
20005e3a:	4620      	mov	r0, r4
20005e3c:	bd70      	pop	{r4, r5, r6, pc}
20005e3e:	bf00      	nop

20005e40 <__sfp>:
20005e40:	f249 6304 	movw	r3, #38404	; 0x9604
20005e44:	f2c2 0300 	movt	r3, #8192	; 0x2000
20005e48:	b570      	push	{r4, r5, r6, lr}
20005e4a:	681d      	ldr	r5, [r3, #0]
20005e4c:	4606      	mov	r6, r0
20005e4e:	69ab      	ldr	r3, [r5, #24]
20005e50:	2b00      	cmp	r3, #0
20005e52:	d02a      	beq.n	20005eaa <__sfp+0x6a>
20005e54:	35d8      	adds	r5, #216	; 0xd8
20005e56:	686b      	ldr	r3, [r5, #4]
20005e58:	68ac      	ldr	r4, [r5, #8]
20005e5a:	3b01      	subs	r3, #1
20005e5c:	d503      	bpl.n	20005e66 <__sfp+0x26>
20005e5e:	e020      	b.n	20005ea2 <__sfp+0x62>
20005e60:	3468      	adds	r4, #104	; 0x68
20005e62:	3b01      	subs	r3, #1
20005e64:	d41d      	bmi.n	20005ea2 <__sfp+0x62>
20005e66:	f9b4 200c 	ldrsh.w	r2, [r4, #12]
20005e6a:	2a00      	cmp	r2, #0
20005e6c:	d1f8      	bne.n	20005e60 <__sfp+0x20>
20005e6e:	2500      	movs	r5, #0
20005e70:	f04f 33ff 	mov.w	r3, #4294967295
20005e74:	6665      	str	r5, [r4, #100]	; 0x64
20005e76:	f104 005c 	add.w	r0, r4, #92	; 0x5c
20005e7a:	81e3      	strh	r3, [r4, #14]
20005e7c:	4629      	mov	r1, r5
20005e7e:	f04f 0301 	mov.w	r3, #1
20005e82:	6025      	str	r5, [r4, #0]
20005e84:	81a3      	strh	r3, [r4, #12]
20005e86:	2208      	movs	r2, #8
20005e88:	60a5      	str	r5, [r4, #8]
20005e8a:	6065      	str	r5, [r4, #4]
20005e8c:	6125      	str	r5, [r4, #16]
20005e8e:	6165      	str	r5, [r4, #20]
20005e90:	61a5      	str	r5, [r4, #24]
20005e92:	f7fd f8bb 	bl	2000300c <memset>
20005e96:	64e5      	str	r5, [r4, #76]	; 0x4c
20005e98:	6365      	str	r5, [r4, #52]	; 0x34
20005e9a:	63a5      	str	r5, [r4, #56]	; 0x38
20005e9c:	64a5      	str	r5, [r4, #72]	; 0x48
20005e9e:	4620      	mov	r0, r4
20005ea0:	bd70      	pop	{r4, r5, r6, pc}
20005ea2:	6828      	ldr	r0, [r5, #0]
20005ea4:	b128      	cbz	r0, 20005eb2 <__sfp+0x72>
20005ea6:	4605      	mov	r5, r0
20005ea8:	e7d5      	b.n	20005e56 <__sfp+0x16>
20005eaa:	4628      	mov	r0, r5
20005eac:	f000 f80c 	bl	20005ec8 <__sinit>
20005eb0:	e7d0      	b.n	20005e54 <__sfp+0x14>
20005eb2:	4630      	mov	r0, r6
20005eb4:	2104      	movs	r1, #4
20005eb6:	f7ff ffab 	bl	20005e10 <__sfmoreglue>
20005eba:	6028      	str	r0, [r5, #0]
20005ebc:	2800      	cmp	r0, #0
20005ebe:	d1f2      	bne.n	20005ea6 <__sfp+0x66>
20005ec0:	230c      	movs	r3, #12
20005ec2:	4604      	mov	r4, r0
20005ec4:	6033      	str	r3, [r6, #0]
20005ec6:	e7ea      	b.n	20005e9e <__sfp+0x5e>

20005ec8 <__sinit>:
20005ec8:	b570      	push	{r4, r5, r6, lr}
20005eca:	6986      	ldr	r6, [r0, #24]
20005ecc:	4604      	mov	r4, r0
20005ece:	b106      	cbz	r6, 20005ed2 <__sinit+0xa>
20005ed0:	bd70      	pop	{r4, r5, r6, pc}
20005ed2:	f645 53a9 	movw	r3, #23977	; 0x5da9
20005ed6:	2501      	movs	r5, #1
20005ed8:	f2c2 0300 	movt	r3, #8192	; 0x2000
20005edc:	f8c0 60d8 	str.w	r6, [r0, #216]	; 0xd8
20005ee0:	6283      	str	r3, [r0, #40]	; 0x28
20005ee2:	f8c0 60dc 	str.w	r6, [r0, #220]	; 0xdc
20005ee6:	f8c0 60e0 	str.w	r6, [r0, #224]	; 0xe0
20005eea:	6185      	str	r5, [r0, #24]
20005eec:	f7ff ffa8 	bl	20005e40 <__sfp>
20005ef0:	6060      	str	r0, [r4, #4]
20005ef2:	4620      	mov	r0, r4
20005ef4:	f7ff ffa4 	bl	20005e40 <__sfp>
20005ef8:	60a0      	str	r0, [r4, #8]
20005efa:	4620      	mov	r0, r4
20005efc:	f7ff ffa0 	bl	20005e40 <__sfp>
20005f00:	4632      	mov	r2, r6
20005f02:	2104      	movs	r1, #4
20005f04:	4623      	mov	r3, r4
20005f06:	60e0      	str	r0, [r4, #12]
20005f08:	6860      	ldr	r0, [r4, #4]
20005f0a:	f7ff ff59 	bl	20005dc0 <std>
20005f0e:	462a      	mov	r2, r5
20005f10:	68a0      	ldr	r0, [r4, #8]
20005f12:	2109      	movs	r1, #9
20005f14:	4623      	mov	r3, r4
20005f16:	f7ff ff53 	bl	20005dc0 <std>
20005f1a:	4623      	mov	r3, r4
20005f1c:	68e0      	ldr	r0, [r4, #12]
20005f1e:	2112      	movs	r1, #18
20005f20:	2202      	movs	r2, #2
20005f22:	e8bd 4070 	ldmia.w	sp!, {r4, r5, r6, lr}
20005f26:	e74b      	b.n	20005dc0 <std>

20005f28 <_malloc_trim_r>:
20005f28:	b5f8      	push	{r3, r4, r5, r6, r7, lr}
20005f2a:	f649 14e0 	movw	r4, #39392	; 0x99e0
20005f2e:	f2c2 0400 	movt	r4, #8192	; 0x2000
20005f32:	460f      	mov	r7, r1
20005f34:	4605      	mov	r5, r0
20005f36:	f000 fffd 	bl	20006f34 <__malloc_lock>
20005f3a:	68a3      	ldr	r3, [r4, #8]
20005f3c:	685e      	ldr	r6, [r3, #4]
20005f3e:	f026 0603 	bic.w	r6, r6, #3
20005f42:	f506 637e 	add.w	r3, r6, #4064	; 0xfe0
20005f46:	330f      	adds	r3, #15
20005f48:	1bdf      	subs	r7, r3, r7
20005f4a:	0b3f      	lsrs	r7, r7, #12
20005f4c:	3f01      	subs	r7, #1
20005f4e:	033f      	lsls	r7, r7, #12
20005f50:	f5b7 5f80 	cmp.w	r7, #4096	; 0x1000
20005f54:	db07      	blt.n	20005f66 <_malloc_trim_r+0x3e>
20005f56:	2100      	movs	r1, #0
20005f58:	4628      	mov	r0, r5
20005f5a:	f001 fe95 	bl	20007c88 <_sbrk_r>
20005f5e:	68a3      	ldr	r3, [r4, #8]
20005f60:	18f3      	adds	r3, r6, r3
20005f62:	4283      	cmp	r3, r0
20005f64:	d004      	beq.n	20005f70 <_malloc_trim_r+0x48>
20005f66:	4628      	mov	r0, r5
20005f68:	f000 ffe6 	bl	20006f38 <__malloc_unlock>
20005f6c:	2000      	movs	r0, #0
20005f6e:	bdf8      	pop	{r3, r4, r5, r6, r7, pc}
20005f70:	4279      	negs	r1, r7
20005f72:	4628      	mov	r0, r5
20005f74:	f001 fe88 	bl	20007c88 <_sbrk_r>
20005f78:	f1b0 3fff 	cmp.w	r0, #4294967295
20005f7c:	d010      	beq.n	20005fa0 <_malloc_trim_r+0x78>
20005f7e:	68a2      	ldr	r2, [r4, #8]
20005f80:	f649 6314 	movw	r3, #40468	; 0x9e14
20005f84:	f2c2 0300 	movt	r3, #8192	; 0x2000
20005f88:	1bf6      	subs	r6, r6, r7
20005f8a:	f046 0601 	orr.w	r6, r6, #1
20005f8e:	4628      	mov	r0, r5
20005f90:	6056      	str	r6, [r2, #4]
20005f92:	681a      	ldr	r2, [r3, #0]
20005f94:	1bd7      	subs	r7, r2, r7
20005f96:	601f      	str	r7, [r3, #0]
20005f98:	f000 ffce 	bl	20006f38 <__malloc_unlock>
20005f9c:	2001      	movs	r0, #1
20005f9e:	bdf8      	pop	{r3, r4, r5, r6, r7, pc}
20005fa0:	2100      	movs	r1, #0
20005fa2:	4628      	mov	r0, r5
20005fa4:	f001 fe70 	bl	20007c88 <_sbrk_r>
20005fa8:	68a3      	ldr	r3, [r4, #8]
20005faa:	1ac2      	subs	r2, r0, r3
20005fac:	2a0f      	cmp	r2, #15
20005fae:	ddda      	ble.n	20005f66 <_malloc_trim_r+0x3e>
20005fb0:	f649 54e8 	movw	r4, #40424	; 0x9de8
20005fb4:	f649 6114 	movw	r1, #40468	; 0x9e14
20005fb8:	f2c2 0400 	movt	r4, #8192	; 0x2000
20005fbc:	f2c2 0100 	movt	r1, #8192	; 0x2000
20005fc0:	f042 0201 	orr.w	r2, r2, #1
20005fc4:	6824      	ldr	r4, [r4, #0]
20005fc6:	1b00      	subs	r0, r0, r4
20005fc8:	6008      	str	r0, [r1, #0]
20005fca:	605a      	str	r2, [r3, #4]
20005fcc:	e7cb      	b.n	20005f66 <_malloc_trim_r+0x3e>
20005fce:	bf00      	nop

20005fd0 <_free_r>:
20005fd0:	e92d 41f0 	stmdb	sp!, {r4, r5, r6, r7, r8, lr}
20005fd4:	4605      	mov	r5, r0
20005fd6:	460c      	mov	r4, r1
20005fd8:	2900      	cmp	r1, #0
20005fda:	f000 8088 	beq.w	200060ee <_free_r+0x11e>
20005fde:	f000 ffa9 	bl	20006f34 <__malloc_lock>
20005fe2:	f1a4 0208 	sub.w	r2, r4, #8
20005fe6:	f649 10e0 	movw	r0, #39392	; 0x99e0
20005fea:	6856      	ldr	r6, [r2, #4]
20005fec:	f2c2 0000 	movt	r0, #8192	; 0x2000
20005ff0:	f026 0301 	bic.w	r3, r6, #1
20005ff4:	f8d0 c008 	ldr.w	ip, [r0, #8]
20005ff8:	18d1      	adds	r1, r2, r3
20005ffa:	458c      	cmp	ip, r1
20005ffc:	684f      	ldr	r7, [r1, #4]
20005ffe:	f027 0703 	bic.w	r7, r7, #3
20006002:	f000 8095 	beq.w	20006130 <_free_r+0x160>
20006006:	f016 0601 	ands.w	r6, r6, #1
2000600a:	604f      	str	r7, [r1, #4]
2000600c:	d05f      	beq.n	200060ce <_free_r+0xfe>
2000600e:	2600      	movs	r6, #0
20006010:	19cc      	adds	r4, r1, r7
20006012:	6864      	ldr	r4, [r4, #4]
20006014:	f014 0f01 	tst.w	r4, #1
20006018:	d106      	bne.n	20006028 <_free_r+0x58>
2000601a:	19db      	adds	r3, r3, r7
2000601c:	2e00      	cmp	r6, #0
2000601e:	d07a      	beq.n	20006116 <_free_r+0x146>
20006020:	688c      	ldr	r4, [r1, #8]
20006022:	68c9      	ldr	r1, [r1, #12]
20006024:	608c      	str	r4, [r1, #8]
20006026:	60e1      	str	r1, [r4, #12]
20006028:	f043 0101 	orr.w	r1, r3, #1
2000602c:	50d3      	str	r3, [r2, r3]
2000602e:	6051      	str	r1, [r2, #4]
20006030:	2e00      	cmp	r6, #0
20006032:	d147      	bne.n	200060c4 <_free_r+0xf4>
20006034:	f5b3 7f00 	cmp.w	r3, #512	; 0x200
20006038:	d35b      	bcc.n	200060f2 <_free_r+0x122>
2000603a:	0a59      	lsrs	r1, r3, #9
2000603c:	2904      	cmp	r1, #4
2000603e:	bf9e      	ittt	ls
20006040:	ea4f 1c93 	movls.w	ip, r3, lsr #6
20006044:	f10c 0c38 	addls.w	ip, ip, #56	; 0x38
20006048:	ea4f 04cc 	movls.w	r4, ip, lsl #3
2000604c:	d928      	bls.n	200060a0 <_free_r+0xd0>
2000604e:	2914      	cmp	r1, #20
20006050:	bf9c      	itt	ls
20006052:	f101 0c5b 	addls.w	ip, r1, #91	; 0x5b
20006056:	ea4f 04cc 	movls.w	r4, ip, lsl #3
2000605a:	d921      	bls.n	200060a0 <_free_r+0xd0>
2000605c:	2954      	cmp	r1, #84	; 0x54
2000605e:	bf9e      	ittt	ls
20006060:	ea4f 3c13 	movls.w	ip, r3, lsr #12
20006064:	f10c 0c6e 	addls.w	ip, ip, #110	; 0x6e
20006068:	ea4f 04cc 	movls.w	r4, ip, lsl #3
2000606c:	d918      	bls.n	200060a0 <_free_r+0xd0>
2000606e:	f5b1 7faa 	cmp.w	r1, #340	; 0x154
20006072:	bf9e      	ittt	ls
20006074:	ea4f 3cd3 	movls.w	ip, r3, lsr #15
20006078:	f10c 0c77 	addls.w	ip, ip, #119	; 0x77
2000607c:	ea4f 04cc 	movls.w	r4, ip, lsl #3
20006080:	d90e      	bls.n	200060a0 <_free_r+0xd0>
20006082:	f240 5c54 	movw	ip, #1364	; 0x554
20006086:	4561      	cmp	r1, ip
20006088:	bf95      	itete	ls
2000608a:	ea4f 4c93 	movls.w	ip, r3, lsr #18
2000608e:	f44f 747c 	movhi.w	r4, #1008	; 0x3f0
20006092:	f10c 0c7c 	addls.w	ip, ip, #124	; 0x7c
20006096:	f04f 0c7e 	movhi.w	ip, #126	; 0x7e
2000609a:	bf98      	it	ls
2000609c:	ea4f 04cc 	movls.w	r4, ip, lsl #3
200060a0:	1904      	adds	r4, r0, r4
200060a2:	68a1      	ldr	r1, [r4, #8]
200060a4:	42a1      	cmp	r1, r4
200060a6:	d103      	bne.n	200060b0 <_free_r+0xe0>
200060a8:	e064      	b.n	20006174 <_free_r+0x1a4>
200060aa:	6889      	ldr	r1, [r1, #8]
200060ac:	428c      	cmp	r4, r1
200060ae:	d004      	beq.n	200060ba <_free_r+0xea>
200060b0:	6848      	ldr	r0, [r1, #4]
200060b2:	f020 0003 	bic.w	r0, r0, #3
200060b6:	4283      	cmp	r3, r0
200060b8:	d3f7      	bcc.n	200060aa <_free_r+0xda>
200060ba:	68cb      	ldr	r3, [r1, #12]
200060bc:	60d3      	str	r3, [r2, #12]
200060be:	6091      	str	r1, [r2, #8]
200060c0:	60ca      	str	r2, [r1, #12]
200060c2:	609a      	str	r2, [r3, #8]
200060c4:	4628      	mov	r0, r5
200060c6:	e8bd 41f0 	ldmia.w	sp!, {r4, r5, r6, r7, r8, lr}
200060ca:	f000 bf35 	b.w	20006f38 <__malloc_unlock>
200060ce:	f854 4c08 	ldr.w	r4, [r4, #-8]
200060d2:	f100 0c08 	add.w	ip, r0, #8
200060d6:	1b12      	subs	r2, r2, r4
200060d8:	191b      	adds	r3, r3, r4
200060da:	6894      	ldr	r4, [r2, #8]
200060dc:	4564      	cmp	r4, ip
200060de:	d047      	beq.n	20006170 <_free_r+0x1a0>
200060e0:	f8d2 c00c 	ldr.w	ip, [r2, #12]
200060e4:	f8cc 4008 	str.w	r4, [ip, #8]
200060e8:	f8c4 c00c 	str.w	ip, [r4, #12]
200060ec:	e790      	b.n	20006010 <_free_r+0x40>
200060ee:	e8bd 81f0 	ldmia.w	sp!, {r4, r5, r6, r7, r8, pc}
200060f2:	08db      	lsrs	r3, r3, #3
200060f4:	f04f 0c01 	mov.w	ip, #1
200060f8:	6846      	ldr	r6, [r0, #4]
200060fa:	eb00 01c3 	add.w	r1, r0, r3, lsl #3
200060fe:	109b      	asrs	r3, r3, #2
20006100:	fa0c f303 	lsl.w	r3, ip, r3
20006104:	60d1      	str	r1, [r2, #12]
20006106:	688c      	ldr	r4, [r1, #8]
20006108:	ea46 0303 	orr.w	r3, r6, r3
2000610c:	6043      	str	r3, [r0, #4]
2000610e:	6094      	str	r4, [r2, #8]
20006110:	60e2      	str	r2, [r4, #12]
20006112:	608a      	str	r2, [r1, #8]
20006114:	e7d6      	b.n	200060c4 <_free_r+0xf4>
20006116:	688c      	ldr	r4, [r1, #8]
20006118:	4f1c      	ldr	r7, [pc, #112]	; (2000618c <_free_r+0x1bc>)
2000611a:	42bc      	cmp	r4, r7
2000611c:	d181      	bne.n	20006022 <_free_r+0x52>
2000611e:	50d3      	str	r3, [r2, r3]
20006120:	f043 0301 	orr.w	r3, r3, #1
20006124:	60e2      	str	r2, [r4, #12]
20006126:	60a2      	str	r2, [r4, #8]
20006128:	6053      	str	r3, [r2, #4]
2000612a:	6094      	str	r4, [r2, #8]
2000612c:	60d4      	str	r4, [r2, #12]
2000612e:	e7c9      	b.n	200060c4 <_free_r+0xf4>
20006130:	18fb      	adds	r3, r7, r3
20006132:	f016 0f01 	tst.w	r6, #1
20006136:	d107      	bne.n	20006148 <_free_r+0x178>
20006138:	f854 1c08 	ldr.w	r1, [r4, #-8]
2000613c:	1a52      	subs	r2, r2, r1
2000613e:	185b      	adds	r3, r3, r1
20006140:	68d4      	ldr	r4, [r2, #12]
20006142:	6891      	ldr	r1, [r2, #8]
20006144:	60a1      	str	r1, [r4, #8]
20006146:	60cc      	str	r4, [r1, #12]
20006148:	f649 51ec 	movw	r1, #40428	; 0x9dec
2000614c:	6082      	str	r2, [r0, #8]
2000614e:	f2c2 0100 	movt	r1, #8192	; 0x2000
20006152:	f043 0001 	orr.w	r0, r3, #1
20006156:	6050      	str	r0, [r2, #4]
20006158:	680a      	ldr	r2, [r1, #0]
2000615a:	4293      	cmp	r3, r2
2000615c:	d3b2      	bcc.n	200060c4 <_free_r+0xf4>
2000615e:	f649 6310 	movw	r3, #40464	; 0x9e10
20006162:	4628      	mov	r0, r5
20006164:	f2c2 0300 	movt	r3, #8192	; 0x2000
20006168:	6819      	ldr	r1, [r3, #0]
2000616a:	f7ff fedd 	bl	20005f28 <_malloc_trim_r>
2000616e:	e7a9      	b.n	200060c4 <_free_r+0xf4>
20006170:	2601      	movs	r6, #1
20006172:	e74d      	b.n	20006010 <_free_r+0x40>
20006174:	2601      	movs	r6, #1
20006176:	6844      	ldr	r4, [r0, #4]
20006178:	ea4f 0cac 	mov.w	ip, ip, asr #2
2000617c:	460b      	mov	r3, r1
2000617e:	fa06 fc0c 	lsl.w	ip, r6, ip
20006182:	ea44 040c 	orr.w	r4, r4, ip
20006186:	6044      	str	r4, [r0, #4]
20006188:	e798      	b.n	200060bc <_free_r+0xec>
2000618a:	bf00      	nop
2000618c:	200099e8 	.word	0x200099e8

20006190 <__sfvwrite_r>:
20006190:	e92d 4ff0 	stmdb	sp!, {r4, r5, r6, r7, r8, r9, sl, fp, lr}
20006194:	6893      	ldr	r3, [r2, #8]
20006196:	b085      	sub	sp, #20
20006198:	4690      	mov	r8, r2
2000619a:	460c      	mov	r4, r1
2000619c:	9003      	str	r0, [sp, #12]
2000619e:	2b00      	cmp	r3, #0
200061a0:	d064      	beq.n	2000626c <__sfvwrite_r+0xdc>
200061a2:	8988      	ldrh	r0, [r1, #12]
200061a4:	fa1f fa80 	uxth.w	sl, r0
200061a8:	f01a 0f08 	tst.w	sl, #8
200061ac:	f000 80a0 	beq.w	200062f0 <__sfvwrite_r+0x160>
200061b0:	690b      	ldr	r3, [r1, #16]
200061b2:	2b00      	cmp	r3, #0
200061b4:	f000 809c 	beq.w	200062f0 <__sfvwrite_r+0x160>
200061b8:	f01a 0b02 	ands.w	fp, sl, #2
200061bc:	f8d8 5000 	ldr.w	r5, [r8]
200061c0:	bf1c      	itt	ne
200061c2:	f04f 0a00 	movne.w	sl, #0
200061c6:	4657      	movne	r7, sl
200061c8:	d136      	bne.n	20006238 <__sfvwrite_r+0xa8>
200061ca:	f01a 0a01 	ands.w	sl, sl, #1
200061ce:	bf1d      	ittte	ne
200061d0:	46dc      	movne	ip, fp
200061d2:	46d9      	movne	r9, fp
200061d4:	465f      	movne	r7, fp
200061d6:	4656      	moveq	r6, sl
200061d8:	d152      	bne.n	20006280 <__sfvwrite_r+0xf0>
200061da:	b326      	cbz	r6, 20006226 <__sfvwrite_r+0x96>
200061dc:	b280      	uxth	r0, r0
200061de:	68a7      	ldr	r7, [r4, #8]
200061e0:	f410 7f00 	tst.w	r0, #512	; 0x200
200061e4:	f000 808f 	beq.w	20006306 <__sfvwrite_r+0x176>
200061e8:	42be      	cmp	r6, r7
200061ea:	46bb      	mov	fp, r7
200061ec:	f080 80a7 	bcs.w	2000633e <__sfvwrite_r+0x1ae>
200061f0:	6820      	ldr	r0, [r4, #0]
200061f2:	4637      	mov	r7, r6
200061f4:	46b3      	mov	fp, r6
200061f6:	465a      	mov	r2, fp
200061f8:	4651      	mov	r1, sl
200061fa:	f000 fe3f 	bl	20006e7c <memmove>
200061fe:	68a2      	ldr	r2, [r4, #8]
20006200:	6823      	ldr	r3, [r4, #0]
20006202:	46b1      	mov	r9, r6
20006204:	1bd7      	subs	r7, r2, r7
20006206:	60a7      	str	r7, [r4, #8]
20006208:	4637      	mov	r7, r6
2000620a:	445b      	add	r3, fp
2000620c:	6023      	str	r3, [r4, #0]
2000620e:	f8d8 3008 	ldr.w	r3, [r8, #8]
20006212:	ebc9 0606 	rsb	r6, r9, r6
20006216:	44ca      	add	sl, r9
20006218:	1bdf      	subs	r7, r3, r7
2000621a:	f8c8 7008 	str.w	r7, [r8, #8]
2000621e:	b32f      	cbz	r7, 2000626c <__sfvwrite_r+0xdc>
20006220:	89a0      	ldrh	r0, [r4, #12]
20006222:	2e00      	cmp	r6, #0
20006224:	d1da      	bne.n	200061dc <__sfvwrite_r+0x4c>
20006226:	f8d5 a000 	ldr.w	sl, [r5]
2000622a:	686e      	ldr	r6, [r5, #4]
2000622c:	3508      	adds	r5, #8
2000622e:	e7d4      	b.n	200061da <__sfvwrite_r+0x4a>
20006230:	f8d5 a000 	ldr.w	sl, [r5]
20006234:	686f      	ldr	r7, [r5, #4]
20006236:	3508      	adds	r5, #8
20006238:	f5b7 6f80 	cmp.w	r7, #1024	; 0x400
2000623c:	bf34      	ite	cc
2000623e:	463b      	movcc	r3, r7
20006240:	f44f 6380 	movcs.w	r3, #1024	; 0x400
20006244:	4652      	mov	r2, sl
20006246:	9803      	ldr	r0, [sp, #12]
20006248:	2f00      	cmp	r7, #0
2000624a:	d0f1      	beq.n	20006230 <__sfvwrite_r+0xa0>
2000624c:	6aa6      	ldr	r6, [r4, #40]	; 0x28
2000624e:	6a21      	ldr	r1, [r4, #32]
20006250:	47b0      	blx	r6
20006252:	2800      	cmp	r0, #0
20006254:	4482      	add	sl, r0
20006256:	ebc0 0707 	rsb	r7, r0, r7
2000625a:	f340 80ec 	ble.w	20006436 <__sfvwrite_r+0x2a6>
2000625e:	f8d8 3008 	ldr.w	r3, [r8, #8]
20006262:	1a18      	subs	r0, r3, r0
20006264:	f8c8 0008 	str.w	r0, [r8, #8]
20006268:	2800      	cmp	r0, #0
2000626a:	d1e5      	bne.n	20006238 <__sfvwrite_r+0xa8>
2000626c:	2000      	movs	r0, #0
2000626e:	b005      	add	sp, #20
20006270:	e8bd 8ff0 	ldmia.w	sp!, {r4, r5, r6, r7, r8, r9, sl, fp, pc}
20006274:	f8d5 9000 	ldr.w	r9, [r5]
20006278:	f04f 0c00 	mov.w	ip, #0
2000627c:	686f      	ldr	r7, [r5, #4]
2000627e:	3508      	adds	r5, #8
20006280:	2f00      	cmp	r7, #0
20006282:	d0f7      	beq.n	20006274 <__sfvwrite_r+0xe4>
20006284:	f1bc 0f00 	cmp.w	ip, #0
20006288:	f000 80b5 	beq.w	200063f6 <__sfvwrite_r+0x266>
2000628c:	6963      	ldr	r3, [r4, #20]
2000628e:	45bb      	cmp	fp, r7
20006290:	bf34      	ite	cc
20006292:	46da      	movcc	sl, fp
20006294:	46ba      	movcs	sl, r7
20006296:	68a6      	ldr	r6, [r4, #8]
20006298:	6820      	ldr	r0, [r4, #0]
2000629a:	6922      	ldr	r2, [r4, #16]
2000629c:	199e      	adds	r6, r3, r6
2000629e:	4290      	cmp	r0, r2
200062a0:	bf94      	ite	ls
200062a2:	2200      	movls	r2, #0
200062a4:	2201      	movhi	r2, #1
200062a6:	45b2      	cmp	sl, r6
200062a8:	bfd4      	ite	le
200062aa:	2200      	movle	r2, #0
200062ac:	f002 0201 	andgt.w	r2, r2, #1
200062b0:	2a00      	cmp	r2, #0
200062b2:	f040 80ae 	bne.w	20006412 <__sfvwrite_r+0x282>
200062b6:	459a      	cmp	sl, r3
200062b8:	f2c0 8082 	blt.w	200063c0 <__sfvwrite_r+0x230>
200062bc:	6aa6      	ldr	r6, [r4, #40]	; 0x28
200062be:	464a      	mov	r2, r9
200062c0:	f8cd c004 	str.w	ip, [sp, #4]
200062c4:	9803      	ldr	r0, [sp, #12]
200062c6:	6a21      	ldr	r1, [r4, #32]
200062c8:	47b0      	blx	r6
200062ca:	f8dd c004 	ldr.w	ip, [sp, #4]
200062ce:	1e06      	subs	r6, r0, #0
200062d0:	f340 80b1 	ble.w	20006436 <__sfvwrite_r+0x2a6>
200062d4:	ebbb 0b06 	subs.w	fp, fp, r6
200062d8:	f000 8086 	beq.w	200063e8 <__sfvwrite_r+0x258>
200062dc:	f8d8 3008 	ldr.w	r3, [r8, #8]
200062e0:	44b1      	add	r9, r6
200062e2:	1bbf      	subs	r7, r7, r6
200062e4:	1b9e      	subs	r6, r3, r6
200062e6:	f8c8 6008 	str.w	r6, [r8, #8]
200062ea:	2e00      	cmp	r6, #0
200062ec:	d1c8      	bne.n	20006280 <__sfvwrite_r+0xf0>
200062ee:	e7bd      	b.n	2000626c <__sfvwrite_r+0xdc>
200062f0:	9803      	ldr	r0, [sp, #12]
200062f2:	4621      	mov	r1, r4
200062f4:	f7fe fc1a 	bl	20004b2c <__swsetup_r>
200062f8:	2800      	cmp	r0, #0
200062fa:	f040 80d4 	bne.w	200064a6 <__sfvwrite_r+0x316>
200062fe:	89a0      	ldrh	r0, [r4, #12]
20006300:	fa1f fa80 	uxth.w	sl, r0
20006304:	e758      	b.n	200061b8 <__sfvwrite_r+0x28>
20006306:	6820      	ldr	r0, [r4, #0]
20006308:	46b9      	mov	r9, r7
2000630a:	6923      	ldr	r3, [r4, #16]
2000630c:	4298      	cmp	r0, r3
2000630e:	bf94      	ite	ls
20006310:	2300      	movls	r3, #0
20006312:	2301      	movhi	r3, #1
20006314:	42b7      	cmp	r7, r6
20006316:	bf2c      	ite	cs
20006318:	2300      	movcs	r3, #0
2000631a:	f003 0301 	andcc.w	r3, r3, #1
2000631e:	2b00      	cmp	r3, #0
20006320:	f040 809d 	bne.w	2000645e <__sfvwrite_r+0x2ce>
20006324:	6963      	ldr	r3, [r4, #20]
20006326:	429e      	cmp	r6, r3
20006328:	f0c0 808c 	bcc.w	20006444 <__sfvwrite_r+0x2b4>
2000632c:	6aa7      	ldr	r7, [r4, #40]	; 0x28
2000632e:	4652      	mov	r2, sl
20006330:	9803      	ldr	r0, [sp, #12]
20006332:	6a21      	ldr	r1, [r4, #32]
20006334:	47b8      	blx	r7
20006336:	1e07      	subs	r7, r0, #0
20006338:	dd7d      	ble.n	20006436 <__sfvwrite_r+0x2a6>
2000633a:	46b9      	mov	r9, r7
2000633c:	e767      	b.n	2000620e <__sfvwrite_r+0x7e>
2000633e:	f410 6f90 	tst.w	r0, #1152	; 0x480
20006342:	bf08      	it	eq
20006344:	6820      	ldreq	r0, [r4, #0]
20006346:	f43f af56 	beq.w	200061f6 <__sfvwrite_r+0x66>
2000634a:	6962      	ldr	r2, [r4, #20]
2000634c:	6921      	ldr	r1, [r4, #16]
2000634e:	6823      	ldr	r3, [r4, #0]
20006350:	eb02 0942 	add.w	r9, r2, r2, lsl #1
20006354:	1a5b      	subs	r3, r3, r1
20006356:	eb09 79d9 	add.w	r9, r9, r9, lsr #31
2000635a:	f103 0c01 	add.w	ip, r3, #1
2000635e:	44b4      	add	ip, r6
20006360:	ea4f 0969 	mov.w	r9, r9, asr #1
20006364:	45e1      	cmp	r9, ip
20006366:	464a      	mov	r2, r9
20006368:	bf3c      	itt	cc
2000636a:	46e1      	movcc	r9, ip
2000636c:	464a      	movcc	r2, r9
2000636e:	f410 6f80 	tst.w	r0, #1024	; 0x400
20006372:	f000 8083 	beq.w	2000647c <__sfvwrite_r+0x2ec>
20006376:	4611      	mov	r1, r2
20006378:	9803      	ldr	r0, [sp, #12]
2000637a:	9302      	str	r3, [sp, #8]
2000637c:	f000 f9aa 	bl	200066d4 <_malloc_r>
20006380:	9b02      	ldr	r3, [sp, #8]
20006382:	2800      	cmp	r0, #0
20006384:	f000 8099 	beq.w	200064ba <__sfvwrite_r+0x32a>
20006388:	461a      	mov	r2, r3
2000638a:	6921      	ldr	r1, [r4, #16]
2000638c:	9302      	str	r3, [sp, #8]
2000638e:	9001      	str	r0, [sp, #4]
20006390:	f000 fcac 	bl	20006cec <memcpy>
20006394:	89a2      	ldrh	r2, [r4, #12]
20006396:	9b02      	ldr	r3, [sp, #8]
20006398:	f8dd c004 	ldr.w	ip, [sp, #4]
2000639c:	f422 6290 	bic.w	r2, r2, #1152	; 0x480
200063a0:	f042 0280 	orr.w	r2, r2, #128	; 0x80
200063a4:	81a2      	strh	r2, [r4, #12]
200063a6:	ebc3 0209 	rsb	r2, r3, r9
200063aa:	eb0c 0003 	add.w	r0, ip, r3
200063ae:	4637      	mov	r7, r6
200063b0:	46b3      	mov	fp, r6
200063b2:	60a2      	str	r2, [r4, #8]
200063b4:	f8c4 c010 	str.w	ip, [r4, #16]
200063b8:	6020      	str	r0, [r4, #0]
200063ba:	f8c4 9014 	str.w	r9, [r4, #20]
200063be:	e71a      	b.n	200061f6 <__sfvwrite_r+0x66>
200063c0:	4652      	mov	r2, sl
200063c2:	4649      	mov	r1, r9
200063c4:	4656      	mov	r6, sl
200063c6:	f8cd c004 	str.w	ip, [sp, #4]
200063ca:	f000 fd57 	bl	20006e7c <memmove>
200063ce:	68a2      	ldr	r2, [r4, #8]
200063d0:	6823      	ldr	r3, [r4, #0]
200063d2:	ebbb 0b06 	subs.w	fp, fp, r6
200063d6:	ebca 0202 	rsb	r2, sl, r2
200063da:	f8dd c004 	ldr.w	ip, [sp, #4]
200063de:	4453      	add	r3, sl
200063e0:	60a2      	str	r2, [r4, #8]
200063e2:	6023      	str	r3, [r4, #0]
200063e4:	f47f af7a 	bne.w	200062dc <__sfvwrite_r+0x14c>
200063e8:	9803      	ldr	r0, [sp, #12]
200063ea:	4621      	mov	r1, r4
200063ec:	f7ff fbfc 	bl	20005be8 <_fflush_r>
200063f0:	bb08      	cbnz	r0, 20006436 <__sfvwrite_r+0x2a6>
200063f2:	46dc      	mov	ip, fp
200063f4:	e772      	b.n	200062dc <__sfvwrite_r+0x14c>
200063f6:	4648      	mov	r0, r9
200063f8:	210a      	movs	r1, #10
200063fa:	463a      	mov	r2, r7
200063fc:	f000 fc3c 	bl	20006c78 <memchr>
20006400:	2800      	cmp	r0, #0
20006402:	d04b      	beq.n	2000649c <__sfvwrite_r+0x30c>
20006404:	f100 0b01 	add.w	fp, r0, #1
20006408:	f04f 0c01 	mov.w	ip, #1
2000640c:	ebc9 0b0b 	rsb	fp, r9, fp
20006410:	e73c      	b.n	2000628c <__sfvwrite_r+0xfc>
20006412:	4649      	mov	r1, r9
20006414:	4632      	mov	r2, r6
20006416:	f8cd c004 	str.w	ip, [sp, #4]
2000641a:	f000 fd2f 	bl	20006e7c <memmove>
2000641e:	6823      	ldr	r3, [r4, #0]
20006420:	4621      	mov	r1, r4
20006422:	9803      	ldr	r0, [sp, #12]
20006424:	199b      	adds	r3, r3, r6
20006426:	6023      	str	r3, [r4, #0]
20006428:	f7ff fbde 	bl	20005be8 <_fflush_r>
2000642c:	f8dd c004 	ldr.w	ip, [sp, #4]
20006430:	2800      	cmp	r0, #0
20006432:	f43f af4f 	beq.w	200062d4 <__sfvwrite_r+0x144>
20006436:	89a3      	ldrh	r3, [r4, #12]
20006438:	f04f 30ff 	mov.w	r0, #4294967295
2000643c:	f043 0340 	orr.w	r3, r3, #64	; 0x40
20006440:	81a3      	strh	r3, [r4, #12]
20006442:	e714      	b.n	2000626e <__sfvwrite_r+0xde>
20006444:	4632      	mov	r2, r6
20006446:	4651      	mov	r1, sl
20006448:	f000 fd18 	bl	20006e7c <memmove>
2000644c:	68a2      	ldr	r2, [r4, #8]
2000644e:	6823      	ldr	r3, [r4, #0]
20006450:	4637      	mov	r7, r6
20006452:	1b92      	subs	r2, r2, r6
20006454:	46b1      	mov	r9, r6
20006456:	199b      	adds	r3, r3, r6
20006458:	60a2      	str	r2, [r4, #8]
2000645a:	6023      	str	r3, [r4, #0]
2000645c:	e6d7      	b.n	2000620e <__sfvwrite_r+0x7e>
2000645e:	4651      	mov	r1, sl
20006460:	463a      	mov	r2, r7
20006462:	f000 fd0b 	bl	20006e7c <memmove>
20006466:	6823      	ldr	r3, [r4, #0]
20006468:	9803      	ldr	r0, [sp, #12]
2000646a:	4621      	mov	r1, r4
2000646c:	19db      	adds	r3, r3, r7
2000646e:	6023      	str	r3, [r4, #0]
20006470:	f7ff fbba 	bl	20005be8 <_fflush_r>
20006474:	2800      	cmp	r0, #0
20006476:	f43f aeca 	beq.w	2000620e <__sfvwrite_r+0x7e>
2000647a:	e7dc      	b.n	20006436 <__sfvwrite_r+0x2a6>
2000647c:	9803      	ldr	r0, [sp, #12]
2000647e:	9302      	str	r3, [sp, #8]
20006480:	f001 fa08 	bl	20007894 <_realloc_r>
20006484:	9b02      	ldr	r3, [sp, #8]
20006486:	4684      	mov	ip, r0
20006488:	2800      	cmp	r0, #0
2000648a:	d18c      	bne.n	200063a6 <__sfvwrite_r+0x216>
2000648c:	6921      	ldr	r1, [r4, #16]
2000648e:	9803      	ldr	r0, [sp, #12]
20006490:	f7ff fd9e 	bl	20005fd0 <_free_r>
20006494:	9903      	ldr	r1, [sp, #12]
20006496:	230c      	movs	r3, #12
20006498:	600b      	str	r3, [r1, #0]
2000649a:	e7cc      	b.n	20006436 <__sfvwrite_r+0x2a6>
2000649c:	f107 0b01 	add.w	fp, r7, #1
200064a0:	f04f 0c01 	mov.w	ip, #1
200064a4:	e6f2      	b.n	2000628c <__sfvwrite_r+0xfc>
200064a6:	9903      	ldr	r1, [sp, #12]
200064a8:	2209      	movs	r2, #9
200064aa:	89a3      	ldrh	r3, [r4, #12]
200064ac:	f04f 30ff 	mov.w	r0, #4294967295
200064b0:	f043 0340 	orr.w	r3, r3, #64	; 0x40
200064b4:	600a      	str	r2, [r1, #0]
200064b6:	81a3      	strh	r3, [r4, #12]
200064b8:	e6d9      	b.n	2000626e <__sfvwrite_r+0xde>
200064ba:	9a03      	ldr	r2, [sp, #12]
200064bc:	230c      	movs	r3, #12
200064be:	6013      	str	r3, [r2, #0]
200064c0:	e7b9      	b.n	20006436 <__sfvwrite_r+0x2a6>
200064c2:	bf00      	nop

200064c4 <_fwalk_reent>:
200064c4:	e92d 45f8 	stmdb	sp!, {r3, r4, r5, r6, r7, r8, sl, lr}
200064c8:	4607      	mov	r7, r0
200064ca:	468a      	mov	sl, r1
200064cc:	f7ff fc48 	bl	20005d60 <__sfp_lock_acquire>
200064d0:	f117 06d8 	adds.w	r6, r7, #216	; 0xd8
200064d4:	bf08      	it	eq
200064d6:	46b0      	moveq	r8, r6
200064d8:	d018      	beq.n	2000650c <_fwalk_reent+0x48>
200064da:	f04f 0800 	mov.w	r8, #0
200064de:	6875      	ldr	r5, [r6, #4]
200064e0:	68b4      	ldr	r4, [r6, #8]
200064e2:	3d01      	subs	r5, #1
200064e4:	d40f      	bmi.n	20006506 <_fwalk_reent+0x42>
200064e6:	f9b4 300c 	ldrsh.w	r3, [r4, #12]
200064ea:	b14b      	cbz	r3, 20006500 <_fwalk_reent+0x3c>
200064ec:	f9b4 300e 	ldrsh.w	r3, [r4, #14]
200064f0:	4621      	mov	r1, r4
200064f2:	4638      	mov	r0, r7
200064f4:	f1b3 3fff 	cmp.w	r3, #4294967295
200064f8:	d002      	beq.n	20006500 <_fwalk_reent+0x3c>
200064fa:	47d0      	blx	sl
200064fc:	ea48 0800 	orr.w	r8, r8, r0
20006500:	3468      	adds	r4, #104	; 0x68
20006502:	3d01      	subs	r5, #1
20006504:	d5ef      	bpl.n	200064e6 <_fwalk_reent+0x22>
20006506:	6836      	ldr	r6, [r6, #0]
20006508:	2e00      	cmp	r6, #0
2000650a:	d1e8      	bne.n	200064de <_fwalk_reent+0x1a>
2000650c:	f7ff fc2a 	bl	20005d64 <__sfp_lock_release>
20006510:	4640      	mov	r0, r8
20006512:	e8bd 85f8 	ldmia.w	sp!, {r3, r4, r5, r6, r7, r8, sl, pc}
20006516:	bf00      	nop

20006518 <_fwalk>:
20006518:	e92d 41f0 	stmdb	sp!, {r4, r5, r6, r7, r8, lr}
2000651c:	4606      	mov	r6, r0
2000651e:	4688      	mov	r8, r1
20006520:	f7ff fc1e 	bl	20005d60 <__sfp_lock_acquire>
20006524:	36d8      	adds	r6, #216	; 0xd8
20006526:	bf08      	it	eq
20006528:	4637      	moveq	r7, r6
2000652a:	d015      	beq.n	20006558 <_fwalk+0x40>
2000652c:	2700      	movs	r7, #0
2000652e:	6875      	ldr	r5, [r6, #4]
20006530:	68b4      	ldr	r4, [r6, #8]
20006532:	3d01      	subs	r5, #1
20006534:	d40d      	bmi.n	20006552 <_fwalk+0x3a>
20006536:	f9b4 300c 	ldrsh.w	r3, [r4, #12]
2000653a:	b13b      	cbz	r3, 2000654c <_fwalk+0x34>
2000653c:	f9b4 300e 	ldrsh.w	r3, [r4, #14]
20006540:	4620      	mov	r0, r4
20006542:	f1b3 3fff 	cmp.w	r3, #4294967295
20006546:	d001      	beq.n	2000654c <_fwalk+0x34>
20006548:	47c0      	blx	r8
2000654a:	4307      	orrs	r7, r0
2000654c:	3468      	adds	r4, #104	; 0x68
2000654e:	3d01      	subs	r5, #1
20006550:	d5f1      	bpl.n	20006536 <_fwalk+0x1e>
20006552:	6836      	ldr	r6, [r6, #0]
20006554:	2e00      	cmp	r6, #0
20006556:	d1ea      	bne.n	2000652e <_fwalk+0x16>
20006558:	f7ff fc04 	bl	20005d64 <__sfp_lock_release>
2000655c:	4638      	mov	r0, r7
2000655e:	e8bd 81f0 	ldmia.w	sp!, {r4, r5, r6, r7, r8, pc}
20006562:	bf00      	nop

20006564 <__locale_charset>:
20006564:	f249 63e0 	movw	r3, #38624	; 0x96e0
20006568:	f2c2 0300 	movt	r3, #8192	; 0x2000
2000656c:	6818      	ldr	r0, [r3, #0]
2000656e:	4770      	bx	lr

20006570 <_localeconv_r>:
20006570:	4800      	ldr	r0, [pc, #0]	; (20006574 <_localeconv_r+0x4>)
20006572:	4770      	bx	lr
20006574:	200096e4 	.word	0x200096e4

20006578 <localeconv>:
20006578:	4800      	ldr	r0, [pc, #0]	; (2000657c <localeconv+0x4>)
2000657a:	4770      	bx	lr
2000657c:	200096e4 	.word	0x200096e4

20006580 <_setlocale_r>:
20006580:	b570      	push	{r4, r5, r6, lr}
20006582:	4605      	mov	r5, r0
20006584:	460e      	mov	r6, r1
20006586:	4614      	mov	r4, r2
20006588:	b172      	cbz	r2, 200065a8 <_setlocale_r+0x28>
2000658a:	f249 6108 	movw	r1, #38408	; 0x9608
2000658e:	4610      	mov	r0, r2
20006590:	f2c2 0100 	movt	r1, #8192	; 0x2000
20006594:	f001 fbd4 	bl	20007d40 <strcmp>
20006598:	b958      	cbnz	r0, 200065b2 <_setlocale_r+0x32>
2000659a:	f249 6008 	movw	r0, #38408	; 0x9608
2000659e:	622c      	str	r4, [r5, #32]
200065a0:	f2c2 0000 	movt	r0, #8192	; 0x2000
200065a4:	61ee      	str	r6, [r5, #28]
200065a6:	bd70      	pop	{r4, r5, r6, pc}
200065a8:	f249 6008 	movw	r0, #38408	; 0x9608
200065ac:	f2c2 0000 	movt	r0, #8192	; 0x2000
200065b0:	bd70      	pop	{r4, r5, r6, pc}
200065b2:	f249 4118 	movw	r1, #37912	; 0x9418
200065b6:	4620      	mov	r0, r4
200065b8:	f2c2 0100 	movt	r1, #8192	; 0x2000
200065bc:	f001 fbc0 	bl	20007d40 <strcmp>
200065c0:	2800      	cmp	r0, #0
200065c2:	d0ea      	beq.n	2000659a <_setlocale_r+0x1a>
200065c4:	2000      	movs	r0, #0
200065c6:	bd70      	pop	{r4, r5, r6, pc}

200065c8 <setlocale>:
200065c8:	f649 03ec 	movw	r3, #39148	; 0x98ec
200065cc:	460a      	mov	r2, r1
200065ce:	f2c2 0300 	movt	r3, #8192	; 0x2000
200065d2:	4601      	mov	r1, r0
200065d4:	6818      	ldr	r0, [r3, #0]
200065d6:	e7d3      	b.n	20006580 <_setlocale_r>

200065d8 <__smakebuf_r>:
200065d8:	898b      	ldrh	r3, [r1, #12]
200065da:	b5f0      	push	{r4, r5, r6, r7, lr}
200065dc:	460c      	mov	r4, r1
200065de:	b29a      	uxth	r2, r3
200065e0:	b091      	sub	sp, #68	; 0x44
200065e2:	f012 0f02 	tst.w	r2, #2
200065e6:	4605      	mov	r5, r0
200065e8:	d141      	bne.n	2000666e <__smakebuf_r+0x96>
200065ea:	f9b1 100e 	ldrsh.w	r1, [r1, #14]
200065ee:	2900      	cmp	r1, #0
200065f0:	db18      	blt.n	20006624 <__smakebuf_r+0x4c>
200065f2:	aa01      	add	r2, sp, #4
200065f4:	f001 fd6a 	bl	200080cc <_fstat_r>
200065f8:	2800      	cmp	r0, #0
200065fa:	db11      	blt.n	20006620 <__smakebuf_r+0x48>
200065fc:	9b02      	ldr	r3, [sp, #8]
200065fe:	f403 4370 	and.w	r3, r3, #61440	; 0xf000
20006602:	f5b3 5f00 	cmp.w	r3, #8192	; 0x2000
20006606:	bf14      	ite	ne
20006608:	2700      	movne	r7, #0
2000660a:	2701      	moveq	r7, #1
2000660c:	f5b3 4f00 	cmp.w	r3, #32768	; 0x8000
20006610:	d040      	beq.n	20006694 <__smakebuf_r+0xbc>
20006612:	89a3      	ldrh	r3, [r4, #12]
20006614:	f44f 6680 	mov.w	r6, #1024	; 0x400
20006618:	f443 6300 	orr.w	r3, r3, #2048	; 0x800
2000661c:	81a3      	strh	r3, [r4, #12]
2000661e:	e00b      	b.n	20006638 <__smakebuf_r+0x60>
20006620:	89a3      	ldrh	r3, [r4, #12]
20006622:	b29a      	uxth	r2, r3
20006624:	f012 0f80 	tst.w	r2, #128	; 0x80
20006628:	f443 6300 	orr.w	r3, r3, #2048	; 0x800
2000662c:	bf0c      	ite	eq
2000662e:	f44f 6680 	moveq.w	r6, #1024	; 0x400
20006632:	2640      	movne	r6, #64	; 0x40
20006634:	2700      	movs	r7, #0
20006636:	81a3      	strh	r3, [r4, #12]
20006638:	4628      	mov	r0, r5
2000663a:	4631      	mov	r1, r6
2000663c:	f000 f84a 	bl	200066d4 <_malloc_r>
20006640:	b170      	cbz	r0, 20006660 <__smakebuf_r+0x88>
20006642:	89a1      	ldrh	r1, [r4, #12]
20006644:	f645 52a9 	movw	r2, #23977	; 0x5da9
20006648:	f2c2 0200 	movt	r2, #8192	; 0x2000
2000664c:	6120      	str	r0, [r4, #16]
2000664e:	f041 0180 	orr.w	r1, r1, #128	; 0x80
20006652:	6166      	str	r6, [r4, #20]
20006654:	62aa      	str	r2, [r5, #40]	; 0x28
20006656:	81a1      	strh	r1, [r4, #12]
20006658:	6020      	str	r0, [r4, #0]
2000665a:	b97f      	cbnz	r7, 2000667c <__smakebuf_r+0xa4>
2000665c:	b011      	add	sp, #68	; 0x44
2000665e:	bdf0      	pop	{r4, r5, r6, r7, pc}
20006660:	89a3      	ldrh	r3, [r4, #12]
20006662:	f413 7f00 	tst.w	r3, #512	; 0x200
20006666:	d1f9      	bne.n	2000665c <__smakebuf_r+0x84>
20006668:	f043 0302 	orr.w	r3, r3, #2
2000666c:	81a3      	strh	r3, [r4, #12]
2000666e:	f104 0347 	add.w	r3, r4, #71	; 0x47
20006672:	6123      	str	r3, [r4, #16]
20006674:	6023      	str	r3, [r4, #0]
20006676:	2301      	movs	r3, #1
20006678:	6163      	str	r3, [r4, #20]
2000667a:	e7ef      	b.n	2000665c <__smakebuf_r+0x84>
2000667c:	4628      	mov	r0, r5
2000667e:	f9b4 100e 	ldrsh.w	r1, [r4, #14]
20006682:	f001 fd39 	bl	200080f8 <_isatty_r>
20006686:	2800      	cmp	r0, #0
20006688:	d0e8      	beq.n	2000665c <__smakebuf_r+0x84>
2000668a:	89a3      	ldrh	r3, [r4, #12]
2000668c:	f043 0301 	orr.w	r3, r3, #1
20006690:	81a3      	strh	r3, [r4, #12]
20006692:	e7e3      	b.n	2000665c <__smakebuf_r+0x84>
20006694:	f647 43b9 	movw	r3, #31929	; 0x7cb9
20006698:	6ae2      	ldr	r2, [r4, #44]	; 0x2c
2000669a:	f2c2 0300 	movt	r3, #8192	; 0x2000
2000669e:	429a      	cmp	r2, r3
200066a0:	d1b7      	bne.n	20006612 <__smakebuf_r+0x3a>
200066a2:	89a2      	ldrh	r2, [r4, #12]
200066a4:	f44f 6380 	mov.w	r3, #1024	; 0x400
200066a8:	461e      	mov	r6, r3
200066aa:	6523      	str	r3, [r4, #80]	; 0x50
200066ac:	ea42 0303 	orr.w	r3, r2, r3
200066b0:	81a3      	strh	r3, [r4, #12]
200066b2:	e7c1      	b.n	20006638 <__smakebuf_r+0x60>

200066b4 <free>:
200066b4:	f649 03ec 	movw	r3, #39148	; 0x98ec
200066b8:	4601      	mov	r1, r0
200066ba:	f2c2 0300 	movt	r3, #8192	; 0x2000
200066be:	6818      	ldr	r0, [r3, #0]
200066c0:	f7ff bc86 	b.w	20005fd0 <_free_r>

200066c4 <malloc>:
200066c4:	f649 03ec 	movw	r3, #39148	; 0x98ec
200066c8:	4601      	mov	r1, r0
200066ca:	f2c2 0300 	movt	r3, #8192	; 0x2000
200066ce:	6818      	ldr	r0, [r3, #0]
200066d0:	f000 b800 	b.w	200066d4 <_malloc_r>

200066d4 <_malloc_r>:
200066d4:	e92d 4ff0 	stmdb	sp!, {r4, r5, r6, r7, r8, r9, sl, fp, lr}
200066d8:	f101 040b 	add.w	r4, r1, #11
200066dc:	2c16      	cmp	r4, #22
200066de:	b083      	sub	sp, #12
200066e0:	4606      	mov	r6, r0
200066e2:	d82f      	bhi.n	20006744 <_malloc_r+0x70>
200066e4:	2300      	movs	r3, #0
200066e6:	2410      	movs	r4, #16
200066e8:	428c      	cmp	r4, r1
200066ea:	bf2c      	ite	cs
200066ec:	4619      	movcs	r1, r3
200066ee:	f043 0101 	orrcc.w	r1, r3, #1
200066f2:	2900      	cmp	r1, #0
200066f4:	d130      	bne.n	20006758 <_malloc_r+0x84>
200066f6:	4630      	mov	r0, r6
200066f8:	f000 fc1c 	bl	20006f34 <__malloc_lock>
200066fc:	f5b4 7ffc 	cmp.w	r4, #504	; 0x1f8
20006700:	d22e      	bcs.n	20006760 <_malloc_r+0x8c>
20006702:	ea4f 0ed4 	mov.w	lr, r4, lsr #3
20006706:	f649 15e0 	movw	r5, #39392	; 0x99e0
2000670a:	f2c2 0500 	movt	r5, #8192	; 0x2000
2000670e:	eb05 02ce 	add.w	r2, r5, lr, lsl #3
20006712:	68d3      	ldr	r3, [r2, #12]
20006714:	4293      	cmp	r3, r2
20006716:	f000 8206 	beq.w	20006b26 <_malloc_r+0x452>
2000671a:	685a      	ldr	r2, [r3, #4]
2000671c:	f103 0508 	add.w	r5, r3, #8
20006720:	68d9      	ldr	r1, [r3, #12]
20006722:	4630      	mov	r0, r6
20006724:	f022 0c03 	bic.w	ip, r2, #3
20006728:	689a      	ldr	r2, [r3, #8]
2000672a:	4463      	add	r3, ip
2000672c:	685c      	ldr	r4, [r3, #4]
2000672e:	608a      	str	r2, [r1, #8]
20006730:	f044 0401 	orr.w	r4, r4, #1
20006734:	60d1      	str	r1, [r2, #12]
20006736:	605c      	str	r4, [r3, #4]
20006738:	f000 fbfe 	bl	20006f38 <__malloc_unlock>
2000673c:	4628      	mov	r0, r5
2000673e:	b003      	add	sp, #12
20006740:	e8bd 8ff0 	ldmia.w	sp!, {r4, r5, r6, r7, r8, r9, sl, fp, pc}
20006744:	f024 0407 	bic.w	r4, r4, #7
20006748:	0fe3      	lsrs	r3, r4, #31
2000674a:	428c      	cmp	r4, r1
2000674c:	bf2c      	ite	cs
2000674e:	4619      	movcs	r1, r3
20006750:	f043 0101 	orrcc.w	r1, r3, #1
20006754:	2900      	cmp	r1, #0
20006756:	d0ce      	beq.n	200066f6 <_malloc_r+0x22>
20006758:	230c      	movs	r3, #12
2000675a:	2500      	movs	r5, #0
2000675c:	6033      	str	r3, [r6, #0]
2000675e:	e7ed      	b.n	2000673c <_malloc_r+0x68>
20006760:	ea5f 2e54 	movs.w	lr, r4, lsr #9
20006764:	bf04      	itt	eq
20006766:	ea4f 0ed4 	moveq.w	lr, r4, lsr #3
2000676a:	ea4f 00ce 	moveq.w	r0, lr, lsl #3
2000676e:	f040 8090 	bne.w	20006892 <_malloc_r+0x1be>
20006772:	f649 15e0 	movw	r5, #39392	; 0x99e0
20006776:	f2c2 0500 	movt	r5, #8192	; 0x2000
2000677a:	1828      	adds	r0, r5, r0
2000677c:	68c3      	ldr	r3, [r0, #12]
2000677e:	4298      	cmp	r0, r3
20006780:	d106      	bne.n	20006790 <_malloc_r+0xbc>
20006782:	e00d      	b.n	200067a0 <_malloc_r+0xcc>
20006784:	2a00      	cmp	r2, #0
20006786:	f280 816f 	bge.w	20006a68 <_malloc_r+0x394>
2000678a:	68db      	ldr	r3, [r3, #12]
2000678c:	4298      	cmp	r0, r3
2000678e:	d007      	beq.n	200067a0 <_malloc_r+0xcc>
20006790:	6859      	ldr	r1, [r3, #4]
20006792:	f021 0103 	bic.w	r1, r1, #3
20006796:	1b0a      	subs	r2, r1, r4
20006798:	2a0f      	cmp	r2, #15
2000679a:	ddf3      	ble.n	20006784 <_malloc_r+0xb0>
2000679c:	f10e 3eff 	add.w	lr, lr, #4294967295
200067a0:	f10e 0e01 	add.w	lr, lr, #1
200067a4:	f649 17e0 	movw	r7, #39392	; 0x99e0
200067a8:	f2c2 0700 	movt	r7, #8192	; 0x2000
200067ac:	f107 0108 	add.w	r1, r7, #8
200067b0:	688b      	ldr	r3, [r1, #8]
200067b2:	4299      	cmp	r1, r3
200067b4:	bf08      	it	eq
200067b6:	687a      	ldreq	r2, [r7, #4]
200067b8:	d026      	beq.n	20006808 <_malloc_r+0x134>
200067ba:	685a      	ldr	r2, [r3, #4]
200067bc:	f022 0c03 	bic.w	ip, r2, #3
200067c0:	ebc4 020c 	rsb	r2, r4, ip
200067c4:	2a0f      	cmp	r2, #15
200067c6:	f300 8194 	bgt.w	20006af2 <_malloc_r+0x41e>
200067ca:	2a00      	cmp	r2, #0
200067cc:	60c9      	str	r1, [r1, #12]
200067ce:	6089      	str	r1, [r1, #8]
200067d0:	f280 8099 	bge.w	20006906 <_malloc_r+0x232>
200067d4:	f5bc 7f00 	cmp.w	ip, #512	; 0x200
200067d8:	f080 8165 	bcs.w	20006aa6 <_malloc_r+0x3d2>
200067dc:	ea4f 0cdc 	mov.w	ip, ip, lsr #3
200067e0:	f04f 0a01 	mov.w	sl, #1
200067e4:	687a      	ldr	r2, [r7, #4]
200067e6:	eb07 00cc 	add.w	r0, r7, ip, lsl #3
200067ea:	ea4f 0cac 	mov.w	ip, ip, asr #2
200067ee:	fa0a fc0c 	lsl.w	ip, sl, ip
200067f2:	60d8      	str	r0, [r3, #12]
200067f4:	f8d0 8008 	ldr.w	r8, [r0, #8]
200067f8:	ea4c 0202 	orr.w	r2, ip, r2
200067fc:	607a      	str	r2, [r7, #4]
200067fe:	f8c3 8008 	str.w	r8, [r3, #8]
20006802:	f8c8 300c 	str.w	r3, [r8, #12]
20006806:	6083      	str	r3, [r0, #8]
20006808:	f04f 0c01 	mov.w	ip, #1
2000680c:	ea4f 03ae 	mov.w	r3, lr, asr #2
20006810:	fa0c fc03 	lsl.w	ip, ip, r3
20006814:	4594      	cmp	ip, r2
20006816:	f200 8082 	bhi.w	2000691e <_malloc_r+0x24a>
2000681a:	ea12 0f0c 	tst.w	r2, ip
2000681e:	d108      	bne.n	20006832 <_malloc_r+0x15e>
20006820:	f02e 0e03 	bic.w	lr, lr, #3
20006824:	ea4f 0c4c 	mov.w	ip, ip, lsl #1
20006828:	f10e 0e04 	add.w	lr, lr, #4
2000682c:	ea12 0f0c 	tst.w	r2, ip
20006830:	d0f8      	beq.n	20006824 <_malloc_r+0x150>
20006832:	eb07 09ce 	add.w	r9, r7, lr, lsl #3
20006836:	46f2      	mov	sl, lr
20006838:	46c8      	mov	r8, r9
2000683a:	f8d8 300c 	ldr.w	r3, [r8, #12]
2000683e:	4598      	cmp	r8, r3
20006840:	d107      	bne.n	20006852 <_malloc_r+0x17e>
20006842:	e168      	b.n	20006b16 <_malloc_r+0x442>
20006844:	2a00      	cmp	r2, #0
20006846:	f280 8178 	bge.w	20006b3a <_malloc_r+0x466>
2000684a:	68db      	ldr	r3, [r3, #12]
2000684c:	4598      	cmp	r8, r3
2000684e:	f000 8162 	beq.w	20006b16 <_malloc_r+0x442>
20006852:	6858      	ldr	r0, [r3, #4]
20006854:	f020 0003 	bic.w	r0, r0, #3
20006858:	1b02      	subs	r2, r0, r4
2000685a:	2a0f      	cmp	r2, #15
2000685c:	ddf2      	ble.n	20006844 <_malloc_r+0x170>
2000685e:	461d      	mov	r5, r3
20006860:	191f      	adds	r7, r3, r4
20006862:	f8d3 c00c 	ldr.w	ip, [r3, #12]
20006866:	f044 0e01 	orr.w	lr, r4, #1
2000686a:	f855 4f08 	ldr.w	r4, [r5, #8]!
2000686e:	4630      	mov	r0, r6
20006870:	50ba      	str	r2, [r7, r2]
20006872:	f042 0201 	orr.w	r2, r2, #1
20006876:	f8c3 e004 	str.w	lr, [r3, #4]
2000687a:	f8cc 4008 	str.w	r4, [ip, #8]
2000687e:	f8c4 c00c 	str.w	ip, [r4, #12]
20006882:	608f      	str	r7, [r1, #8]
20006884:	60cf      	str	r7, [r1, #12]
20006886:	607a      	str	r2, [r7, #4]
20006888:	60b9      	str	r1, [r7, #8]
2000688a:	60f9      	str	r1, [r7, #12]
2000688c:	f000 fb54 	bl	20006f38 <__malloc_unlock>
20006890:	e754      	b.n	2000673c <_malloc_r+0x68>
20006892:	f1be 0f04 	cmp.w	lr, #4
20006896:	bf9e      	ittt	ls
20006898:	ea4f 1e94 	movls.w	lr, r4, lsr #6
2000689c:	f10e 0e38 	addls.w	lr, lr, #56	; 0x38
200068a0:	ea4f 00ce 	movls.w	r0, lr, lsl #3
200068a4:	f67f af65 	bls.w	20006772 <_malloc_r+0x9e>
200068a8:	f1be 0f14 	cmp.w	lr, #20
200068ac:	bf9c      	itt	ls
200068ae:	f10e 0e5b 	addls.w	lr, lr, #91	; 0x5b
200068b2:	ea4f 00ce 	movls.w	r0, lr, lsl #3
200068b6:	f67f af5c 	bls.w	20006772 <_malloc_r+0x9e>
200068ba:	f1be 0f54 	cmp.w	lr, #84	; 0x54
200068be:	bf9e      	ittt	ls
200068c0:	ea4f 3e14 	movls.w	lr, r4, lsr #12
200068c4:	f10e 0e6e 	addls.w	lr, lr, #110	; 0x6e
200068c8:	ea4f 00ce 	movls.w	r0, lr, lsl #3
200068cc:	f67f af51 	bls.w	20006772 <_malloc_r+0x9e>
200068d0:	f5be 7faa 	cmp.w	lr, #340	; 0x154
200068d4:	bf9e      	ittt	ls
200068d6:	ea4f 3ed4 	movls.w	lr, r4, lsr #15
200068da:	f10e 0e77 	addls.w	lr, lr, #119	; 0x77
200068de:	ea4f 00ce 	movls.w	r0, lr, lsl #3
200068e2:	f67f af46 	bls.w	20006772 <_malloc_r+0x9e>
200068e6:	f240 5354 	movw	r3, #1364	; 0x554
200068ea:	459e      	cmp	lr, r3
200068ec:	bf95      	itete	ls
200068ee:	ea4f 4e94 	movls.w	lr, r4, lsr #18
200068f2:	f44f 707c 	movhi.w	r0, #1008	; 0x3f0
200068f6:	f10e 0e7c 	addls.w	lr, lr, #124	; 0x7c
200068fa:	f04f 0e7e 	movhi.w	lr, #126	; 0x7e
200068fe:	bf98      	it	ls
20006900:	ea4f 00ce 	movls.w	r0, lr, lsl #3
20006904:	e735      	b.n	20006772 <_malloc_r+0x9e>
20006906:	eb03 020c 	add.w	r2, r3, ip
2000690a:	f103 0508 	add.w	r5, r3, #8
2000690e:	4630      	mov	r0, r6
20006910:	6853      	ldr	r3, [r2, #4]
20006912:	f043 0301 	orr.w	r3, r3, #1
20006916:	6053      	str	r3, [r2, #4]
20006918:	f000 fb0e 	bl	20006f38 <__malloc_unlock>
2000691c:	e70e      	b.n	2000673c <_malloc_r+0x68>
2000691e:	f8d7 8008 	ldr.w	r8, [r7, #8]
20006922:	f8d8 3004 	ldr.w	r3, [r8, #4]
20006926:	f023 0903 	bic.w	r9, r3, #3
2000692a:	ebc4 0209 	rsb	r2, r4, r9
2000692e:	454c      	cmp	r4, r9
20006930:	bf94      	ite	ls
20006932:	2300      	movls	r3, #0
20006934:	2301      	movhi	r3, #1
20006936:	2a0f      	cmp	r2, #15
20006938:	bfd8      	it	le
2000693a:	f043 0301 	orrle.w	r3, r3, #1
2000693e:	2b00      	cmp	r3, #0
20006940:	f000 80a1 	beq.w	20006a86 <_malloc_r+0x3b2>
20006944:	f649 6b10 	movw	fp, #40464	; 0x9e10
20006948:	f8d5 2408 	ldr.w	r2, [r5, #1032]	; 0x408
2000694c:	f2c2 0b00 	movt	fp, #8192	; 0x2000
20006950:	f8db 3000 	ldr.w	r3, [fp]
20006954:	3310      	adds	r3, #16
20006956:	191b      	adds	r3, r3, r4
20006958:	f1b2 3fff 	cmp.w	r2, #4294967295
2000695c:	d006      	beq.n	2000696c <_malloc_r+0x298>
2000695e:	f503 637e 	add.w	r3, r3, #4064	; 0xfe0
20006962:	331f      	adds	r3, #31
20006964:	f423 637e 	bic.w	r3, r3, #4064	; 0xfe0
20006968:	f023 031f 	bic.w	r3, r3, #31
2000696c:	4619      	mov	r1, r3
2000696e:	4630      	mov	r0, r6
20006970:	9301      	str	r3, [sp, #4]
20006972:	f001 f989 	bl	20007c88 <_sbrk_r>
20006976:	9b01      	ldr	r3, [sp, #4]
20006978:	f1b0 3fff 	cmp.w	r0, #4294967295
2000697c:	4682      	mov	sl, r0
2000697e:	f000 80f4 	beq.w	20006b6a <_malloc_r+0x496>
20006982:	eb08 0109 	add.w	r1, r8, r9
20006986:	4281      	cmp	r1, r0
20006988:	f200 80ec 	bhi.w	20006b64 <_malloc_r+0x490>
2000698c:	f8db 2004 	ldr.w	r2, [fp, #4]
20006990:	189a      	adds	r2, r3, r2
20006992:	4551      	cmp	r1, sl
20006994:	f8cb 2004 	str.w	r2, [fp, #4]
20006998:	f000 8145 	beq.w	20006c26 <_malloc_r+0x552>
2000699c:	f8d5 5408 	ldr.w	r5, [r5, #1032]	; 0x408
200069a0:	f649 10e0 	movw	r0, #39392	; 0x99e0
200069a4:	f2c2 0000 	movt	r0, #8192	; 0x2000
200069a8:	f1b5 3fff 	cmp.w	r5, #4294967295
200069ac:	bf08      	it	eq
200069ae:	f8c0 a408 	streq.w	sl, [r0, #1032]	; 0x408
200069b2:	d003      	beq.n	200069bc <_malloc_r+0x2e8>
200069b4:	4452      	add	r2, sl
200069b6:	1a51      	subs	r1, r2, r1
200069b8:	f8cb 1004 	str.w	r1, [fp, #4]
200069bc:	f01a 0507 	ands.w	r5, sl, #7
200069c0:	4630      	mov	r0, r6
200069c2:	bf17      	itett	ne
200069c4:	f1c5 0508 	rsbne	r5, r5, #8
200069c8:	f44f 5580 	moveq.w	r5, #4096	; 0x1000
200069cc:	44aa      	addne	sl, r5
200069ce:	f505 5580 	addne.w	r5, r5, #4096	; 0x1000
200069d2:	4453      	add	r3, sl
200069d4:	051b      	lsls	r3, r3, #20
200069d6:	0d1b      	lsrs	r3, r3, #20
200069d8:	1aed      	subs	r5, r5, r3
200069da:	4629      	mov	r1, r5
200069dc:	f001 f954 	bl	20007c88 <_sbrk_r>
200069e0:	f1b0 3fff 	cmp.w	r0, #4294967295
200069e4:	f000 812c 	beq.w	20006c40 <_malloc_r+0x56c>
200069e8:	ebca 0100 	rsb	r1, sl, r0
200069ec:	1949      	adds	r1, r1, r5
200069ee:	f041 0101 	orr.w	r1, r1, #1
200069f2:	f8db 2004 	ldr.w	r2, [fp, #4]
200069f6:	f649 6310 	movw	r3, #40464	; 0x9e10
200069fa:	f8c7 a008 	str.w	sl, [r7, #8]
200069fe:	f2c2 0300 	movt	r3, #8192	; 0x2000
20006a02:	18aa      	adds	r2, r5, r2
20006a04:	45b8      	cmp	r8, r7
20006a06:	f8cb 2004 	str.w	r2, [fp, #4]
20006a0a:	f8ca 1004 	str.w	r1, [sl, #4]
20006a0e:	d017      	beq.n	20006a40 <_malloc_r+0x36c>
20006a10:	f1b9 0f0f 	cmp.w	r9, #15
20006a14:	f240 80df 	bls.w	20006bd6 <_malloc_r+0x502>
20006a18:	f1a9 010c 	sub.w	r1, r9, #12
20006a1c:	2505      	movs	r5, #5
20006a1e:	f021 0107 	bic.w	r1, r1, #7
20006a22:	eb08 0001 	add.w	r0, r8, r1
20006a26:	290f      	cmp	r1, #15
20006a28:	6085      	str	r5, [r0, #8]
20006a2a:	6045      	str	r5, [r0, #4]
20006a2c:	f8d8 0004 	ldr.w	r0, [r8, #4]
20006a30:	f000 0001 	and.w	r0, r0, #1
20006a34:	ea41 0000 	orr.w	r0, r1, r0
20006a38:	f8c8 0004 	str.w	r0, [r8, #4]
20006a3c:	f200 80ac 	bhi.w	20006b98 <_malloc_r+0x4c4>
20006a40:	46d0      	mov	r8, sl
20006a42:	f649 6310 	movw	r3, #40464	; 0x9e10
20006a46:	f8db 102c 	ldr.w	r1, [fp, #44]	; 0x2c
20006a4a:	f2c2 0300 	movt	r3, #8192	; 0x2000
20006a4e:	428a      	cmp	r2, r1
20006a50:	f8db 1030 	ldr.w	r1, [fp, #48]	; 0x30
20006a54:	bf88      	it	hi
20006a56:	62da      	strhi	r2, [r3, #44]	; 0x2c
20006a58:	f649 6310 	movw	r3, #40464	; 0x9e10
20006a5c:	f2c2 0300 	movt	r3, #8192	; 0x2000
20006a60:	428a      	cmp	r2, r1
20006a62:	bf88      	it	hi
20006a64:	631a      	strhi	r2, [r3, #48]	; 0x30
20006a66:	e082      	b.n	20006b6e <_malloc_r+0x49a>
20006a68:	185c      	adds	r4, r3, r1
20006a6a:	689a      	ldr	r2, [r3, #8]
20006a6c:	68d9      	ldr	r1, [r3, #12]
20006a6e:	4630      	mov	r0, r6
20006a70:	6866      	ldr	r6, [r4, #4]
20006a72:	f103 0508 	add.w	r5, r3, #8
20006a76:	608a      	str	r2, [r1, #8]
20006a78:	f046 0301 	orr.w	r3, r6, #1
20006a7c:	60d1      	str	r1, [r2, #12]
20006a7e:	6063      	str	r3, [r4, #4]
20006a80:	f000 fa5a 	bl	20006f38 <__malloc_unlock>
20006a84:	e65a      	b.n	2000673c <_malloc_r+0x68>
20006a86:	eb08 0304 	add.w	r3, r8, r4
20006a8a:	f042 0201 	orr.w	r2, r2, #1
20006a8e:	f044 0401 	orr.w	r4, r4, #1
20006a92:	4630      	mov	r0, r6
20006a94:	f8c8 4004 	str.w	r4, [r8, #4]
20006a98:	f108 0508 	add.w	r5, r8, #8
20006a9c:	605a      	str	r2, [r3, #4]
20006a9e:	60bb      	str	r3, [r7, #8]
20006aa0:	f000 fa4a 	bl	20006f38 <__malloc_unlock>
20006aa4:	e64a      	b.n	2000673c <_malloc_r+0x68>
20006aa6:	ea4f 225c 	mov.w	r2, ip, lsr #9
20006aaa:	2a04      	cmp	r2, #4
20006aac:	d954      	bls.n	20006b58 <_malloc_r+0x484>
20006aae:	2a14      	cmp	r2, #20
20006ab0:	f200 8089 	bhi.w	20006bc6 <_malloc_r+0x4f2>
20006ab4:	325b      	adds	r2, #91	; 0x5b
20006ab6:	ea4f 08c2 	mov.w	r8, r2, lsl #3
20006aba:	44a8      	add	r8, r5
20006abc:	f649 17e0 	movw	r7, #39392	; 0x99e0
20006ac0:	f2c2 0700 	movt	r7, #8192	; 0x2000
20006ac4:	f8d8 0008 	ldr.w	r0, [r8, #8]
20006ac8:	4540      	cmp	r0, r8
20006aca:	d103      	bne.n	20006ad4 <_malloc_r+0x400>
20006acc:	e06f      	b.n	20006bae <_malloc_r+0x4da>
20006ace:	6880      	ldr	r0, [r0, #8]
20006ad0:	4580      	cmp	r8, r0
20006ad2:	d004      	beq.n	20006ade <_malloc_r+0x40a>
20006ad4:	6842      	ldr	r2, [r0, #4]
20006ad6:	f022 0203 	bic.w	r2, r2, #3
20006ada:	4594      	cmp	ip, r2
20006adc:	d3f7      	bcc.n	20006ace <_malloc_r+0x3fa>
20006ade:	f8d0 c00c 	ldr.w	ip, [r0, #12]
20006ae2:	f8c3 c00c 	str.w	ip, [r3, #12]
20006ae6:	6098      	str	r0, [r3, #8]
20006ae8:	687a      	ldr	r2, [r7, #4]
20006aea:	60c3      	str	r3, [r0, #12]
20006aec:	f8cc 3008 	str.w	r3, [ip, #8]
20006af0:	e68a      	b.n	20006808 <_malloc_r+0x134>
20006af2:	191f      	adds	r7, r3, r4
20006af4:	4630      	mov	r0, r6
20006af6:	f044 0401 	orr.w	r4, r4, #1
20006afa:	60cf      	str	r7, [r1, #12]
20006afc:	605c      	str	r4, [r3, #4]
20006afe:	f103 0508 	add.w	r5, r3, #8
20006b02:	50ba      	str	r2, [r7, r2]
20006b04:	f042 0201 	orr.w	r2, r2, #1
20006b08:	608f      	str	r7, [r1, #8]
20006b0a:	607a      	str	r2, [r7, #4]
20006b0c:	60b9      	str	r1, [r7, #8]
20006b0e:	60f9      	str	r1, [r7, #12]
20006b10:	f000 fa12 	bl	20006f38 <__malloc_unlock>
20006b14:	e612      	b.n	2000673c <_malloc_r+0x68>
20006b16:	f10a 0a01 	add.w	sl, sl, #1
20006b1a:	f01a 0f03 	tst.w	sl, #3
20006b1e:	d05f      	beq.n	20006be0 <_malloc_r+0x50c>
20006b20:	f103 0808 	add.w	r8, r3, #8
20006b24:	e689      	b.n	2000683a <_malloc_r+0x166>
20006b26:	f103 0208 	add.w	r2, r3, #8
20006b2a:	68d3      	ldr	r3, [r2, #12]
20006b2c:	429a      	cmp	r2, r3
20006b2e:	bf08      	it	eq
20006b30:	f10e 0e02 	addeq.w	lr, lr, #2
20006b34:	f43f ae36 	beq.w	200067a4 <_malloc_r+0xd0>
20006b38:	e5ef      	b.n	2000671a <_malloc_r+0x46>
20006b3a:	461d      	mov	r5, r3
20006b3c:	1819      	adds	r1, r3, r0
20006b3e:	68da      	ldr	r2, [r3, #12]
20006b40:	4630      	mov	r0, r6
20006b42:	f855 3f08 	ldr.w	r3, [r5, #8]!
20006b46:	684c      	ldr	r4, [r1, #4]
20006b48:	6093      	str	r3, [r2, #8]
20006b4a:	f044 0401 	orr.w	r4, r4, #1
20006b4e:	60da      	str	r2, [r3, #12]
20006b50:	604c      	str	r4, [r1, #4]
20006b52:	f000 f9f1 	bl	20006f38 <__malloc_unlock>
20006b56:	e5f1      	b.n	2000673c <_malloc_r+0x68>
20006b58:	ea4f 129c 	mov.w	r2, ip, lsr #6
20006b5c:	3238      	adds	r2, #56	; 0x38
20006b5e:	ea4f 08c2 	mov.w	r8, r2, lsl #3
20006b62:	e7aa      	b.n	20006aba <_malloc_r+0x3e6>
20006b64:	45b8      	cmp	r8, r7
20006b66:	f43f af11 	beq.w	2000698c <_malloc_r+0x2b8>
20006b6a:	f8d7 8008 	ldr.w	r8, [r7, #8]
20006b6e:	f8d8 2004 	ldr.w	r2, [r8, #4]
20006b72:	f022 0203 	bic.w	r2, r2, #3
20006b76:	4294      	cmp	r4, r2
20006b78:	bf94      	ite	ls
20006b7a:	2300      	movls	r3, #0
20006b7c:	2301      	movhi	r3, #1
20006b7e:	1b12      	subs	r2, r2, r4
20006b80:	2a0f      	cmp	r2, #15
20006b82:	bfd8      	it	le
20006b84:	f043 0301 	orrle.w	r3, r3, #1
20006b88:	2b00      	cmp	r3, #0
20006b8a:	f43f af7c 	beq.w	20006a86 <_malloc_r+0x3b2>
20006b8e:	4630      	mov	r0, r6
20006b90:	2500      	movs	r5, #0
20006b92:	f000 f9d1 	bl	20006f38 <__malloc_unlock>
20006b96:	e5d1      	b.n	2000673c <_malloc_r+0x68>
20006b98:	f108 0108 	add.w	r1, r8, #8
20006b9c:	4630      	mov	r0, r6
20006b9e:	9301      	str	r3, [sp, #4]
20006ba0:	f7ff fa16 	bl	20005fd0 <_free_r>
20006ba4:	9b01      	ldr	r3, [sp, #4]
20006ba6:	f8d7 8008 	ldr.w	r8, [r7, #8]
20006baa:	685a      	ldr	r2, [r3, #4]
20006bac:	e749      	b.n	20006a42 <_malloc_r+0x36e>
20006bae:	f04f 0a01 	mov.w	sl, #1
20006bb2:	f8d7 8004 	ldr.w	r8, [r7, #4]
20006bb6:	1092      	asrs	r2, r2, #2
20006bb8:	4684      	mov	ip, r0
20006bba:	fa0a f202 	lsl.w	r2, sl, r2
20006bbe:	ea48 0202 	orr.w	r2, r8, r2
20006bc2:	607a      	str	r2, [r7, #4]
20006bc4:	e78d      	b.n	20006ae2 <_malloc_r+0x40e>
20006bc6:	2a54      	cmp	r2, #84	; 0x54
20006bc8:	d824      	bhi.n	20006c14 <_malloc_r+0x540>
20006bca:	ea4f 321c 	mov.w	r2, ip, lsr #12
20006bce:	326e      	adds	r2, #110	; 0x6e
20006bd0:	ea4f 08c2 	mov.w	r8, r2, lsl #3
20006bd4:	e771      	b.n	20006aba <_malloc_r+0x3e6>
20006bd6:	2301      	movs	r3, #1
20006bd8:	46d0      	mov	r8, sl
20006bda:	f8ca 3004 	str.w	r3, [sl, #4]
20006bde:	e7c6      	b.n	20006b6e <_malloc_r+0x49a>
20006be0:	464a      	mov	r2, r9
20006be2:	f01e 0f03 	tst.w	lr, #3
20006be6:	4613      	mov	r3, r2
20006be8:	f10e 3eff 	add.w	lr, lr, #4294967295
20006bec:	d033      	beq.n	20006c56 <_malloc_r+0x582>
20006bee:	f853 2908 	ldr.w	r2, [r3], #-8
20006bf2:	429a      	cmp	r2, r3
20006bf4:	d0f5      	beq.n	20006be2 <_malloc_r+0x50e>
20006bf6:	687b      	ldr	r3, [r7, #4]
20006bf8:	ea4f 0c4c 	mov.w	ip, ip, lsl #1
20006bfc:	459c      	cmp	ip, r3
20006bfe:	f63f ae8e 	bhi.w	2000691e <_malloc_r+0x24a>
20006c02:	f1bc 0f00 	cmp.w	ip, #0
20006c06:	f43f ae8a 	beq.w	2000691e <_malloc_r+0x24a>
20006c0a:	ea1c 0f03 	tst.w	ip, r3
20006c0e:	d027      	beq.n	20006c60 <_malloc_r+0x58c>
20006c10:	46d6      	mov	lr, sl
20006c12:	e60e      	b.n	20006832 <_malloc_r+0x15e>
20006c14:	f5b2 7faa 	cmp.w	r2, #340	; 0x154
20006c18:	d815      	bhi.n	20006c46 <_malloc_r+0x572>
20006c1a:	ea4f 32dc 	mov.w	r2, ip, lsr #15
20006c1e:	3277      	adds	r2, #119	; 0x77
20006c20:	ea4f 08c2 	mov.w	r8, r2, lsl #3
20006c24:	e749      	b.n	20006aba <_malloc_r+0x3e6>
20006c26:	0508      	lsls	r0, r1, #20
20006c28:	0d00      	lsrs	r0, r0, #20
20006c2a:	2800      	cmp	r0, #0
20006c2c:	f47f aeb6 	bne.w	2000699c <_malloc_r+0x2c8>
20006c30:	f8d7 8008 	ldr.w	r8, [r7, #8]
20006c34:	444b      	add	r3, r9
20006c36:	f043 0301 	orr.w	r3, r3, #1
20006c3a:	f8c8 3004 	str.w	r3, [r8, #4]
20006c3e:	e700      	b.n	20006a42 <_malloc_r+0x36e>
20006c40:	2101      	movs	r1, #1
20006c42:	2500      	movs	r5, #0
20006c44:	e6d5      	b.n	200069f2 <_malloc_r+0x31e>
20006c46:	f240 5054 	movw	r0, #1364	; 0x554
20006c4a:	4282      	cmp	r2, r0
20006c4c:	d90d      	bls.n	20006c6a <_malloc_r+0x596>
20006c4e:	f44f 787c 	mov.w	r8, #1008	; 0x3f0
20006c52:	227e      	movs	r2, #126	; 0x7e
20006c54:	e731      	b.n	20006aba <_malloc_r+0x3e6>
20006c56:	687b      	ldr	r3, [r7, #4]
20006c58:	ea23 030c 	bic.w	r3, r3, ip
20006c5c:	607b      	str	r3, [r7, #4]
20006c5e:	e7cb      	b.n	20006bf8 <_malloc_r+0x524>
20006c60:	ea4f 0c4c 	mov.w	ip, ip, lsl #1
20006c64:	f10a 0a04 	add.w	sl, sl, #4
20006c68:	e7cf      	b.n	20006c0a <_malloc_r+0x536>
20006c6a:	ea4f 429c 	mov.w	r2, ip, lsr #18
20006c6e:	327c      	adds	r2, #124	; 0x7c
20006c70:	ea4f 08c2 	mov.w	r8, r2, lsl #3
20006c74:	e721      	b.n	20006aba <_malloc_r+0x3e6>
20006c76:	bf00      	nop

20006c78 <memchr>:
20006c78:	f010 0f03 	tst.w	r0, #3
20006c7c:	b2c9      	uxtb	r1, r1
20006c7e:	b410      	push	{r4}
20006c80:	d010      	beq.n	20006ca4 <memchr+0x2c>
20006c82:	2a00      	cmp	r2, #0
20006c84:	d02f      	beq.n	20006ce6 <memchr+0x6e>
20006c86:	7803      	ldrb	r3, [r0, #0]
20006c88:	428b      	cmp	r3, r1
20006c8a:	d02a      	beq.n	20006ce2 <memchr+0x6a>
20006c8c:	3a01      	subs	r2, #1
20006c8e:	e005      	b.n	20006c9c <memchr+0x24>
20006c90:	2a00      	cmp	r2, #0
20006c92:	d028      	beq.n	20006ce6 <memchr+0x6e>
20006c94:	7803      	ldrb	r3, [r0, #0]
20006c96:	3a01      	subs	r2, #1
20006c98:	428b      	cmp	r3, r1
20006c9a:	d022      	beq.n	20006ce2 <memchr+0x6a>
20006c9c:	3001      	adds	r0, #1
20006c9e:	f010 0f03 	tst.w	r0, #3
20006ca2:	d1f5      	bne.n	20006c90 <memchr+0x18>
20006ca4:	2a03      	cmp	r2, #3
20006ca6:	d911      	bls.n	20006ccc <memchr+0x54>
20006ca8:	ea41 2401 	orr.w	r4, r1, r1, lsl #8
20006cac:	ea44 4404 	orr.w	r4, r4, r4, lsl #16
20006cb0:	6803      	ldr	r3, [r0, #0]
20006cb2:	ea84 0303 	eor.w	r3, r4, r3
20006cb6:	f1a3 3c01 	sub.w	ip, r3, #16843009	; 0x1010101
20006cba:	ea2c 0303 	bic.w	r3, ip, r3
20006cbe:	f013 3f80 	tst.w	r3, #2155905152	; 0x80808080
20006cc2:	d103      	bne.n	20006ccc <memchr+0x54>
20006cc4:	3a04      	subs	r2, #4
20006cc6:	3004      	adds	r0, #4
20006cc8:	2a03      	cmp	r2, #3
20006cca:	d8f1      	bhi.n	20006cb0 <memchr+0x38>
20006ccc:	b15a      	cbz	r2, 20006ce6 <memchr+0x6e>
20006cce:	7803      	ldrb	r3, [r0, #0]
20006cd0:	428b      	cmp	r3, r1
20006cd2:	d006      	beq.n	20006ce2 <memchr+0x6a>
20006cd4:	3a01      	subs	r2, #1
20006cd6:	b132      	cbz	r2, 20006ce6 <memchr+0x6e>
20006cd8:	f810 3f01 	ldrb.w	r3, [r0, #1]!
20006cdc:	3a01      	subs	r2, #1
20006cde:	428b      	cmp	r3, r1
20006ce0:	d1f9      	bne.n	20006cd6 <memchr+0x5e>
20006ce2:	bc10      	pop	{r4}
20006ce4:	4770      	bx	lr
20006ce6:	2000      	movs	r0, #0
20006ce8:	e7fb      	b.n	20006ce2 <memchr+0x6a>
20006cea:	bf00      	nop

20006cec <memcpy>:
20006cec:	2a03      	cmp	r2, #3
20006cee:	e92d 07f0 	stmdb	sp!, {r4, r5, r6, r7, r8, r9, sl}
20006cf2:	d80b      	bhi.n	20006d0c <memcpy+0x20>
20006cf4:	b13a      	cbz	r2, 20006d06 <memcpy+0x1a>
20006cf6:	2300      	movs	r3, #0
20006cf8:	f811 c003 	ldrb.w	ip, [r1, r3]
20006cfc:	f800 c003 	strb.w	ip, [r0, r3]
20006d00:	3301      	adds	r3, #1
20006d02:	4293      	cmp	r3, r2
20006d04:	d1f8      	bne.n	20006cf8 <memcpy+0xc>
20006d06:	e8bd 07f0 	ldmia.w	sp!, {r4, r5, r6, r7, r8, r9, sl}
20006d0a:	4770      	bx	lr
20006d0c:	1882      	adds	r2, r0, r2
20006d0e:	460c      	mov	r4, r1
20006d10:	4603      	mov	r3, r0
20006d12:	e003      	b.n	20006d1c <memcpy+0x30>
20006d14:	f814 1c01 	ldrb.w	r1, [r4, #-1]
20006d18:	f803 1c01 	strb.w	r1, [r3, #-1]
20006d1c:	f003 0603 	and.w	r6, r3, #3
20006d20:	4619      	mov	r1, r3
20006d22:	46a4      	mov	ip, r4
20006d24:	3301      	adds	r3, #1
20006d26:	3401      	adds	r4, #1
20006d28:	2e00      	cmp	r6, #0
20006d2a:	d1f3      	bne.n	20006d14 <memcpy+0x28>
20006d2c:	f01c 0403 	ands.w	r4, ip, #3
20006d30:	4663      	mov	r3, ip
20006d32:	bf08      	it	eq
20006d34:	ebc1 0c02 	rsbeq	ip, r1, r2
20006d38:	d068      	beq.n	20006e0c <memcpy+0x120>
20006d3a:	4265      	negs	r5, r4
20006d3c:	f1c4 0a04 	rsb	sl, r4, #4
20006d40:	eb0c 0705 	add.w	r7, ip, r5
20006d44:	4633      	mov	r3, r6
20006d46:	ea4f 0aca 	mov.w	sl, sl, lsl #3
20006d4a:	f85c 6005 	ldr.w	r6, [ip, r5]
20006d4e:	ea4f 08c4 	mov.w	r8, r4, lsl #3
20006d52:	1a55      	subs	r5, r2, r1
20006d54:	e008      	b.n	20006d68 <memcpy+0x7c>
20006d56:	f857 4f04 	ldr.w	r4, [r7, #4]!
20006d5a:	4626      	mov	r6, r4
20006d5c:	fa04 f40a 	lsl.w	r4, r4, sl
20006d60:	ea49 0404 	orr.w	r4, r9, r4
20006d64:	50cc      	str	r4, [r1, r3]
20006d66:	3304      	adds	r3, #4
20006d68:	185c      	adds	r4, r3, r1
20006d6a:	2d03      	cmp	r5, #3
20006d6c:	fa26 f908 	lsr.w	r9, r6, r8
20006d70:	f1a5 0504 	sub.w	r5, r5, #4
20006d74:	eb0c 0603 	add.w	r6, ip, r3
20006d78:	dced      	bgt.n	20006d56 <memcpy+0x6a>
20006d7a:	2300      	movs	r3, #0
20006d7c:	e002      	b.n	20006d84 <memcpy+0x98>
20006d7e:	5cf1      	ldrb	r1, [r6, r3]
20006d80:	54e1      	strb	r1, [r4, r3]
20006d82:	3301      	adds	r3, #1
20006d84:	1919      	adds	r1, r3, r4
20006d86:	4291      	cmp	r1, r2
20006d88:	d3f9      	bcc.n	20006d7e <memcpy+0x92>
20006d8a:	e7bc      	b.n	20006d06 <memcpy+0x1a>
20006d8c:	f853 4c40 	ldr.w	r4, [r3, #-64]
20006d90:	f841 4c40 	str.w	r4, [r1, #-64]
20006d94:	f853 4c3c 	ldr.w	r4, [r3, #-60]
20006d98:	f841 4c3c 	str.w	r4, [r1, #-60]
20006d9c:	f853 4c38 	ldr.w	r4, [r3, #-56]
20006da0:	f841 4c38 	str.w	r4, [r1, #-56]
20006da4:	f853 4c34 	ldr.w	r4, [r3, #-52]
20006da8:	f841 4c34 	str.w	r4, [r1, #-52]
20006dac:	f853 4c30 	ldr.w	r4, [r3, #-48]
20006db0:	f841 4c30 	str.w	r4, [r1, #-48]
20006db4:	f853 4c2c 	ldr.w	r4, [r3, #-44]
20006db8:	f841 4c2c 	str.w	r4, [r1, #-44]
20006dbc:	f853 4c28 	ldr.w	r4, [r3, #-40]
20006dc0:	f841 4c28 	str.w	r4, [r1, #-40]
20006dc4:	f853 4c24 	ldr.w	r4, [r3, #-36]
20006dc8:	f841 4c24 	str.w	r4, [r1, #-36]
20006dcc:	f853 4c20 	ldr.w	r4, [r3, #-32]
20006dd0:	f841 4c20 	str.w	r4, [r1, #-32]
20006dd4:	f853 4c1c 	ldr.w	r4, [r3, #-28]
20006dd8:	f841 4c1c 	str.w	r4, [r1, #-28]
20006ddc:	f853 4c18 	ldr.w	r4, [r3, #-24]
20006de0:	f841 4c18 	str.w	r4, [r1, #-24]
20006de4:	f853 4c14 	ldr.w	r4, [r3, #-20]
20006de8:	f841 4c14 	str.w	r4, [r1, #-20]
20006dec:	f853 4c10 	ldr.w	r4, [r3, #-16]
20006df0:	f841 4c10 	str.w	r4, [r1, #-16]
20006df4:	f853 4c0c 	ldr.w	r4, [r3, #-12]
20006df8:	f841 4c0c 	str.w	r4, [r1, #-12]
20006dfc:	f853 4c08 	ldr.w	r4, [r3, #-8]
20006e00:	f841 4c08 	str.w	r4, [r1, #-8]
20006e04:	f853 4c04 	ldr.w	r4, [r3, #-4]
20006e08:	f841 4c04 	str.w	r4, [r1, #-4]
20006e0c:	461c      	mov	r4, r3
20006e0e:	460d      	mov	r5, r1
20006e10:	3340      	adds	r3, #64	; 0x40
20006e12:	3140      	adds	r1, #64	; 0x40
20006e14:	f1bc 0f3f 	cmp.w	ip, #63	; 0x3f
20006e18:	f1ac 0c40 	sub.w	ip, ip, #64	; 0x40
20006e1c:	dcb6      	bgt.n	20006d8c <memcpy+0xa0>
20006e1e:	4621      	mov	r1, r4
20006e20:	462b      	mov	r3, r5
20006e22:	1b54      	subs	r4, r2, r5
20006e24:	e00f      	b.n	20006e46 <memcpy+0x15a>
20006e26:	f851 5c10 	ldr.w	r5, [r1, #-16]
20006e2a:	f843 5c10 	str.w	r5, [r3, #-16]
20006e2e:	f851 5c0c 	ldr.w	r5, [r1, #-12]
20006e32:	f843 5c0c 	str.w	r5, [r3, #-12]
20006e36:	f851 5c08 	ldr.w	r5, [r1, #-8]
20006e3a:	f843 5c08 	str.w	r5, [r3, #-8]
20006e3e:	f851 5c04 	ldr.w	r5, [r1, #-4]
20006e42:	f843 5c04 	str.w	r5, [r3, #-4]
20006e46:	2c0f      	cmp	r4, #15
20006e48:	460d      	mov	r5, r1
20006e4a:	469c      	mov	ip, r3
20006e4c:	f101 0110 	add.w	r1, r1, #16
20006e50:	f103 0310 	add.w	r3, r3, #16
20006e54:	f1a4 0410 	sub.w	r4, r4, #16
20006e58:	dce5      	bgt.n	20006e26 <memcpy+0x13a>
20006e5a:	ebcc 0102 	rsb	r1, ip, r2
20006e5e:	2300      	movs	r3, #0
20006e60:	e003      	b.n	20006e6a <memcpy+0x17e>
20006e62:	58ec      	ldr	r4, [r5, r3]
20006e64:	f84c 4003 	str.w	r4, [ip, r3]
20006e68:	3304      	adds	r3, #4
20006e6a:	195e      	adds	r6, r3, r5
20006e6c:	2903      	cmp	r1, #3
20006e6e:	eb03 040c 	add.w	r4, r3, ip
20006e72:	f1a1 0104 	sub.w	r1, r1, #4
20006e76:	dcf4      	bgt.n	20006e62 <memcpy+0x176>
20006e78:	e77f      	b.n	20006d7a <memcpy+0x8e>
20006e7a:	bf00      	nop

20006e7c <memmove>:
20006e7c:	4288      	cmp	r0, r1
20006e7e:	468c      	mov	ip, r1
20006e80:	b470      	push	{r4, r5, r6}
20006e82:	4605      	mov	r5, r0
20006e84:	4614      	mov	r4, r2
20006e86:	d90e      	bls.n	20006ea6 <memmove+0x2a>
20006e88:	188b      	adds	r3, r1, r2
20006e8a:	4298      	cmp	r0, r3
20006e8c:	d20b      	bcs.n	20006ea6 <memmove+0x2a>
20006e8e:	b142      	cbz	r2, 20006ea2 <memmove+0x26>
20006e90:	ebc2 0c03 	rsb	ip, r2, r3
20006e94:	4601      	mov	r1, r0
20006e96:	1e53      	subs	r3, r2, #1
20006e98:	f81c 2003 	ldrb.w	r2, [ip, r3]
20006e9c:	54ca      	strb	r2, [r1, r3]
20006e9e:	3b01      	subs	r3, #1
20006ea0:	d2fa      	bcs.n	20006e98 <memmove+0x1c>
20006ea2:	bc70      	pop	{r4, r5, r6}
20006ea4:	4770      	bx	lr
20006ea6:	2a0f      	cmp	r2, #15
20006ea8:	d809      	bhi.n	20006ebe <memmove+0x42>
20006eaa:	2c00      	cmp	r4, #0
20006eac:	d0f9      	beq.n	20006ea2 <memmove+0x26>
20006eae:	2300      	movs	r3, #0
20006eb0:	f81c 2003 	ldrb.w	r2, [ip, r3]
20006eb4:	54ea      	strb	r2, [r5, r3]
20006eb6:	3301      	adds	r3, #1
20006eb8:	42a3      	cmp	r3, r4
20006eba:	d1f9      	bne.n	20006eb0 <memmove+0x34>
20006ebc:	e7f1      	b.n	20006ea2 <memmove+0x26>
20006ebe:	ea41 0300 	orr.w	r3, r1, r0
20006ec2:	f013 0f03 	tst.w	r3, #3
20006ec6:	d1f0      	bne.n	20006eaa <memmove+0x2e>
20006ec8:	4694      	mov	ip, r2
20006eca:	460c      	mov	r4, r1
20006ecc:	4603      	mov	r3, r0
20006ece:	6825      	ldr	r5, [r4, #0]
20006ed0:	f1ac 0c10 	sub.w	ip, ip, #16
20006ed4:	601d      	str	r5, [r3, #0]
20006ed6:	6865      	ldr	r5, [r4, #4]
20006ed8:	605d      	str	r5, [r3, #4]
20006eda:	68a5      	ldr	r5, [r4, #8]
20006edc:	609d      	str	r5, [r3, #8]
20006ede:	68e5      	ldr	r5, [r4, #12]
20006ee0:	3410      	adds	r4, #16
20006ee2:	60dd      	str	r5, [r3, #12]
20006ee4:	3310      	adds	r3, #16
20006ee6:	f1bc 0f0f 	cmp.w	ip, #15
20006eea:	d8f0      	bhi.n	20006ece <memmove+0x52>
20006eec:	3a10      	subs	r2, #16
20006eee:	ea4f 1c12 	mov.w	ip, r2, lsr #4
20006ef2:	f10c 0501 	add.w	r5, ip, #1
20006ef6:	ebcc 7c0c 	rsb	ip, ip, ip, lsl #28
20006efa:	012d      	lsls	r5, r5, #4
20006efc:	eb02 160c 	add.w	r6, r2, ip, lsl #4
20006f00:	eb01 0c05 	add.w	ip, r1, r5
20006f04:	1945      	adds	r5, r0, r5
20006f06:	2e03      	cmp	r6, #3
20006f08:	4634      	mov	r4, r6
20006f0a:	d9ce      	bls.n	20006eaa <memmove+0x2e>
20006f0c:	2300      	movs	r3, #0
20006f0e:	f85c 2003 	ldr.w	r2, [ip, r3]
20006f12:	50ea      	str	r2, [r5, r3]
20006f14:	3304      	adds	r3, #4
20006f16:	1af2      	subs	r2, r6, r3
20006f18:	2a03      	cmp	r2, #3
20006f1a:	d8f8      	bhi.n	20006f0e <memmove+0x92>
20006f1c:	3e04      	subs	r6, #4
20006f1e:	08b3      	lsrs	r3, r6, #2
20006f20:	1c5a      	adds	r2, r3, #1
20006f22:	ebc3 7383 	rsb	r3, r3, r3, lsl #30
20006f26:	0092      	lsls	r2, r2, #2
20006f28:	4494      	add	ip, r2
20006f2a:	eb06 0483 	add.w	r4, r6, r3, lsl #2
20006f2e:	18ad      	adds	r5, r5, r2
20006f30:	e7bb      	b.n	20006eaa <memmove+0x2e>
20006f32:	bf00      	nop

20006f34 <__malloc_lock>:
20006f34:	4770      	bx	lr
20006f36:	bf00      	nop

20006f38 <__malloc_unlock>:
20006f38:	4770      	bx	lr
20006f3a:	bf00      	nop

20006f3c <__hi0bits>:
20006f3c:	0c02      	lsrs	r2, r0, #16
20006f3e:	4603      	mov	r3, r0
20006f40:	0412      	lsls	r2, r2, #16
20006f42:	b1b2      	cbz	r2, 20006f72 <__hi0bits+0x36>
20006f44:	2000      	movs	r0, #0
20006f46:	f013 4f7f 	tst.w	r3, #4278190080	; 0xff000000
20006f4a:	d101      	bne.n	20006f50 <__hi0bits+0x14>
20006f4c:	3008      	adds	r0, #8
20006f4e:	021b      	lsls	r3, r3, #8
20006f50:	f013 4f70 	tst.w	r3, #4026531840	; 0xf0000000
20006f54:	d101      	bne.n	20006f5a <__hi0bits+0x1e>
20006f56:	3004      	adds	r0, #4
20006f58:	011b      	lsls	r3, r3, #4
20006f5a:	f013 4f40 	tst.w	r3, #3221225472	; 0xc0000000
20006f5e:	d101      	bne.n	20006f64 <__hi0bits+0x28>
20006f60:	3002      	adds	r0, #2
20006f62:	009b      	lsls	r3, r3, #2
20006f64:	2b00      	cmp	r3, #0
20006f66:	db03      	blt.n	20006f70 <__hi0bits+0x34>
20006f68:	f013 4f80 	tst.w	r3, #1073741824	; 0x40000000
20006f6c:	d004      	beq.n	20006f78 <__hi0bits+0x3c>
20006f6e:	3001      	adds	r0, #1
20006f70:	4770      	bx	lr
20006f72:	0403      	lsls	r3, r0, #16
20006f74:	2010      	movs	r0, #16
20006f76:	e7e6      	b.n	20006f46 <__hi0bits+0xa>
20006f78:	2020      	movs	r0, #32
20006f7a:	4770      	bx	lr

20006f7c <__lo0bits>:
20006f7c:	6803      	ldr	r3, [r0, #0]
20006f7e:	4602      	mov	r2, r0
20006f80:	f013 0007 	ands.w	r0, r3, #7
20006f84:	d009      	beq.n	20006f9a <__lo0bits+0x1e>
20006f86:	f013 0f01 	tst.w	r3, #1
20006f8a:	d121      	bne.n	20006fd0 <__lo0bits+0x54>
20006f8c:	f013 0f02 	tst.w	r3, #2
20006f90:	d122      	bne.n	20006fd8 <__lo0bits+0x5c>
20006f92:	089b      	lsrs	r3, r3, #2
20006f94:	2002      	movs	r0, #2
20006f96:	6013      	str	r3, [r2, #0]
20006f98:	4770      	bx	lr
20006f9a:	b299      	uxth	r1, r3
20006f9c:	b909      	cbnz	r1, 20006fa2 <__lo0bits+0x26>
20006f9e:	0c1b      	lsrs	r3, r3, #16
20006fa0:	2010      	movs	r0, #16
20006fa2:	f013 0fff 	tst.w	r3, #255	; 0xff
20006fa6:	d101      	bne.n	20006fac <__lo0bits+0x30>
20006fa8:	3008      	adds	r0, #8
20006faa:	0a1b      	lsrs	r3, r3, #8
20006fac:	f013 0f0f 	tst.w	r3, #15
20006fb0:	d101      	bne.n	20006fb6 <__lo0bits+0x3a>
20006fb2:	3004      	adds	r0, #4
20006fb4:	091b      	lsrs	r3, r3, #4
20006fb6:	f013 0f03 	tst.w	r3, #3
20006fba:	d101      	bne.n	20006fc0 <__lo0bits+0x44>
20006fbc:	3002      	adds	r0, #2
20006fbe:	089b      	lsrs	r3, r3, #2
20006fc0:	f013 0f01 	tst.w	r3, #1
20006fc4:	d102      	bne.n	20006fcc <__lo0bits+0x50>
20006fc6:	085b      	lsrs	r3, r3, #1
20006fc8:	d004      	beq.n	20006fd4 <__lo0bits+0x58>
20006fca:	3001      	adds	r0, #1
20006fcc:	6013      	str	r3, [r2, #0]
20006fce:	4770      	bx	lr
20006fd0:	2000      	movs	r0, #0
20006fd2:	4770      	bx	lr
20006fd4:	2020      	movs	r0, #32
20006fd6:	4770      	bx	lr
20006fd8:	085b      	lsrs	r3, r3, #1
20006fda:	2001      	movs	r0, #1
20006fdc:	6013      	str	r3, [r2, #0]
20006fde:	4770      	bx	lr

20006fe0 <__mcmp>:
20006fe0:	4603      	mov	r3, r0
20006fe2:	690a      	ldr	r2, [r1, #16]
20006fe4:	6900      	ldr	r0, [r0, #16]
20006fe6:	b410      	push	{r4}
20006fe8:	1a80      	subs	r0, r0, r2
20006fea:	d111      	bne.n	20007010 <__mcmp+0x30>
20006fec:	3204      	adds	r2, #4
20006fee:	f103 0c14 	add.w	ip, r3, #20
20006ff2:	0092      	lsls	r2, r2, #2
20006ff4:	189b      	adds	r3, r3, r2
20006ff6:	1889      	adds	r1, r1, r2
20006ff8:	3104      	adds	r1, #4
20006ffa:	3304      	adds	r3, #4
20006ffc:	f853 4c04 	ldr.w	r4, [r3, #-4]
20007000:	3b04      	subs	r3, #4
20007002:	f851 2c04 	ldr.w	r2, [r1, #-4]
20007006:	3904      	subs	r1, #4
20007008:	4294      	cmp	r4, r2
2000700a:	d103      	bne.n	20007014 <__mcmp+0x34>
2000700c:	459c      	cmp	ip, r3
2000700e:	d3f5      	bcc.n	20006ffc <__mcmp+0x1c>
20007010:	bc10      	pop	{r4}
20007012:	4770      	bx	lr
20007014:	bf38      	it	cc
20007016:	f04f 30ff 	movcc.w	r0, #4294967295
2000701a:	d3f9      	bcc.n	20007010 <__mcmp+0x30>
2000701c:	2001      	movs	r0, #1
2000701e:	e7f7      	b.n	20007010 <__mcmp+0x30>

20007020 <__ulp>:
20007020:	f240 0300 	movw	r3, #0
20007024:	f6c7 73f0 	movt	r3, #32752	; 0x7ff0
20007028:	ea01 0303 	and.w	r3, r1, r3
2000702c:	f1a3 7350 	sub.w	r3, r3, #54525952	; 0x3400000
20007030:	2b00      	cmp	r3, #0
20007032:	dd02      	ble.n	2000703a <__ulp+0x1a>
20007034:	4619      	mov	r1, r3
20007036:	2000      	movs	r0, #0
20007038:	4770      	bx	lr
2000703a:	425b      	negs	r3, r3
2000703c:	151b      	asrs	r3, r3, #20
2000703e:	2b13      	cmp	r3, #19
20007040:	dd0e      	ble.n	20007060 <__ulp+0x40>
20007042:	3b14      	subs	r3, #20
20007044:	2b1e      	cmp	r3, #30
20007046:	dd03      	ble.n	20007050 <__ulp+0x30>
20007048:	2301      	movs	r3, #1
2000704a:	2100      	movs	r1, #0
2000704c:	4618      	mov	r0, r3
2000704e:	4770      	bx	lr
20007050:	2201      	movs	r2, #1
20007052:	f1c3 031f 	rsb	r3, r3, #31
20007056:	2100      	movs	r1, #0
20007058:	fa12 f303 	lsls.w	r3, r2, r3
2000705c:	4618      	mov	r0, r3
2000705e:	4770      	bx	lr
20007060:	f44f 2200 	mov.w	r2, #524288	; 0x80000
20007064:	2000      	movs	r0, #0
20007066:	fa52 f103 	asrs.w	r1, r2, r3
2000706a:	4770      	bx	lr

2000706c <__b2d>:
2000706c:	e92d 41f0 	stmdb	sp!, {r4, r5, r6, r7, r8, lr}
20007070:	6904      	ldr	r4, [r0, #16]
20007072:	f100 0614 	add.w	r6, r0, #20
20007076:	460f      	mov	r7, r1
20007078:	3404      	adds	r4, #4
2000707a:	f850 5024 	ldr.w	r5, [r0, r4, lsl #2]
2000707e:	eb00 0484 	add.w	r4, r0, r4, lsl #2
20007082:	46a0      	mov	r8, r4
20007084:	4628      	mov	r0, r5
20007086:	f7ff ff59 	bl	20006f3c <__hi0bits>
2000708a:	280a      	cmp	r0, #10
2000708c:	f1c0 0320 	rsb	r3, r0, #32
20007090:	603b      	str	r3, [r7, #0]
20007092:	dc14      	bgt.n	200070be <__b2d+0x52>
20007094:	42a6      	cmp	r6, r4
20007096:	f1c0 030b 	rsb	r3, r0, #11
2000709a:	d237      	bcs.n	2000710c <__b2d+0xa0>
2000709c:	f854 1c04 	ldr.w	r1, [r4, #-4]
200070a0:	40d9      	lsrs	r1, r3
200070a2:	fa25 fc03 	lsr.w	ip, r5, r3
200070a6:	3015      	adds	r0, #21
200070a8:	f04c 537e 	orr.w	r3, ip, #1065353216	; 0x3f800000
200070ac:	4085      	lsls	r5, r0
200070ae:	f443 03e0 	orr.w	r3, r3, #7340032	; 0x700000
200070b2:	ea41 0205 	orr.w	r2, r1, r5
200070b6:	4610      	mov	r0, r2
200070b8:	4619      	mov	r1, r3
200070ba:	e8bd 81f0 	ldmia.w	sp!, {r4, r5, r6, r7, r8, pc}
200070be:	42a6      	cmp	r6, r4
200070c0:	d320      	bcc.n	20007104 <__b2d+0x98>
200070c2:	2100      	movs	r1, #0
200070c4:	380b      	subs	r0, #11
200070c6:	bf02      	ittt	eq
200070c8:	f045 537e 	orreq.w	r3, r5, #1065353216	; 0x3f800000
200070cc:	460a      	moveq	r2, r1
200070ce:	f443 03e0 	orreq.w	r3, r3, #7340032	; 0x700000
200070d2:	d0f0      	beq.n	200070b6 <__b2d+0x4a>
200070d4:	42b4      	cmp	r4, r6
200070d6:	f1c0 0320 	rsb	r3, r0, #32
200070da:	d919      	bls.n	20007110 <__b2d+0xa4>
200070dc:	f854 4c04 	ldr.w	r4, [r4, #-4]
200070e0:	40dc      	lsrs	r4, r3
200070e2:	4085      	lsls	r5, r0
200070e4:	fa21 fc03 	lsr.w	ip, r1, r3
200070e8:	f045 557e 	orr.w	r5, r5, #1065353216	; 0x3f800000
200070ec:	fa11 f000 	lsls.w	r0, r1, r0
200070f0:	f445 05e0 	orr.w	r5, r5, #7340032	; 0x700000
200070f4:	ea44 0200 	orr.w	r2, r4, r0
200070f8:	ea45 030c 	orr.w	r3, r5, ip
200070fc:	4610      	mov	r0, r2
200070fe:	4619      	mov	r1, r3
20007100:	e8bd 81f0 	ldmia.w	sp!, {r4, r5, r6, r7, r8, pc}
20007104:	f854 1c04 	ldr.w	r1, [r4, #-4]
20007108:	3c04      	subs	r4, #4
2000710a:	e7db      	b.n	200070c4 <__b2d+0x58>
2000710c:	2100      	movs	r1, #0
2000710e:	e7c8      	b.n	200070a2 <__b2d+0x36>
20007110:	2400      	movs	r4, #0
20007112:	e7e6      	b.n	200070e2 <__b2d+0x76>

20007114 <__ratio>:
20007114:	e92d 43f0 	stmdb	sp!, {r4, r5, r6, r7, r8, r9, lr}
20007118:	b083      	sub	sp, #12
2000711a:	460e      	mov	r6, r1
2000711c:	a901      	add	r1, sp, #4
2000711e:	4607      	mov	r7, r0
20007120:	f7ff ffa4 	bl	2000706c <__b2d>
20007124:	460d      	mov	r5, r1
20007126:	4604      	mov	r4, r0
20007128:	4669      	mov	r1, sp
2000712a:	4630      	mov	r0, r6
2000712c:	f7ff ff9e 	bl	2000706c <__b2d>
20007130:	f8dd c004 	ldr.w	ip, [sp, #4]
20007134:	46a9      	mov	r9, r5
20007136:	46a0      	mov	r8, r4
20007138:	460b      	mov	r3, r1
2000713a:	4602      	mov	r2, r0
2000713c:	6931      	ldr	r1, [r6, #16]
2000713e:	4616      	mov	r6, r2
20007140:	6938      	ldr	r0, [r7, #16]
20007142:	461f      	mov	r7, r3
20007144:	1a40      	subs	r0, r0, r1
20007146:	9900      	ldr	r1, [sp, #0]
20007148:	ebc1 010c 	rsb	r1, r1, ip
2000714c:	eb01 1140 	add.w	r1, r1, r0, lsl #5
20007150:	2900      	cmp	r1, #0
20007152:	bfc9      	itett	gt
20007154:	eb05 5901 	addgt.w	r9, r5, r1, lsl #20
20007158:	eba3 5701 	suble.w	r7, r3, r1, lsl #20
2000715c:	4624      	movgt	r4, r4
2000715e:	464d      	movgt	r5, r9
20007160:	bfdc      	itt	le
20007162:	4612      	movle	r2, r2
20007164:	463b      	movle	r3, r7
20007166:	4620      	mov	r0, r4
20007168:	4629      	mov	r1, r5
2000716a:	f001 fc25 	bl	200089b8 <__aeabi_ddiv>
2000716e:	b003      	add	sp, #12
20007170:	e8bd 83f0 	ldmia.w	sp!, {r4, r5, r6, r7, r8, r9, pc}

20007174 <_mprec_log10>:
20007174:	2817      	cmp	r0, #23
20007176:	b510      	push	{r4, lr}
20007178:	4604      	mov	r4, r0
2000717a:	dd0e      	ble.n	2000719a <_mprec_log10+0x26>
2000717c:	f240 0100 	movw	r1, #0
20007180:	2000      	movs	r0, #0
20007182:	f6c3 71f0 	movt	r1, #16368	; 0x3ff0
20007186:	f240 0300 	movw	r3, #0
2000718a:	2200      	movs	r2, #0
2000718c:	f2c4 0324 	movt	r3, #16420	; 0x4024
20007190:	f001 fae8 	bl	20008764 <__aeabi_dmul>
20007194:	3c01      	subs	r4, #1
20007196:	d1f6      	bne.n	20007186 <_mprec_log10+0x12>
20007198:	bd10      	pop	{r4, pc}
2000719a:	f249 7328 	movw	r3, #38696	; 0x9728
2000719e:	f2c2 0300 	movt	r3, #8192	; 0x2000
200071a2:	eb03 03c0 	add.w	r3, r3, r0, lsl #3
200071a6:	e9d3 0100 	ldrd	r0, r1, [r3]
200071aa:	bd10      	pop	{r4, pc}

200071ac <__copybits>:
200071ac:	6913      	ldr	r3, [r2, #16]
200071ae:	3901      	subs	r1, #1
200071b0:	f102 0c14 	add.w	ip, r2, #20
200071b4:	b410      	push	{r4}
200071b6:	eb02 0283 	add.w	r2, r2, r3, lsl #2
200071ba:	114c      	asrs	r4, r1, #5
200071bc:	3214      	adds	r2, #20
200071be:	3401      	adds	r4, #1
200071c0:	4594      	cmp	ip, r2
200071c2:	eb00 0484 	add.w	r4, r0, r4, lsl #2
200071c6:	d20f      	bcs.n	200071e8 <__copybits+0x3c>
200071c8:	2300      	movs	r3, #0
200071ca:	f85c 1003 	ldr.w	r1, [ip, r3]
200071ce:	50c1      	str	r1, [r0, r3]
200071d0:	3304      	adds	r3, #4
200071d2:	eb03 010c 	add.w	r1, r3, ip
200071d6:	428a      	cmp	r2, r1
200071d8:	d8f7      	bhi.n	200071ca <__copybits+0x1e>
200071da:	ea6f 0c0c 	mvn.w	ip, ip
200071de:	4462      	add	r2, ip
200071e0:	f022 0203 	bic.w	r2, r2, #3
200071e4:	3204      	adds	r2, #4
200071e6:	1880      	adds	r0, r0, r2
200071e8:	4284      	cmp	r4, r0
200071ea:	d904      	bls.n	200071f6 <__copybits+0x4a>
200071ec:	2300      	movs	r3, #0
200071ee:	f840 3b04 	str.w	r3, [r0], #4
200071f2:	4284      	cmp	r4, r0
200071f4:	d8fb      	bhi.n	200071ee <__copybits+0x42>
200071f6:	bc10      	pop	{r4}
200071f8:	4770      	bx	lr
200071fa:	bf00      	nop

200071fc <__any_on>:
200071fc:	6902      	ldr	r2, [r0, #16]
200071fe:	114b      	asrs	r3, r1, #5
20007200:	429a      	cmp	r2, r3
20007202:	db10      	blt.n	20007226 <__any_on+0x2a>
20007204:	dd0e      	ble.n	20007224 <__any_on+0x28>
20007206:	f011 011f 	ands.w	r1, r1, #31
2000720a:	d00b      	beq.n	20007224 <__any_on+0x28>
2000720c:	461a      	mov	r2, r3
2000720e:	eb00 0383 	add.w	r3, r0, r3, lsl #2
20007212:	695b      	ldr	r3, [r3, #20]
20007214:	fa23 fc01 	lsr.w	ip, r3, r1
20007218:	fa0c f101 	lsl.w	r1, ip, r1
2000721c:	4299      	cmp	r1, r3
2000721e:	d002      	beq.n	20007226 <__any_on+0x2a>
20007220:	2001      	movs	r0, #1
20007222:	4770      	bx	lr
20007224:	461a      	mov	r2, r3
20007226:	3204      	adds	r2, #4
20007228:	f100 0114 	add.w	r1, r0, #20
2000722c:	eb00 0382 	add.w	r3, r0, r2, lsl #2
20007230:	f103 0c04 	add.w	ip, r3, #4
20007234:	4561      	cmp	r1, ip
20007236:	d20b      	bcs.n	20007250 <__any_on+0x54>
20007238:	f850 2022 	ldr.w	r2, [r0, r2, lsl #2]
2000723c:	2a00      	cmp	r2, #0
2000723e:	d1ef      	bne.n	20007220 <__any_on+0x24>
20007240:	4299      	cmp	r1, r3
20007242:	d205      	bcs.n	20007250 <__any_on+0x54>
20007244:	f853 2d04 	ldr.w	r2, [r3, #-4]!
20007248:	2a00      	cmp	r2, #0
2000724a:	d1e9      	bne.n	20007220 <__any_on+0x24>
2000724c:	4299      	cmp	r1, r3
2000724e:	d3f9      	bcc.n	20007244 <__any_on+0x48>
20007250:	2000      	movs	r0, #0
20007252:	4770      	bx	lr

20007254 <_Bfree>:
20007254:	b530      	push	{r4, r5, lr}
20007256:	6a45      	ldr	r5, [r0, #36]	; 0x24
20007258:	b083      	sub	sp, #12
2000725a:	4604      	mov	r4, r0
2000725c:	b155      	cbz	r5, 20007274 <_Bfree+0x20>
2000725e:	b139      	cbz	r1, 20007270 <_Bfree+0x1c>
20007260:	6a63      	ldr	r3, [r4, #36]	; 0x24
20007262:	684a      	ldr	r2, [r1, #4]
20007264:	68db      	ldr	r3, [r3, #12]
20007266:	f853 0022 	ldr.w	r0, [r3, r2, lsl #2]
2000726a:	6008      	str	r0, [r1, #0]
2000726c:	f843 1022 	str.w	r1, [r3, r2, lsl #2]
20007270:	b003      	add	sp, #12
20007272:	bd30      	pop	{r4, r5, pc}
20007274:	2010      	movs	r0, #16
20007276:	9101      	str	r1, [sp, #4]
20007278:	f7ff fa24 	bl	200066c4 <malloc>
2000727c:	9901      	ldr	r1, [sp, #4]
2000727e:	6260      	str	r0, [r4, #36]	; 0x24
20007280:	60c5      	str	r5, [r0, #12]
20007282:	6045      	str	r5, [r0, #4]
20007284:	6085      	str	r5, [r0, #8]
20007286:	6005      	str	r5, [r0, #0]
20007288:	e7e9      	b.n	2000725e <_Bfree+0xa>
2000728a:	bf00      	nop

2000728c <_Balloc>:
2000728c:	b570      	push	{r4, r5, r6, lr}
2000728e:	6a44      	ldr	r4, [r0, #36]	; 0x24
20007290:	4606      	mov	r6, r0
20007292:	460d      	mov	r5, r1
20007294:	b164      	cbz	r4, 200072b0 <_Balloc+0x24>
20007296:	68e2      	ldr	r2, [r4, #12]
20007298:	b1a2      	cbz	r2, 200072c4 <_Balloc+0x38>
2000729a:	f852 3025 	ldr.w	r3, [r2, r5, lsl #2]
2000729e:	b1eb      	cbz	r3, 200072dc <_Balloc+0x50>
200072a0:	6819      	ldr	r1, [r3, #0]
200072a2:	f842 1025 	str.w	r1, [r2, r5, lsl #2]
200072a6:	2200      	movs	r2, #0
200072a8:	60da      	str	r2, [r3, #12]
200072aa:	611a      	str	r2, [r3, #16]
200072ac:	4618      	mov	r0, r3
200072ae:	bd70      	pop	{r4, r5, r6, pc}
200072b0:	2010      	movs	r0, #16
200072b2:	f7ff fa07 	bl	200066c4 <malloc>
200072b6:	2300      	movs	r3, #0
200072b8:	4604      	mov	r4, r0
200072ba:	6270      	str	r0, [r6, #36]	; 0x24
200072bc:	60c3      	str	r3, [r0, #12]
200072be:	6043      	str	r3, [r0, #4]
200072c0:	6083      	str	r3, [r0, #8]
200072c2:	6003      	str	r3, [r0, #0]
200072c4:	2210      	movs	r2, #16
200072c6:	4630      	mov	r0, r6
200072c8:	2104      	movs	r1, #4
200072ca:	f000 fe57 	bl	20007f7c <_calloc_r>
200072ce:	6a73      	ldr	r3, [r6, #36]	; 0x24
200072d0:	60e0      	str	r0, [r4, #12]
200072d2:	68da      	ldr	r2, [r3, #12]
200072d4:	2a00      	cmp	r2, #0
200072d6:	d1e0      	bne.n	2000729a <_Balloc+0xe>
200072d8:	4613      	mov	r3, r2
200072da:	e7e7      	b.n	200072ac <_Balloc+0x20>
200072dc:	2401      	movs	r4, #1
200072de:	4630      	mov	r0, r6
200072e0:	4621      	mov	r1, r4
200072e2:	40ac      	lsls	r4, r5
200072e4:	1d62      	adds	r2, r4, #5
200072e6:	0092      	lsls	r2, r2, #2
200072e8:	f000 fe48 	bl	20007f7c <_calloc_r>
200072ec:	4603      	mov	r3, r0
200072ee:	2800      	cmp	r0, #0
200072f0:	d0dc      	beq.n	200072ac <_Balloc+0x20>
200072f2:	6045      	str	r5, [r0, #4]
200072f4:	6084      	str	r4, [r0, #8]
200072f6:	e7d6      	b.n	200072a6 <_Balloc+0x1a>

200072f8 <__d2b>:
200072f8:	e92d 45f0 	stmdb	sp!, {r4, r5, r6, r7, r8, sl, lr}
200072fc:	b083      	sub	sp, #12
200072fe:	2101      	movs	r1, #1
20007300:	461d      	mov	r5, r3
20007302:	4614      	mov	r4, r2
20007304:	9f0a      	ldr	r7, [sp, #40]	; 0x28
20007306:	9e0b      	ldr	r6, [sp, #44]	; 0x2c
20007308:	f7ff ffc0 	bl	2000728c <_Balloc>
2000730c:	f025 4200 	bic.w	r2, r5, #2147483648	; 0x80000000
20007310:	f025 437f 	bic.w	r3, r5, #4278190080	; 0xff000000
20007314:	f423 0370 	bic.w	r3, r3, #15728640	; 0xf00000
20007318:	4615      	mov	r5, r2
2000731a:	ea5f 5a12 	movs.w	sl, r2, lsr #20
2000731e:	9300      	str	r3, [sp, #0]
20007320:	bf1c      	itt	ne
20007322:	f443 1380 	orrne.w	r3, r3, #1048576	; 0x100000
20007326:	9300      	strne	r3, [sp, #0]
20007328:	4680      	mov	r8, r0
2000732a:	2c00      	cmp	r4, #0
2000732c:	d023      	beq.n	20007376 <__d2b+0x7e>
2000732e:	a802      	add	r0, sp, #8
20007330:	f840 4d04 	str.w	r4, [r0, #-4]!
20007334:	f7ff fe22 	bl	20006f7c <__lo0bits>
20007338:	4603      	mov	r3, r0
2000733a:	2800      	cmp	r0, #0
2000733c:	d137      	bne.n	200073ae <__d2b+0xb6>
2000733e:	9901      	ldr	r1, [sp, #4]
20007340:	9a00      	ldr	r2, [sp, #0]
20007342:	f8c8 1014 	str.w	r1, [r8, #20]
20007346:	2a00      	cmp	r2, #0
20007348:	bf14      	ite	ne
2000734a:	2402      	movne	r4, #2
2000734c:	2401      	moveq	r4, #1
2000734e:	f8c8 2018 	str.w	r2, [r8, #24]
20007352:	f8c8 4010 	str.w	r4, [r8, #16]
20007356:	f1ba 0f00 	cmp.w	sl, #0
2000735a:	d01b      	beq.n	20007394 <__d2b+0x9c>
2000735c:	f5aa 6a86 	sub.w	sl, sl, #1072	; 0x430
20007360:	f1c3 0235 	rsb	r2, r3, #53	; 0x35
20007364:	f1aa 0a03 	sub.w	sl, sl, #3
20007368:	4453      	add	r3, sl
2000736a:	603b      	str	r3, [r7, #0]
2000736c:	6032      	str	r2, [r6, #0]
2000736e:	4640      	mov	r0, r8
20007370:	b003      	add	sp, #12
20007372:	e8bd 85f0 	ldmia.w	sp!, {r4, r5, r6, r7, r8, sl, pc}
20007376:	4668      	mov	r0, sp
20007378:	f7ff fe00 	bl	20006f7c <__lo0bits>
2000737c:	2301      	movs	r3, #1
2000737e:	461c      	mov	r4, r3
20007380:	f8c8 3010 	str.w	r3, [r8, #16]
20007384:	9b00      	ldr	r3, [sp, #0]
20007386:	f8c8 3014 	str.w	r3, [r8, #20]
2000738a:	f100 0320 	add.w	r3, r0, #32
2000738e:	f1ba 0f00 	cmp.w	sl, #0
20007392:	d1e3      	bne.n	2000735c <__d2b+0x64>
20007394:	eb08 0284 	add.w	r2, r8, r4, lsl #2
20007398:	f5a3 6386 	sub.w	r3, r3, #1072	; 0x430
2000739c:	3b02      	subs	r3, #2
2000739e:	603b      	str	r3, [r7, #0]
200073a0:	6910      	ldr	r0, [r2, #16]
200073a2:	f7ff fdcb 	bl	20006f3c <__hi0bits>
200073a6:	ebc0 1044 	rsb	r0, r0, r4, lsl #5
200073aa:	6030      	str	r0, [r6, #0]
200073ac:	e7df      	b.n	2000736e <__d2b+0x76>
200073ae:	9a00      	ldr	r2, [sp, #0]
200073b0:	f1c0 0120 	rsb	r1, r0, #32
200073b4:	fa12 f101 	lsls.w	r1, r2, r1
200073b8:	40c2      	lsrs	r2, r0
200073ba:	9801      	ldr	r0, [sp, #4]
200073bc:	4301      	orrs	r1, r0
200073be:	f8c8 1014 	str.w	r1, [r8, #20]
200073c2:	9200      	str	r2, [sp, #0]
200073c4:	e7bf      	b.n	20007346 <__d2b+0x4e>
200073c6:	bf00      	nop

200073c8 <__mdiff>:
200073c8:	e92d 4ff8 	stmdb	sp!, {r3, r4, r5, r6, r7, r8, r9, sl, fp, lr}
200073cc:	6913      	ldr	r3, [r2, #16]
200073ce:	690f      	ldr	r7, [r1, #16]
200073d0:	460c      	mov	r4, r1
200073d2:	4615      	mov	r5, r2
200073d4:	1aff      	subs	r7, r7, r3
200073d6:	2f00      	cmp	r7, #0
200073d8:	d04f      	beq.n	2000747a <__mdiff+0xb2>
200073da:	db6a      	blt.n	200074b2 <__mdiff+0xea>
200073dc:	2700      	movs	r7, #0
200073de:	f101 0614 	add.w	r6, r1, #20
200073e2:	6861      	ldr	r1, [r4, #4]
200073e4:	f7ff ff52 	bl	2000728c <_Balloc>
200073e8:	f8d5 8010 	ldr.w	r8, [r5, #16]
200073ec:	f8d4 c010 	ldr.w	ip, [r4, #16]
200073f0:	f105 0114 	add.w	r1, r5, #20
200073f4:	2200      	movs	r2, #0
200073f6:	eb05 0588 	add.w	r5, r5, r8, lsl #2
200073fa:	eb04 048c 	add.w	r4, r4, ip, lsl #2
200073fe:	f105 0814 	add.w	r8, r5, #20
20007402:	3414      	adds	r4, #20
20007404:	f100 0314 	add.w	r3, r0, #20
20007408:	60c7      	str	r7, [r0, #12]
2000740a:	f851 7b04 	ldr.w	r7, [r1], #4
2000740e:	f856 5b04 	ldr.w	r5, [r6], #4
20007412:	46bb      	mov	fp, r7
20007414:	fa1f fa87 	uxth.w	sl, r7
20007418:	0c3f      	lsrs	r7, r7, #16
2000741a:	fa1f f985 	uxth.w	r9, r5
2000741e:	ebc7 4715 	rsb	r7, r7, r5, lsr #16
20007422:	ebca 0a09 	rsb	sl, sl, r9
20007426:	4452      	add	r2, sl
20007428:	eb07 4722 	add.w	r7, r7, r2, asr #16
2000742c:	b292      	uxth	r2, r2
2000742e:	ea42 4207 	orr.w	r2, r2, r7, lsl #16
20007432:	f843 2b04 	str.w	r2, [r3], #4
20007436:	143a      	asrs	r2, r7, #16
20007438:	4588      	cmp	r8, r1
2000743a:	d8e6      	bhi.n	2000740a <__mdiff+0x42>
2000743c:	42a6      	cmp	r6, r4
2000743e:	d20e      	bcs.n	2000745e <__mdiff+0x96>
20007440:	f856 1b04 	ldr.w	r1, [r6], #4
20007444:	b28d      	uxth	r5, r1
20007446:	0c09      	lsrs	r1, r1, #16
20007448:	1952      	adds	r2, r2, r5
2000744a:	eb01 4122 	add.w	r1, r1, r2, asr #16
2000744e:	b292      	uxth	r2, r2
20007450:	ea42 4201 	orr.w	r2, r2, r1, lsl #16
20007454:	f843 2b04 	str.w	r2, [r3], #4
20007458:	140a      	asrs	r2, r1, #16
2000745a:	42b4      	cmp	r4, r6
2000745c:	d8f0      	bhi.n	20007440 <__mdiff+0x78>
2000745e:	f853 2c04 	ldr.w	r2, [r3, #-4]
20007462:	b932      	cbnz	r2, 20007472 <__mdiff+0xaa>
20007464:	f853 2c08 	ldr.w	r2, [r3, #-8]
20007468:	f10c 3cff 	add.w	ip, ip, #4294967295
2000746c:	3b04      	subs	r3, #4
2000746e:	2a00      	cmp	r2, #0
20007470:	d0f8      	beq.n	20007464 <__mdiff+0x9c>
20007472:	f8c0 c010 	str.w	ip, [r0, #16]
20007476:	e8bd 8ff8 	ldmia.w	sp!, {r3, r4, r5, r6, r7, r8, r9, sl, fp, pc}
2000747a:	3304      	adds	r3, #4
2000747c:	f101 0614 	add.w	r6, r1, #20
20007480:	009b      	lsls	r3, r3, #2
20007482:	18d2      	adds	r2, r2, r3
20007484:	18cb      	adds	r3, r1, r3
20007486:	3304      	adds	r3, #4
20007488:	3204      	adds	r2, #4
2000748a:	f853 cc04 	ldr.w	ip, [r3, #-4]
2000748e:	3b04      	subs	r3, #4
20007490:	f852 1c04 	ldr.w	r1, [r2, #-4]
20007494:	3a04      	subs	r2, #4
20007496:	458c      	cmp	ip, r1
20007498:	d10a      	bne.n	200074b0 <__mdiff+0xe8>
2000749a:	429e      	cmp	r6, r3
2000749c:	d3f5      	bcc.n	2000748a <__mdiff+0xc2>
2000749e:	2100      	movs	r1, #0
200074a0:	f7ff fef4 	bl	2000728c <_Balloc>
200074a4:	2301      	movs	r3, #1
200074a6:	6103      	str	r3, [r0, #16]
200074a8:	2300      	movs	r3, #0
200074aa:	6143      	str	r3, [r0, #20]
200074ac:	e8bd 8ff8 	ldmia.w	sp!, {r3, r4, r5, r6, r7, r8, r9, sl, fp, pc}
200074b0:	d297      	bcs.n	200073e2 <__mdiff+0x1a>
200074b2:	4623      	mov	r3, r4
200074b4:	462c      	mov	r4, r5
200074b6:	2701      	movs	r7, #1
200074b8:	461d      	mov	r5, r3
200074ba:	f104 0614 	add.w	r6, r4, #20
200074be:	e790      	b.n	200073e2 <__mdiff+0x1a>

200074c0 <__lshift>:
200074c0:	e92d 45f8 	stmdb	sp!, {r3, r4, r5, r6, r7, r8, sl, lr}
200074c4:	690d      	ldr	r5, [r1, #16]
200074c6:	688b      	ldr	r3, [r1, #8]
200074c8:	1156      	asrs	r6, r2, #5
200074ca:	3501      	adds	r5, #1
200074cc:	460c      	mov	r4, r1
200074ce:	19ad      	adds	r5, r5, r6
200074d0:	4690      	mov	r8, r2
200074d2:	429d      	cmp	r5, r3
200074d4:	4682      	mov	sl, r0
200074d6:	6849      	ldr	r1, [r1, #4]
200074d8:	dd03      	ble.n	200074e2 <__lshift+0x22>
200074da:	005b      	lsls	r3, r3, #1
200074dc:	3101      	adds	r1, #1
200074de:	429d      	cmp	r5, r3
200074e0:	dcfb      	bgt.n	200074da <__lshift+0x1a>
200074e2:	4650      	mov	r0, sl
200074e4:	f7ff fed2 	bl	2000728c <_Balloc>
200074e8:	2e00      	cmp	r6, #0
200074ea:	4607      	mov	r7, r0
200074ec:	f100 0214 	add.w	r2, r0, #20
200074f0:	dd0a      	ble.n	20007508 <__lshift+0x48>
200074f2:	2300      	movs	r3, #0
200074f4:	4619      	mov	r1, r3
200074f6:	f842 1023 	str.w	r1, [r2, r3, lsl #2]
200074fa:	3301      	adds	r3, #1
200074fc:	42b3      	cmp	r3, r6
200074fe:	d1fa      	bne.n	200074f6 <__lshift+0x36>
20007500:	eb07 0383 	add.w	r3, r7, r3, lsl #2
20007504:	f103 0214 	add.w	r2, r3, #20
20007508:	6920      	ldr	r0, [r4, #16]
2000750a:	f104 0314 	add.w	r3, r4, #20
2000750e:	eb04 0080 	add.w	r0, r4, r0, lsl #2
20007512:	3014      	adds	r0, #20
20007514:	f018 081f 	ands.w	r8, r8, #31
20007518:	d01b      	beq.n	20007552 <__lshift+0x92>
2000751a:	f1c8 0e20 	rsb	lr, r8, #32
2000751e:	2100      	movs	r1, #0
20007520:	681e      	ldr	r6, [r3, #0]
20007522:	fa06 fc08 	lsl.w	ip, r6, r8
20007526:	ea41 010c 	orr.w	r1, r1, ip
2000752a:	f842 1b04 	str.w	r1, [r2], #4
2000752e:	f853 1b04 	ldr.w	r1, [r3], #4
20007532:	4298      	cmp	r0, r3
20007534:	fa21 f10e 	lsr.w	r1, r1, lr
20007538:	d8f2      	bhi.n	20007520 <__lshift+0x60>
2000753a:	6011      	str	r1, [r2, #0]
2000753c:	b101      	cbz	r1, 20007540 <__lshift+0x80>
2000753e:	3501      	adds	r5, #1
20007540:	4650      	mov	r0, sl
20007542:	3d01      	subs	r5, #1
20007544:	4621      	mov	r1, r4
20007546:	613d      	str	r5, [r7, #16]
20007548:	f7ff fe84 	bl	20007254 <_Bfree>
2000754c:	4638      	mov	r0, r7
2000754e:	e8bd 85f8 	ldmia.w	sp!, {r3, r4, r5, r6, r7, r8, sl, pc}
20007552:	f853 1008 	ldr.w	r1, [r3, r8]
20007556:	f842 1008 	str.w	r1, [r2, r8]
2000755a:	f108 0804 	add.w	r8, r8, #4
2000755e:	eb08 0103 	add.w	r1, r8, r3
20007562:	4288      	cmp	r0, r1
20007564:	d9ec      	bls.n	20007540 <__lshift+0x80>
20007566:	f853 1008 	ldr.w	r1, [r3, r8]
2000756a:	f842 1008 	str.w	r1, [r2, r8]
2000756e:	f108 0804 	add.w	r8, r8, #4
20007572:	eb08 0103 	add.w	r1, r8, r3
20007576:	4288      	cmp	r0, r1
20007578:	d8eb      	bhi.n	20007552 <__lshift+0x92>
2000757a:	e7e1      	b.n	20007540 <__lshift+0x80>

2000757c <__multiply>:
2000757c:	e92d 4ff0 	stmdb	sp!, {r4, r5, r6, r7, r8, r9, sl, fp, lr}
20007580:	f8d1 8010 	ldr.w	r8, [r1, #16]
20007584:	6917      	ldr	r7, [r2, #16]
20007586:	460d      	mov	r5, r1
20007588:	4616      	mov	r6, r2
2000758a:	b087      	sub	sp, #28
2000758c:	45b8      	cmp	r8, r7
2000758e:	bfb5      	itete	lt
20007590:	4615      	movlt	r5, r2
20007592:	463b      	movge	r3, r7
20007594:	460b      	movlt	r3, r1
20007596:	4647      	movge	r7, r8
20007598:	bfb4      	ite	lt
2000759a:	461e      	movlt	r6, r3
2000759c:	4698      	movge	r8, r3
2000759e:	68ab      	ldr	r3, [r5, #8]
200075a0:	eb08 0407 	add.w	r4, r8, r7
200075a4:	6869      	ldr	r1, [r5, #4]
200075a6:	429c      	cmp	r4, r3
200075a8:	bfc8      	it	gt
200075aa:	3101      	addgt	r1, #1
200075ac:	f7ff fe6e 	bl	2000728c <_Balloc>
200075b0:	eb00 0384 	add.w	r3, r0, r4, lsl #2
200075b4:	f100 0b14 	add.w	fp, r0, #20
200075b8:	3314      	adds	r3, #20
200075ba:	9003      	str	r0, [sp, #12]
200075bc:	459b      	cmp	fp, r3
200075be:	9304      	str	r3, [sp, #16]
200075c0:	d206      	bcs.n	200075d0 <__multiply+0x54>
200075c2:	9904      	ldr	r1, [sp, #16]
200075c4:	465b      	mov	r3, fp
200075c6:	2200      	movs	r2, #0
200075c8:	f843 2b04 	str.w	r2, [r3], #4
200075cc:	4299      	cmp	r1, r3
200075ce:	d8fb      	bhi.n	200075c8 <__multiply+0x4c>
200075d0:	eb06 0888 	add.w	r8, r6, r8, lsl #2
200075d4:	f106 0914 	add.w	r9, r6, #20
200075d8:	f108 0814 	add.w	r8, r8, #20
200075dc:	eb05 0c87 	add.w	ip, r5, r7, lsl #2
200075e0:	3514      	adds	r5, #20
200075e2:	45c1      	cmp	r9, r8
200075e4:	f8cd 8004 	str.w	r8, [sp, #4]
200075e8:	f10c 0c14 	add.w	ip, ip, #20
200075ec:	9502      	str	r5, [sp, #8]
200075ee:	d24b      	bcs.n	20007688 <__multiply+0x10c>
200075f0:	f04f 0a00 	mov.w	sl, #0
200075f4:	9405      	str	r4, [sp, #20]
200075f6:	f859 400a 	ldr.w	r4, [r9, sl]
200075fa:	eb0a 080b 	add.w	r8, sl, fp
200075fe:	b2a0      	uxth	r0, r4
20007600:	b1d8      	cbz	r0, 2000763a <__multiply+0xbe>
20007602:	9a02      	ldr	r2, [sp, #8]
20007604:	4643      	mov	r3, r8
20007606:	2400      	movs	r4, #0
20007608:	f852 5b04 	ldr.w	r5, [r2], #4
2000760c:	6819      	ldr	r1, [r3, #0]
2000760e:	b2af      	uxth	r7, r5
20007610:	0c2d      	lsrs	r5, r5, #16
20007612:	b28e      	uxth	r6, r1
20007614:	0c09      	lsrs	r1, r1, #16
20007616:	fb00 6607 	mla	r6, r0, r7, r6
2000761a:	fb00 1105 	mla	r1, r0, r5, r1
2000761e:	1936      	adds	r6, r6, r4
20007620:	eb01 4116 	add.w	r1, r1, r6, lsr #16
20007624:	b2b6      	uxth	r6, r6
20007626:	0c0c      	lsrs	r4, r1, #16
20007628:	4594      	cmp	ip, r2
2000762a:	ea46 4601 	orr.w	r6, r6, r1, lsl #16
2000762e:	f843 6b04 	str.w	r6, [r3], #4
20007632:	d8e9      	bhi.n	20007608 <__multiply+0x8c>
20007634:	601c      	str	r4, [r3, #0]
20007636:	f859 400a 	ldr.w	r4, [r9, sl]
2000763a:	0c24      	lsrs	r4, r4, #16
2000763c:	d01c      	beq.n	20007678 <__multiply+0xfc>
2000763e:	f85b 200a 	ldr.w	r2, [fp, sl]
20007642:	4641      	mov	r1, r8
20007644:	9b02      	ldr	r3, [sp, #8]
20007646:	2500      	movs	r5, #0
20007648:	4610      	mov	r0, r2
2000764a:	881e      	ldrh	r6, [r3, #0]
2000764c:	b297      	uxth	r7, r2
2000764e:	fb06 5504 	mla	r5, r6, r4, r5
20007652:	eb05 4510 	add.w	r5, r5, r0, lsr #16
20007656:	ea47 4705 	orr.w	r7, r7, r5, lsl #16
2000765a:	600f      	str	r7, [r1, #0]
2000765c:	f851 0f04 	ldr.w	r0, [r1, #4]!
20007660:	f853 2b04 	ldr.w	r2, [r3], #4
20007664:	b286      	uxth	r6, r0
20007666:	0c12      	lsrs	r2, r2, #16
20007668:	fb02 6204 	mla	r2, r2, r4, r6
2000766c:	eb02 4215 	add.w	r2, r2, r5, lsr #16
20007670:	0c15      	lsrs	r5, r2, #16
20007672:	459c      	cmp	ip, r3
20007674:	d8e9      	bhi.n	2000764a <__multiply+0xce>
20007676:	600a      	str	r2, [r1, #0]
20007678:	f10a 0a04 	add.w	sl, sl, #4
2000767c:	9a01      	ldr	r2, [sp, #4]
2000767e:	eb0a 0309 	add.w	r3, sl, r9
20007682:	429a      	cmp	r2, r3
20007684:	d8b7      	bhi.n	200075f6 <__multiply+0x7a>
20007686:	9c05      	ldr	r4, [sp, #20]
20007688:	2c00      	cmp	r4, #0
2000768a:	dd0b      	ble.n	200076a4 <__multiply+0x128>
2000768c:	9a04      	ldr	r2, [sp, #16]
2000768e:	f852 3c04 	ldr.w	r3, [r2, #-4]
20007692:	b93b      	cbnz	r3, 200076a4 <__multiply+0x128>
20007694:	4613      	mov	r3, r2
20007696:	e003      	b.n	200076a0 <__multiply+0x124>
20007698:	f853 2c08 	ldr.w	r2, [r3, #-8]
2000769c:	3b04      	subs	r3, #4
2000769e:	b90a      	cbnz	r2, 200076a4 <__multiply+0x128>
200076a0:	3c01      	subs	r4, #1
200076a2:	d1f9      	bne.n	20007698 <__multiply+0x11c>
200076a4:	9b03      	ldr	r3, [sp, #12]
200076a6:	4618      	mov	r0, r3
200076a8:	611c      	str	r4, [r3, #16]
200076aa:	b007      	add	sp, #28
200076ac:	e8bd 8ff0 	ldmia.w	sp!, {r4, r5, r6, r7, r8, r9, sl, fp, pc}

200076b0 <__i2b>:
200076b0:	b510      	push	{r4, lr}
200076b2:	460c      	mov	r4, r1
200076b4:	2101      	movs	r1, #1
200076b6:	f7ff fde9 	bl	2000728c <_Balloc>
200076ba:	2201      	movs	r2, #1
200076bc:	6144      	str	r4, [r0, #20]
200076be:	6102      	str	r2, [r0, #16]
200076c0:	bd10      	pop	{r4, pc}
200076c2:	bf00      	nop

200076c4 <__multadd>:
200076c4:	e92d 45f0 	stmdb	sp!, {r4, r5, r6, r7, r8, sl, lr}
200076c8:	460d      	mov	r5, r1
200076ca:	2100      	movs	r1, #0
200076cc:	4606      	mov	r6, r0
200076ce:	692c      	ldr	r4, [r5, #16]
200076d0:	b083      	sub	sp, #12
200076d2:	f105 0814 	add.w	r8, r5, #20
200076d6:	4608      	mov	r0, r1
200076d8:	f858 7001 	ldr.w	r7, [r8, r1]
200076dc:	3001      	adds	r0, #1
200076de:	fa1f fa87 	uxth.w	sl, r7
200076e2:	ea4f 4c17 	mov.w	ip, r7, lsr #16
200076e6:	fb0a 3302 	mla	r3, sl, r2, r3
200076ea:	fb0c fc02 	mul.w	ip, ip, r2
200076ee:	eb0c 4c13 	add.w	ip, ip, r3, lsr #16
200076f2:	b29b      	uxth	r3, r3
200076f4:	eb03 430c 	add.w	r3, r3, ip, lsl #16
200076f8:	f848 3001 	str.w	r3, [r8, r1]
200076fc:	3104      	adds	r1, #4
200076fe:	4284      	cmp	r4, r0
20007700:	ea4f 431c 	mov.w	r3, ip, lsr #16
20007704:	dce8      	bgt.n	200076d8 <__multadd+0x14>
20007706:	b13b      	cbz	r3, 20007718 <__multadd+0x54>
20007708:	68aa      	ldr	r2, [r5, #8]
2000770a:	4294      	cmp	r4, r2
2000770c:	da08      	bge.n	20007720 <__multadd+0x5c>
2000770e:	eb05 0284 	add.w	r2, r5, r4, lsl #2
20007712:	3401      	adds	r4, #1
20007714:	612c      	str	r4, [r5, #16]
20007716:	6153      	str	r3, [r2, #20]
20007718:	4628      	mov	r0, r5
2000771a:	b003      	add	sp, #12
2000771c:	e8bd 85f0 	ldmia.w	sp!, {r4, r5, r6, r7, r8, sl, pc}
20007720:	6869      	ldr	r1, [r5, #4]
20007722:	4630      	mov	r0, r6
20007724:	9301      	str	r3, [sp, #4]
20007726:	3101      	adds	r1, #1
20007728:	f7ff fdb0 	bl	2000728c <_Balloc>
2000772c:	692a      	ldr	r2, [r5, #16]
2000772e:	f105 010c 	add.w	r1, r5, #12
20007732:	3202      	adds	r2, #2
20007734:	0092      	lsls	r2, r2, #2
20007736:	4607      	mov	r7, r0
20007738:	300c      	adds	r0, #12
2000773a:	f7ff fad7 	bl	20006cec <memcpy>
2000773e:	4629      	mov	r1, r5
20007740:	4630      	mov	r0, r6
20007742:	463d      	mov	r5, r7
20007744:	f7ff fd86 	bl	20007254 <_Bfree>
20007748:	9b01      	ldr	r3, [sp, #4]
2000774a:	e7e0      	b.n	2000770e <__multadd+0x4a>

2000774c <__pow5mult>:
2000774c:	e92d 41f0 	stmdb	sp!, {r4, r5, r6, r7, r8, lr}
20007750:	4615      	mov	r5, r2
20007752:	f012 0203 	ands.w	r2, r2, #3
20007756:	4604      	mov	r4, r0
20007758:	4688      	mov	r8, r1
2000775a:	d12c      	bne.n	200077b6 <__pow5mult+0x6a>
2000775c:	10ad      	asrs	r5, r5, #2
2000775e:	d01e      	beq.n	2000779e <__pow5mult+0x52>
20007760:	6a66      	ldr	r6, [r4, #36]	; 0x24
20007762:	2e00      	cmp	r6, #0
20007764:	d034      	beq.n	200077d0 <__pow5mult+0x84>
20007766:	68b7      	ldr	r7, [r6, #8]
20007768:	2f00      	cmp	r7, #0
2000776a:	d03b      	beq.n	200077e4 <__pow5mult+0x98>
2000776c:	f015 0f01 	tst.w	r5, #1
20007770:	d108      	bne.n	20007784 <__pow5mult+0x38>
20007772:	106d      	asrs	r5, r5, #1
20007774:	d013      	beq.n	2000779e <__pow5mult+0x52>
20007776:	683e      	ldr	r6, [r7, #0]
20007778:	b1a6      	cbz	r6, 200077a4 <__pow5mult+0x58>
2000777a:	4630      	mov	r0, r6
2000777c:	4607      	mov	r7, r0
2000777e:	f015 0f01 	tst.w	r5, #1
20007782:	d0f6      	beq.n	20007772 <__pow5mult+0x26>
20007784:	4641      	mov	r1, r8
20007786:	463a      	mov	r2, r7
20007788:	4620      	mov	r0, r4
2000778a:	f7ff fef7 	bl	2000757c <__multiply>
2000778e:	4641      	mov	r1, r8
20007790:	4606      	mov	r6, r0
20007792:	4620      	mov	r0, r4
20007794:	f7ff fd5e 	bl	20007254 <_Bfree>
20007798:	106d      	asrs	r5, r5, #1
2000779a:	46b0      	mov	r8, r6
2000779c:	d1eb      	bne.n	20007776 <__pow5mult+0x2a>
2000779e:	4640      	mov	r0, r8
200077a0:	e8bd 81f0 	ldmia.w	sp!, {r4, r5, r6, r7, r8, pc}
200077a4:	4639      	mov	r1, r7
200077a6:	463a      	mov	r2, r7
200077a8:	4620      	mov	r0, r4
200077aa:	f7ff fee7 	bl	2000757c <__multiply>
200077ae:	6038      	str	r0, [r7, #0]
200077b0:	4607      	mov	r7, r0
200077b2:	6006      	str	r6, [r0, #0]
200077b4:	e7e3      	b.n	2000777e <__pow5mult+0x32>
200077b6:	f249 7c28 	movw	ip, #38696	; 0x9728
200077ba:	2300      	movs	r3, #0
200077bc:	f2c2 0c00 	movt	ip, #8192	; 0x2000
200077c0:	eb0c 0282 	add.w	r2, ip, r2, lsl #2
200077c4:	f8d2 20c4 	ldr.w	r2, [r2, #196]	; 0xc4
200077c8:	f7ff ff7c 	bl	200076c4 <__multadd>
200077cc:	4680      	mov	r8, r0
200077ce:	e7c5      	b.n	2000775c <__pow5mult+0x10>
200077d0:	2010      	movs	r0, #16
200077d2:	f7fe ff77 	bl	200066c4 <malloc>
200077d6:	2300      	movs	r3, #0
200077d8:	4606      	mov	r6, r0
200077da:	6260      	str	r0, [r4, #36]	; 0x24
200077dc:	60c3      	str	r3, [r0, #12]
200077de:	6043      	str	r3, [r0, #4]
200077e0:	6083      	str	r3, [r0, #8]
200077e2:	6003      	str	r3, [r0, #0]
200077e4:	4620      	mov	r0, r4
200077e6:	f240 2171 	movw	r1, #625	; 0x271
200077ea:	f7ff ff61 	bl	200076b0 <__i2b>
200077ee:	2300      	movs	r3, #0
200077f0:	60b0      	str	r0, [r6, #8]
200077f2:	4607      	mov	r7, r0
200077f4:	6003      	str	r3, [r0, #0]
200077f6:	e7b9      	b.n	2000776c <__pow5mult+0x20>

200077f8 <__s2b>:
200077f8:	e92d 45f8 	stmdb	sp!, {r3, r4, r5, r6, r7, r8, sl, lr}
200077fc:	461e      	mov	r6, r3
200077fe:	f648 6339 	movw	r3, #36409	; 0x8e39
20007802:	f106 0c08 	add.w	ip, r6, #8
20007806:	f6c3 03e3 	movt	r3, #14563	; 0x38e3
2000780a:	4688      	mov	r8, r1
2000780c:	4605      	mov	r5, r0
2000780e:	4617      	mov	r7, r2
20007810:	fb83 130c 	smull	r1, r3, r3, ip
20007814:	ea4f 7cec 	mov.w	ip, ip, asr #31
20007818:	ebcc 0c63 	rsb	ip, ip, r3, asr #1
2000781c:	f1bc 0f01 	cmp.w	ip, #1
20007820:	dd35      	ble.n	2000788e <__s2b+0x96>
20007822:	2100      	movs	r1, #0
20007824:	2201      	movs	r2, #1
20007826:	0052      	lsls	r2, r2, #1
20007828:	3101      	adds	r1, #1
2000782a:	4594      	cmp	ip, r2
2000782c:	dcfb      	bgt.n	20007826 <__s2b+0x2e>
2000782e:	4628      	mov	r0, r5
20007830:	f7ff fd2c 	bl	2000728c <_Balloc>
20007834:	9b08      	ldr	r3, [sp, #32]
20007836:	6143      	str	r3, [r0, #20]
20007838:	2301      	movs	r3, #1
2000783a:	2f09      	cmp	r7, #9
2000783c:	6103      	str	r3, [r0, #16]
2000783e:	dd22      	ble.n	20007886 <__s2b+0x8e>
20007840:	f108 0a09 	add.w	sl, r8, #9
20007844:	2409      	movs	r4, #9
20007846:	f818 3004 	ldrb.w	r3, [r8, r4]
2000784a:	4601      	mov	r1, r0
2000784c:	220a      	movs	r2, #10
2000784e:	3401      	adds	r4, #1
20007850:	3b30      	subs	r3, #48	; 0x30
20007852:	4628      	mov	r0, r5
20007854:	f7ff ff36 	bl	200076c4 <__multadd>
20007858:	42a7      	cmp	r7, r4
2000785a:	dcf4      	bgt.n	20007846 <__s2b+0x4e>
2000785c:	eb0a 0807 	add.w	r8, sl, r7
20007860:	f1a8 0808 	sub.w	r8, r8, #8
20007864:	42be      	cmp	r6, r7
20007866:	dd0c      	ble.n	20007882 <__s2b+0x8a>
20007868:	2400      	movs	r4, #0
2000786a:	f818 3004 	ldrb.w	r3, [r8, r4]
2000786e:	4601      	mov	r1, r0
20007870:	3401      	adds	r4, #1
20007872:	220a      	movs	r2, #10
20007874:	3b30      	subs	r3, #48	; 0x30
20007876:	4628      	mov	r0, r5
20007878:	f7ff ff24 	bl	200076c4 <__multadd>
2000787c:	19e3      	adds	r3, r4, r7
2000787e:	429e      	cmp	r6, r3
20007880:	dcf3      	bgt.n	2000786a <__s2b+0x72>
20007882:	e8bd 85f8 	ldmia.w	sp!, {r3, r4, r5, r6, r7, r8, sl, pc}
20007886:	f108 080a 	add.w	r8, r8, #10
2000788a:	2709      	movs	r7, #9
2000788c:	e7ea      	b.n	20007864 <__s2b+0x6c>
2000788e:	2100      	movs	r1, #0
20007890:	e7cd      	b.n	2000782e <__s2b+0x36>
20007892:	bf00      	nop

20007894 <_realloc_r>:
20007894:	e92d 4ff0 	stmdb	sp!, {r4, r5, r6, r7, r8, r9, sl, fp, lr}
20007898:	4691      	mov	r9, r2
2000789a:	b083      	sub	sp, #12
2000789c:	4607      	mov	r7, r0
2000789e:	460e      	mov	r6, r1
200078a0:	2900      	cmp	r1, #0
200078a2:	f000 813a 	beq.w	20007b1a <_realloc_r+0x286>
200078a6:	f1a1 0808 	sub.w	r8, r1, #8
200078aa:	f109 040b 	add.w	r4, r9, #11
200078ae:	f7ff fb41 	bl	20006f34 <__malloc_lock>
200078b2:	2c16      	cmp	r4, #22
200078b4:	f8d8 1004 	ldr.w	r1, [r8, #4]
200078b8:	460b      	mov	r3, r1
200078ba:	f200 80a0 	bhi.w	200079fe <_realloc_r+0x16a>
200078be:	2210      	movs	r2, #16
200078c0:	2500      	movs	r5, #0
200078c2:	4614      	mov	r4, r2
200078c4:	454c      	cmp	r4, r9
200078c6:	bf38      	it	cc
200078c8:	f045 0501 	orrcc.w	r5, r5, #1
200078cc:	2d00      	cmp	r5, #0
200078ce:	f040 812a 	bne.w	20007b26 <_realloc_r+0x292>
200078d2:	f021 0a03 	bic.w	sl, r1, #3
200078d6:	4592      	cmp	sl, r2
200078d8:	bfa2      	ittt	ge
200078da:	4640      	movge	r0, r8
200078dc:	4655      	movge	r5, sl
200078de:	f108 0808 	addge.w	r8, r8, #8
200078e2:	da75      	bge.n	200079d0 <_realloc_r+0x13c>
200078e4:	f649 13e0 	movw	r3, #39392	; 0x99e0
200078e8:	eb08 000a 	add.w	r0, r8, sl
200078ec:	f2c2 0300 	movt	r3, #8192	; 0x2000
200078f0:	f8d3 e008 	ldr.w	lr, [r3, #8]
200078f4:	4586      	cmp	lr, r0
200078f6:	f000 811a 	beq.w	20007b2e <_realloc_r+0x29a>
200078fa:	f8d0 c004 	ldr.w	ip, [r0, #4]
200078fe:	f02c 0b01 	bic.w	fp, ip, #1
20007902:	4483      	add	fp, r0
20007904:	f8db b004 	ldr.w	fp, [fp, #4]
20007908:	f01b 0f01 	tst.w	fp, #1
2000790c:	d07c      	beq.n	20007a08 <_realloc_r+0x174>
2000790e:	46ac      	mov	ip, r5
20007910:	4628      	mov	r0, r5
20007912:	f011 0f01 	tst.w	r1, #1
20007916:	f040 809b 	bne.w	20007a50 <_realloc_r+0x1bc>
2000791a:	f856 1c08 	ldr.w	r1, [r6, #-8]
2000791e:	ebc1 0b08 	rsb	fp, r1, r8
20007922:	f8db 5004 	ldr.w	r5, [fp, #4]
20007926:	f025 0503 	bic.w	r5, r5, #3
2000792a:	2800      	cmp	r0, #0
2000792c:	f000 80dd 	beq.w	20007aea <_realloc_r+0x256>
20007930:	4570      	cmp	r0, lr
20007932:	f000 811f 	beq.w	20007b74 <_realloc_r+0x2e0>
20007936:	eb05 030a 	add.w	r3, r5, sl
2000793a:	eb0c 0503 	add.w	r5, ip, r3
2000793e:	4295      	cmp	r5, r2
20007940:	bfb8      	it	lt
20007942:	461d      	movlt	r5, r3
20007944:	f2c0 80d2 	blt.w	20007aec <_realloc_r+0x258>
20007948:	6881      	ldr	r1, [r0, #8]
2000794a:	465b      	mov	r3, fp
2000794c:	68c0      	ldr	r0, [r0, #12]
2000794e:	f1aa 0204 	sub.w	r2, sl, #4
20007952:	2a24      	cmp	r2, #36	; 0x24
20007954:	6081      	str	r1, [r0, #8]
20007956:	60c8      	str	r0, [r1, #12]
20007958:	f853 1f08 	ldr.w	r1, [r3, #8]!
2000795c:	f8db 000c 	ldr.w	r0, [fp, #12]
20007960:	6081      	str	r1, [r0, #8]
20007962:	60c8      	str	r0, [r1, #12]
20007964:	f200 80d0 	bhi.w	20007b08 <_realloc_r+0x274>
20007968:	2a13      	cmp	r2, #19
2000796a:	469c      	mov	ip, r3
2000796c:	d921      	bls.n	200079b2 <_realloc_r+0x11e>
2000796e:	4631      	mov	r1, r6
20007970:	f10b 0c10 	add.w	ip, fp, #16
20007974:	f851 0b04 	ldr.w	r0, [r1], #4
20007978:	f8cb 0008 	str.w	r0, [fp, #8]
2000797c:	6870      	ldr	r0, [r6, #4]
2000797e:	1d0e      	adds	r6, r1, #4
20007980:	2a1b      	cmp	r2, #27
20007982:	f8cb 000c 	str.w	r0, [fp, #12]
20007986:	d914      	bls.n	200079b2 <_realloc_r+0x11e>
20007988:	6848      	ldr	r0, [r1, #4]
2000798a:	1d31      	adds	r1, r6, #4
2000798c:	f10b 0c18 	add.w	ip, fp, #24
20007990:	f8cb 0010 	str.w	r0, [fp, #16]
20007994:	6870      	ldr	r0, [r6, #4]
20007996:	1d0e      	adds	r6, r1, #4
20007998:	2a24      	cmp	r2, #36	; 0x24
2000799a:	f8cb 0014 	str.w	r0, [fp, #20]
2000799e:	d108      	bne.n	200079b2 <_realloc_r+0x11e>
200079a0:	684a      	ldr	r2, [r1, #4]
200079a2:	f10b 0c20 	add.w	ip, fp, #32
200079a6:	f8cb 2018 	str.w	r2, [fp, #24]
200079aa:	6872      	ldr	r2, [r6, #4]
200079ac:	3608      	adds	r6, #8
200079ae:	f8cb 201c 	str.w	r2, [fp, #28]
200079b2:	4631      	mov	r1, r6
200079b4:	4698      	mov	r8, r3
200079b6:	4662      	mov	r2, ip
200079b8:	4658      	mov	r0, fp
200079ba:	f851 3b04 	ldr.w	r3, [r1], #4
200079be:	f842 3b04 	str.w	r3, [r2], #4
200079c2:	6873      	ldr	r3, [r6, #4]
200079c4:	f8cc 3004 	str.w	r3, [ip, #4]
200079c8:	684b      	ldr	r3, [r1, #4]
200079ca:	6053      	str	r3, [r2, #4]
200079cc:	f8db 3004 	ldr.w	r3, [fp, #4]
200079d0:	ebc4 0c05 	rsb	ip, r4, r5
200079d4:	f1bc 0f0f 	cmp.w	ip, #15
200079d8:	d826      	bhi.n	20007a28 <_realloc_r+0x194>
200079da:	1942      	adds	r2, r0, r5
200079dc:	f003 0301 	and.w	r3, r3, #1
200079e0:	ea43 0505 	orr.w	r5, r3, r5
200079e4:	6045      	str	r5, [r0, #4]
200079e6:	6853      	ldr	r3, [r2, #4]
200079e8:	f043 0301 	orr.w	r3, r3, #1
200079ec:	6053      	str	r3, [r2, #4]
200079ee:	4638      	mov	r0, r7
200079f0:	4645      	mov	r5, r8
200079f2:	f7ff faa1 	bl	20006f38 <__malloc_unlock>
200079f6:	4628      	mov	r0, r5
200079f8:	b003      	add	sp, #12
200079fa:	e8bd 8ff0 	ldmia.w	sp!, {r4, r5, r6, r7, r8, r9, sl, fp, pc}
200079fe:	f024 0407 	bic.w	r4, r4, #7
20007a02:	4622      	mov	r2, r4
20007a04:	0fe5      	lsrs	r5, r4, #31
20007a06:	e75d      	b.n	200078c4 <_realloc_r+0x30>
20007a08:	f02c 0c03 	bic.w	ip, ip, #3
20007a0c:	eb0c 050a 	add.w	r5, ip, sl
20007a10:	4295      	cmp	r5, r2
20007a12:	f6ff af7e 	blt.w	20007912 <_realloc_r+0x7e>
20007a16:	6882      	ldr	r2, [r0, #8]
20007a18:	460b      	mov	r3, r1
20007a1a:	68c1      	ldr	r1, [r0, #12]
20007a1c:	4640      	mov	r0, r8
20007a1e:	f108 0808 	add.w	r8, r8, #8
20007a22:	608a      	str	r2, [r1, #8]
20007a24:	60d1      	str	r1, [r2, #12]
20007a26:	e7d3      	b.n	200079d0 <_realloc_r+0x13c>
20007a28:	1901      	adds	r1, r0, r4
20007a2a:	f003 0301 	and.w	r3, r3, #1
20007a2e:	eb01 020c 	add.w	r2, r1, ip
20007a32:	ea43 0404 	orr.w	r4, r3, r4
20007a36:	f04c 0301 	orr.w	r3, ip, #1
20007a3a:	6044      	str	r4, [r0, #4]
20007a3c:	604b      	str	r3, [r1, #4]
20007a3e:	4638      	mov	r0, r7
20007a40:	6853      	ldr	r3, [r2, #4]
20007a42:	3108      	adds	r1, #8
20007a44:	f043 0301 	orr.w	r3, r3, #1
20007a48:	6053      	str	r3, [r2, #4]
20007a4a:	f7fe fac1 	bl	20005fd0 <_free_r>
20007a4e:	e7ce      	b.n	200079ee <_realloc_r+0x15a>
20007a50:	4649      	mov	r1, r9
20007a52:	4638      	mov	r0, r7
20007a54:	f7fe fe3e 	bl	200066d4 <_malloc_r>
20007a58:	4605      	mov	r5, r0
20007a5a:	2800      	cmp	r0, #0
20007a5c:	d041      	beq.n	20007ae2 <_realloc_r+0x24e>
20007a5e:	f8d8 3004 	ldr.w	r3, [r8, #4]
20007a62:	f1a0 0208 	sub.w	r2, r0, #8
20007a66:	f023 0101 	bic.w	r1, r3, #1
20007a6a:	4441      	add	r1, r8
20007a6c:	428a      	cmp	r2, r1
20007a6e:	f000 80d7 	beq.w	20007c20 <_realloc_r+0x38c>
20007a72:	f1aa 0204 	sub.w	r2, sl, #4
20007a76:	4631      	mov	r1, r6
20007a78:	2a24      	cmp	r2, #36	; 0x24
20007a7a:	d878      	bhi.n	20007b6e <_realloc_r+0x2da>
20007a7c:	2a13      	cmp	r2, #19
20007a7e:	4603      	mov	r3, r0
20007a80:	d921      	bls.n	20007ac6 <_realloc_r+0x232>
20007a82:	4634      	mov	r4, r6
20007a84:	f854 3b04 	ldr.w	r3, [r4], #4
20007a88:	1d21      	adds	r1, r4, #4
20007a8a:	f840 3b04 	str.w	r3, [r0], #4
20007a8e:	1d03      	adds	r3, r0, #4
20007a90:	f8d6 c004 	ldr.w	ip, [r6, #4]
20007a94:	2a1b      	cmp	r2, #27
20007a96:	f8c5 c004 	str.w	ip, [r5, #4]
20007a9a:	d914      	bls.n	20007ac6 <_realloc_r+0x232>
20007a9c:	f8d4 e004 	ldr.w	lr, [r4, #4]
20007aa0:	1d1c      	adds	r4, r3, #4
20007aa2:	f101 0c04 	add.w	ip, r1, #4
20007aa6:	f8c0 e004 	str.w	lr, [r0, #4]
20007aaa:	6848      	ldr	r0, [r1, #4]
20007aac:	f10c 0104 	add.w	r1, ip, #4
20007ab0:	6058      	str	r0, [r3, #4]
20007ab2:	1d23      	adds	r3, r4, #4
20007ab4:	2a24      	cmp	r2, #36	; 0x24
20007ab6:	d106      	bne.n	20007ac6 <_realloc_r+0x232>
20007ab8:	f8dc 2004 	ldr.w	r2, [ip, #4]
20007abc:	6062      	str	r2, [r4, #4]
20007abe:	684a      	ldr	r2, [r1, #4]
20007ac0:	3108      	adds	r1, #8
20007ac2:	605a      	str	r2, [r3, #4]
20007ac4:	3308      	adds	r3, #8
20007ac6:	4608      	mov	r0, r1
20007ac8:	461a      	mov	r2, r3
20007aca:	f850 4b04 	ldr.w	r4, [r0], #4
20007ace:	f842 4b04 	str.w	r4, [r2], #4
20007ad2:	6849      	ldr	r1, [r1, #4]
20007ad4:	6059      	str	r1, [r3, #4]
20007ad6:	6843      	ldr	r3, [r0, #4]
20007ad8:	6053      	str	r3, [r2, #4]
20007ada:	4631      	mov	r1, r6
20007adc:	4638      	mov	r0, r7
20007ade:	f7fe fa77 	bl	20005fd0 <_free_r>
20007ae2:	4638      	mov	r0, r7
20007ae4:	f7ff fa28 	bl	20006f38 <__malloc_unlock>
20007ae8:	e785      	b.n	200079f6 <_realloc_r+0x162>
20007aea:	4455      	add	r5, sl
20007aec:	4295      	cmp	r5, r2
20007aee:	dbaf      	blt.n	20007a50 <_realloc_r+0x1bc>
20007af0:	465b      	mov	r3, fp
20007af2:	f8db 000c 	ldr.w	r0, [fp, #12]
20007af6:	f1aa 0204 	sub.w	r2, sl, #4
20007afa:	f853 1f08 	ldr.w	r1, [r3, #8]!
20007afe:	2a24      	cmp	r2, #36	; 0x24
20007b00:	6081      	str	r1, [r0, #8]
20007b02:	60c8      	str	r0, [r1, #12]
20007b04:	f67f af30 	bls.w	20007968 <_realloc_r+0xd4>
20007b08:	4618      	mov	r0, r3
20007b0a:	4631      	mov	r1, r6
20007b0c:	4698      	mov	r8, r3
20007b0e:	f7ff f9b5 	bl	20006e7c <memmove>
20007b12:	4658      	mov	r0, fp
20007b14:	f8db 3004 	ldr.w	r3, [fp, #4]
20007b18:	e75a      	b.n	200079d0 <_realloc_r+0x13c>
20007b1a:	4611      	mov	r1, r2
20007b1c:	b003      	add	sp, #12
20007b1e:	e8bd 4ff0 	ldmia.w	sp!, {r4, r5, r6, r7, r8, r9, sl, fp, lr}
20007b22:	f7fe bdd7 	b.w	200066d4 <_malloc_r>
20007b26:	230c      	movs	r3, #12
20007b28:	2500      	movs	r5, #0
20007b2a:	603b      	str	r3, [r7, #0]
20007b2c:	e763      	b.n	200079f6 <_realloc_r+0x162>
20007b2e:	f8de 5004 	ldr.w	r5, [lr, #4]
20007b32:	f104 0b10 	add.w	fp, r4, #16
20007b36:	f025 0c03 	bic.w	ip, r5, #3
20007b3a:	eb0c 000a 	add.w	r0, ip, sl
20007b3e:	4558      	cmp	r0, fp
20007b40:	bfb8      	it	lt
20007b42:	4670      	movlt	r0, lr
20007b44:	f6ff aee5 	blt.w	20007912 <_realloc_r+0x7e>
20007b48:	eb08 0204 	add.w	r2, r8, r4
20007b4c:	1b01      	subs	r1, r0, r4
20007b4e:	f041 0101 	orr.w	r1, r1, #1
20007b52:	609a      	str	r2, [r3, #8]
20007b54:	6051      	str	r1, [r2, #4]
20007b56:	4638      	mov	r0, r7
20007b58:	f8d8 1004 	ldr.w	r1, [r8, #4]
20007b5c:	4635      	mov	r5, r6
20007b5e:	f001 0301 	and.w	r3, r1, #1
20007b62:	431c      	orrs	r4, r3
20007b64:	f8c8 4004 	str.w	r4, [r8, #4]
20007b68:	f7ff f9e6 	bl	20006f38 <__malloc_unlock>
20007b6c:	e743      	b.n	200079f6 <_realloc_r+0x162>
20007b6e:	f7ff f985 	bl	20006e7c <memmove>
20007b72:	e7b2      	b.n	20007ada <_realloc_r+0x246>
20007b74:	4455      	add	r5, sl
20007b76:	f104 0110 	add.w	r1, r4, #16
20007b7a:	44ac      	add	ip, r5
20007b7c:	458c      	cmp	ip, r1
20007b7e:	dbb5      	blt.n	20007aec <_realloc_r+0x258>
20007b80:	465d      	mov	r5, fp
20007b82:	f8db 000c 	ldr.w	r0, [fp, #12]
20007b86:	f1aa 0204 	sub.w	r2, sl, #4
20007b8a:	f855 1f08 	ldr.w	r1, [r5, #8]!
20007b8e:	2a24      	cmp	r2, #36	; 0x24
20007b90:	6081      	str	r1, [r0, #8]
20007b92:	60c8      	str	r0, [r1, #12]
20007b94:	d84c      	bhi.n	20007c30 <_realloc_r+0x39c>
20007b96:	2a13      	cmp	r2, #19
20007b98:	4628      	mov	r0, r5
20007b9a:	d924      	bls.n	20007be6 <_realloc_r+0x352>
20007b9c:	4631      	mov	r1, r6
20007b9e:	f10b 0010 	add.w	r0, fp, #16
20007ba2:	f851 eb04 	ldr.w	lr, [r1], #4
20007ba6:	f8cb e008 	str.w	lr, [fp, #8]
20007baa:	f8d6 e004 	ldr.w	lr, [r6, #4]
20007bae:	1d0e      	adds	r6, r1, #4
20007bb0:	2a1b      	cmp	r2, #27
20007bb2:	f8cb e00c 	str.w	lr, [fp, #12]
20007bb6:	d916      	bls.n	20007be6 <_realloc_r+0x352>
20007bb8:	f8d1 e004 	ldr.w	lr, [r1, #4]
20007bbc:	1d31      	adds	r1, r6, #4
20007bbe:	f10b 0018 	add.w	r0, fp, #24
20007bc2:	f8cb e010 	str.w	lr, [fp, #16]
20007bc6:	f8d6 e004 	ldr.w	lr, [r6, #4]
20007bca:	1d0e      	adds	r6, r1, #4
20007bcc:	2a24      	cmp	r2, #36	; 0x24
20007bce:	f8cb e014 	str.w	lr, [fp, #20]
20007bd2:	d108      	bne.n	20007be6 <_realloc_r+0x352>
20007bd4:	684a      	ldr	r2, [r1, #4]
20007bd6:	f10b 0020 	add.w	r0, fp, #32
20007bda:	f8cb 2018 	str.w	r2, [fp, #24]
20007bde:	6872      	ldr	r2, [r6, #4]
20007be0:	3608      	adds	r6, #8
20007be2:	f8cb 201c 	str.w	r2, [fp, #28]
20007be6:	4631      	mov	r1, r6
20007be8:	4602      	mov	r2, r0
20007bea:	f851 eb04 	ldr.w	lr, [r1], #4
20007bee:	f842 eb04 	str.w	lr, [r2], #4
20007bf2:	6876      	ldr	r6, [r6, #4]
20007bf4:	6046      	str	r6, [r0, #4]
20007bf6:	6849      	ldr	r1, [r1, #4]
20007bf8:	6051      	str	r1, [r2, #4]
20007bfa:	eb0b 0204 	add.w	r2, fp, r4
20007bfe:	ebc4 010c 	rsb	r1, r4, ip
20007c02:	f041 0101 	orr.w	r1, r1, #1
20007c06:	609a      	str	r2, [r3, #8]
20007c08:	6051      	str	r1, [r2, #4]
20007c0a:	4638      	mov	r0, r7
20007c0c:	f8db 1004 	ldr.w	r1, [fp, #4]
20007c10:	f001 0301 	and.w	r3, r1, #1
20007c14:	431c      	orrs	r4, r3
20007c16:	f8cb 4004 	str.w	r4, [fp, #4]
20007c1a:	f7ff f98d 	bl	20006f38 <__malloc_unlock>
20007c1e:	e6ea      	b.n	200079f6 <_realloc_r+0x162>
20007c20:	6855      	ldr	r5, [r2, #4]
20007c22:	4640      	mov	r0, r8
20007c24:	f108 0808 	add.w	r8, r8, #8
20007c28:	f025 0503 	bic.w	r5, r5, #3
20007c2c:	4455      	add	r5, sl
20007c2e:	e6cf      	b.n	200079d0 <_realloc_r+0x13c>
20007c30:	4631      	mov	r1, r6
20007c32:	4628      	mov	r0, r5
20007c34:	9300      	str	r3, [sp, #0]
20007c36:	f8cd c004 	str.w	ip, [sp, #4]
20007c3a:	f7ff f91f 	bl	20006e7c <memmove>
20007c3e:	f8dd c004 	ldr.w	ip, [sp, #4]
20007c42:	9b00      	ldr	r3, [sp, #0]
20007c44:	e7d9      	b.n	20007bfa <_realloc_r+0x366>
20007c46:	bf00      	nop

20007c48 <__isinfd>:
20007c48:	4602      	mov	r2, r0
20007c4a:	4240      	negs	r0, r0
20007c4c:	ea40 0302 	orr.w	r3, r0, r2
20007c50:	f021 4100 	bic.w	r1, r1, #2147483648	; 0x80000000
20007c54:	ea41 73d3 	orr.w	r3, r1, r3, lsr #31
20007c58:	f1c3 43fe 	rsb	r3, r3, #2130706432	; 0x7f000000
20007c5c:	f503 0370 	add.w	r3, r3, #15728640	; 0xf00000
20007c60:	4258      	negs	r0, r3
20007c62:	ea40 0303 	orr.w	r3, r0, r3
20007c66:	17d8      	asrs	r0, r3, #31
20007c68:	3001      	adds	r0, #1
20007c6a:	4770      	bx	lr

20007c6c <__isnand>:
20007c6c:	4602      	mov	r2, r0
20007c6e:	4240      	negs	r0, r0
20007c70:	4310      	orrs	r0, r2
20007c72:	f021 4100 	bic.w	r1, r1, #2147483648	; 0x80000000
20007c76:	ea41 70d0 	orr.w	r0, r1, r0, lsr #31
20007c7a:	f1c0 40fe 	rsb	r0, r0, #2130706432	; 0x7f000000
20007c7e:	f500 0070 	add.w	r0, r0, #15728640	; 0xf00000
20007c82:	0fc0      	lsrs	r0, r0, #31
20007c84:	4770      	bx	lr
20007c86:	bf00      	nop

20007c88 <_sbrk_r>:
20007c88:	b538      	push	{r3, r4, r5, lr}
20007c8a:	f64b 7404 	movw	r4, #48900	; 0xbf04
20007c8e:	f2c2 0400 	movt	r4, #8192	; 0x2000
20007c92:	4605      	mov	r5, r0
20007c94:	4608      	mov	r0, r1
20007c96:	2300      	movs	r3, #0
20007c98:	6023      	str	r3, [r4, #0]
20007c9a:	f7f9 f9c3 	bl	20001024 <_sbrk>
20007c9e:	f1b0 3fff 	cmp.w	r0, #4294967295
20007ca2:	d000      	beq.n	20007ca6 <_sbrk_r+0x1e>
20007ca4:	bd38      	pop	{r3, r4, r5, pc}
20007ca6:	6823      	ldr	r3, [r4, #0]
20007ca8:	2b00      	cmp	r3, #0
20007caa:	d0fb      	beq.n	20007ca4 <_sbrk_r+0x1c>
20007cac:	602b      	str	r3, [r5, #0]
20007cae:	bd38      	pop	{r3, r4, r5, pc}

20007cb0 <__sclose>:
20007cb0:	f9b1 100e 	ldrsh.w	r1, [r1, #14]
20007cb4:	f000 b990 	b.w	20007fd8 <_close_r>

20007cb8 <__sseek>:
20007cb8:	b510      	push	{r4, lr}
20007cba:	460c      	mov	r4, r1
20007cbc:	f9b1 100e 	ldrsh.w	r1, [r1, #14]
20007cc0:	f000 fa2e 	bl	20008120 <_lseek_r>
20007cc4:	89a3      	ldrh	r3, [r4, #12]
20007cc6:	f1b0 3fff 	cmp.w	r0, #4294967295
20007cca:	bf15      	itete	ne
20007ccc:	6560      	strne	r0, [r4, #84]	; 0x54
20007cce:	f423 5380 	biceq.w	r3, r3, #4096	; 0x1000
20007cd2:	f443 5380 	orrne.w	r3, r3, #4096	; 0x1000
20007cd6:	81a3      	strheq	r3, [r4, #12]
20007cd8:	bf18      	it	ne
20007cda:	81a3      	strhne	r3, [r4, #12]
20007cdc:	bd10      	pop	{r4, pc}
20007cde:	bf00      	nop

20007ce0 <__swrite>:
20007ce0:	e92d 41f0 	stmdb	sp!, {r4, r5, r6, r7, r8, lr}
20007ce4:	461d      	mov	r5, r3
20007ce6:	898b      	ldrh	r3, [r1, #12]
20007ce8:	460c      	mov	r4, r1
20007cea:	4616      	mov	r6, r2
20007cec:	4607      	mov	r7, r0
20007cee:	f413 7f80 	tst.w	r3, #256	; 0x100
20007cf2:	d006      	beq.n	20007d02 <__swrite+0x22>
20007cf4:	2302      	movs	r3, #2
20007cf6:	f9b1 100e 	ldrsh.w	r1, [r1, #14]
20007cfa:	2200      	movs	r2, #0
20007cfc:	f000 fa10 	bl	20008120 <_lseek_r>
20007d00:	89a3      	ldrh	r3, [r4, #12]
20007d02:	f423 5380 	bic.w	r3, r3, #4096	; 0x1000
20007d06:	4638      	mov	r0, r7
20007d08:	81a3      	strh	r3, [r4, #12]
20007d0a:	4632      	mov	r2, r6
20007d0c:	f9b4 100e 	ldrsh.w	r1, [r4, #14]
20007d10:	462b      	mov	r3, r5
20007d12:	e8bd 41f0 	ldmia.w	sp!, {r4, r5, r6, r7, r8, lr}
20007d16:	f7f9 b957 	b.w	20000fc8 <_write_r>
20007d1a:	bf00      	nop

20007d1c <__sread>:
20007d1c:	b510      	push	{r4, lr}
20007d1e:	460c      	mov	r4, r1
20007d20:	f9b1 100e 	ldrsh.w	r1, [r1, #14]
20007d24:	f000 fa12 	bl	2000814c <_read_r>
20007d28:	2800      	cmp	r0, #0
20007d2a:	db03      	blt.n	20007d34 <__sread+0x18>
20007d2c:	6d63      	ldr	r3, [r4, #84]	; 0x54
20007d2e:	181b      	adds	r3, r3, r0
20007d30:	6563      	str	r3, [r4, #84]	; 0x54
20007d32:	bd10      	pop	{r4, pc}
20007d34:	89a3      	ldrh	r3, [r4, #12]
20007d36:	f423 5380 	bic.w	r3, r3, #4096	; 0x1000
20007d3a:	81a3      	strh	r3, [r4, #12]
20007d3c:	bd10      	pop	{r4, pc}
20007d3e:	bf00      	nop

20007d40 <strcmp>:
20007d40:	ea80 0201 	eor.w	r2, r0, r1
20007d44:	f012 0f03 	tst.w	r2, #3
20007d48:	d13a      	bne.n	20007dc0 <strcmp_unaligned>
20007d4a:	f010 0203 	ands.w	r2, r0, #3
20007d4e:	f020 0003 	bic.w	r0, r0, #3
20007d52:	f021 0103 	bic.w	r1, r1, #3
20007d56:	f850 cb04 	ldr.w	ip, [r0], #4
20007d5a:	bf08      	it	eq
20007d5c:	f851 3b04 	ldreq.w	r3, [r1], #4
20007d60:	d00d      	beq.n	20007d7e <strcmp+0x3e>
20007d62:	f082 0203 	eor.w	r2, r2, #3
20007d66:	ea4f 02c2 	mov.w	r2, r2, lsl #3
20007d6a:	f06f 437f 	mvn.w	r3, #4278190080	; 0xff000000
20007d6e:	fa23 f202 	lsr.w	r2, r3, r2
20007d72:	f851 3b04 	ldr.w	r3, [r1], #4
20007d76:	ea4c 0c02 	orr.w	ip, ip, r2
20007d7a:	ea43 0302 	orr.w	r3, r3, r2
20007d7e:	bf00      	nop
20007d80:	f1ac 3201 	sub.w	r2, ip, #16843009	; 0x1010101
20007d84:	459c      	cmp	ip, r3
20007d86:	bf01      	itttt	eq
20007d88:	ea22 020c 	biceq.w	r2, r2, ip
20007d8c:	f012 3f80 	tsteq.w	r2, #2155905152	; 0x80808080
20007d90:	f850 cb04 	ldreq.w	ip, [r0], #4
20007d94:	f851 3b04 	ldreq.w	r3, [r1], #4
20007d98:	d0f2      	beq.n	20007d80 <strcmp+0x40>
20007d9a:	ea4f 600c 	mov.w	r0, ip, lsl #24
20007d9e:	ea4f 2c1c 	mov.w	ip, ip, lsr #8
20007da2:	2801      	cmp	r0, #1
20007da4:	bf28      	it	cs
20007da6:	ebb0 6f03 	cmpcs.w	r0, r3, lsl #24
20007daa:	bf08      	it	eq
20007dac:	0a1b      	lsreq	r3, r3, #8
20007dae:	d0f4      	beq.n	20007d9a <strcmp+0x5a>
20007db0:	f003 03ff 	and.w	r3, r3, #255	; 0xff
20007db4:	ea4f 6010 	mov.w	r0, r0, lsr #24
20007db8:	eba0 0003 	sub.w	r0, r0, r3
20007dbc:	4770      	bx	lr
20007dbe:	bf00      	nop

20007dc0 <strcmp_unaligned>:
20007dc0:	f010 0f03 	tst.w	r0, #3
20007dc4:	d00a      	beq.n	20007ddc <strcmp_unaligned+0x1c>
20007dc6:	f810 2b01 	ldrb.w	r2, [r0], #1
20007dca:	f811 3b01 	ldrb.w	r3, [r1], #1
20007dce:	2a01      	cmp	r2, #1
20007dd0:	bf28      	it	cs
20007dd2:	429a      	cmpcs	r2, r3
20007dd4:	d0f4      	beq.n	20007dc0 <strcmp_unaligned>
20007dd6:	eba2 0003 	sub.w	r0, r2, r3
20007dda:	4770      	bx	lr
20007ddc:	f84d 5d04 	str.w	r5, [sp, #-4]!
20007de0:	f84d 4d04 	str.w	r4, [sp, #-4]!
20007de4:	f04f 0201 	mov.w	r2, #1
20007de8:	ea42 2202 	orr.w	r2, r2, r2, lsl #8
20007dec:	ea42 4202 	orr.w	r2, r2, r2, lsl #16
20007df0:	f001 0c03 	and.w	ip, r1, #3
20007df4:	f021 0103 	bic.w	r1, r1, #3
20007df8:	f850 4b04 	ldr.w	r4, [r0], #4
20007dfc:	f851 5b04 	ldr.w	r5, [r1], #4
20007e00:	f1bc 0f02 	cmp.w	ip, #2
20007e04:	d026      	beq.n	20007e54 <strcmp_unaligned+0x94>
20007e06:	d84b      	bhi.n	20007ea0 <strcmp_unaligned+0xe0>
20007e08:	f024 4c7f 	bic.w	ip, r4, #4278190080	; 0xff000000
20007e0c:	ebbc 2f15 	cmp.w	ip, r5, lsr #8
20007e10:	eba4 0302 	sub.w	r3, r4, r2
20007e14:	ea23 0304 	bic.w	r3, r3, r4
20007e18:	d10d      	bne.n	20007e36 <strcmp_unaligned+0x76>
20007e1a:	ea13 13c2 	ands.w	r3, r3, r2, lsl #7
20007e1e:	bf08      	it	eq
20007e20:	f851 5b04 	ldreq.w	r5, [r1], #4
20007e24:	d10a      	bne.n	20007e3c <strcmp_unaligned+0x7c>
20007e26:	ea8c 0c04 	eor.w	ip, ip, r4
20007e2a:	ebbc 6f05 	cmp.w	ip, r5, lsl #24
20007e2e:	d10c      	bne.n	20007e4a <strcmp_unaligned+0x8a>
20007e30:	f850 4b04 	ldr.w	r4, [r0], #4
20007e34:	e7e8      	b.n	20007e08 <strcmp_unaligned+0x48>
20007e36:	ea4f 2515 	mov.w	r5, r5, lsr #8
20007e3a:	e05c      	b.n	20007ef6 <strcmp_unaligned+0x136>
20007e3c:	f033 437f 	bics.w	r3, r3, #4278190080	; 0xff000000
20007e40:	d152      	bne.n	20007ee8 <strcmp_unaligned+0x128>
20007e42:	780d      	ldrb	r5, [r1, #0]
20007e44:	ea4f 6c14 	mov.w	ip, r4, lsr #24
20007e48:	e055      	b.n	20007ef6 <strcmp_unaligned+0x136>
20007e4a:	ea4f 6c14 	mov.w	ip, r4, lsr #24
20007e4e:	f005 05ff 	and.w	r5, r5, #255	; 0xff
20007e52:	e050      	b.n	20007ef6 <strcmp_unaligned+0x136>
20007e54:	ea4f 4c04 	mov.w	ip, r4, lsl #16
20007e58:	eba4 0302 	sub.w	r3, r4, r2
20007e5c:	ea4f 4c1c 	mov.w	ip, ip, lsr #16
20007e60:	ea23 0304 	bic.w	r3, r3, r4
20007e64:	ebbc 4f15 	cmp.w	ip, r5, lsr #16
20007e68:	d117      	bne.n	20007e9a <strcmp_unaligned+0xda>
20007e6a:	ea13 13c2 	ands.w	r3, r3, r2, lsl #7
20007e6e:	bf08      	it	eq
20007e70:	f851 5b04 	ldreq.w	r5, [r1], #4
20007e74:	d107      	bne.n	20007e86 <strcmp_unaligned+0xc6>
20007e76:	ea8c 0c04 	eor.w	ip, ip, r4
20007e7a:	ebbc 4f05 	cmp.w	ip, r5, lsl #16
20007e7e:	d108      	bne.n	20007e92 <strcmp_unaligned+0xd2>
20007e80:	f850 4b04 	ldr.w	r4, [r0], #4
20007e84:	e7e6      	b.n	20007e54 <strcmp_unaligned+0x94>
20007e86:	041b      	lsls	r3, r3, #16
20007e88:	d12e      	bne.n	20007ee8 <strcmp_unaligned+0x128>
20007e8a:	880d      	ldrh	r5, [r1, #0]
20007e8c:	ea4f 4c14 	mov.w	ip, r4, lsr #16
20007e90:	e031      	b.n	20007ef6 <strcmp_unaligned+0x136>
20007e92:	ea4f 4505 	mov.w	r5, r5, lsl #16
20007e96:	ea4f 4c14 	mov.w	ip, r4, lsr #16
20007e9a:	ea4f 4515 	mov.w	r5, r5, lsr #16
20007e9e:	e02a      	b.n	20007ef6 <strcmp_unaligned+0x136>
20007ea0:	f004 0cff 	and.w	ip, r4, #255	; 0xff
20007ea4:	ebbc 6f15 	cmp.w	ip, r5, lsr #24
20007ea8:	eba4 0302 	sub.w	r3, r4, r2
20007eac:	ea23 0304 	bic.w	r3, r3, r4
20007eb0:	d10d      	bne.n	20007ece <strcmp_unaligned+0x10e>
20007eb2:	ea13 13c2 	ands.w	r3, r3, r2, lsl #7
20007eb6:	bf08      	it	eq
20007eb8:	f851 5b04 	ldreq.w	r5, [r1], #4
20007ebc:	d10a      	bne.n	20007ed4 <strcmp_unaligned+0x114>
20007ebe:	ea8c 0c04 	eor.w	ip, ip, r4
20007ec2:	ebbc 2f05 	cmp.w	ip, r5, lsl #8
20007ec6:	d10a      	bne.n	20007ede <strcmp_unaligned+0x11e>
20007ec8:	f850 4b04 	ldr.w	r4, [r0], #4
20007ecc:	e7e8      	b.n	20007ea0 <strcmp_unaligned+0xe0>
20007ece:	ea4f 6515 	mov.w	r5, r5, lsr #24
20007ed2:	e010      	b.n	20007ef6 <strcmp_unaligned+0x136>
20007ed4:	f014 0fff 	tst.w	r4, #255	; 0xff
20007ed8:	d006      	beq.n	20007ee8 <strcmp_unaligned+0x128>
20007eda:	f851 5b04 	ldr.w	r5, [r1], #4
20007ede:	ea4f 2c14 	mov.w	ip, r4, lsr #8
20007ee2:	f025 457f 	bic.w	r5, r5, #4278190080	; 0xff000000
20007ee6:	e006      	b.n	20007ef6 <strcmp_unaligned+0x136>
20007ee8:	f04f 0000 	mov.w	r0, #0
20007eec:	f85d 4b04 	ldr.w	r4, [sp], #4
20007ef0:	f85d 5b04 	ldr.w	r5, [sp], #4
20007ef4:	4770      	bx	lr
20007ef6:	f00c 02ff 	and.w	r2, ip, #255	; 0xff
20007efa:	f005 00ff 	and.w	r0, r5, #255	; 0xff
20007efe:	2801      	cmp	r0, #1
20007f00:	bf28      	it	cs
20007f02:	4290      	cmpcs	r0, r2
20007f04:	bf04      	itt	eq
20007f06:	ea4f 2c1c 	moveq.w	ip, ip, lsr #8
20007f0a:	0a2d      	lsreq	r5, r5, #8
20007f0c:	d0f3      	beq.n	20007ef6 <strcmp_unaligned+0x136>
20007f0e:	eba2 0000 	sub.w	r0, r2, r0
20007f12:	f85d 4b04 	ldr.w	r4, [sp], #4
20007f16:	f85d 5b04 	ldr.w	r5, [sp], #4
20007f1a:	4770      	bx	lr

20007f1c <strlen>:
20007f1c:	f020 0103 	bic.w	r1, r0, #3
20007f20:	f010 0003 	ands.w	r0, r0, #3
20007f24:	f1c0 0000 	rsb	r0, r0, #0
20007f28:	f851 3b04 	ldr.w	r3, [r1], #4
20007f2c:	f100 0c04 	add.w	ip, r0, #4
20007f30:	ea4f 0ccc 	mov.w	ip, ip, lsl #3
20007f34:	f06f 0200 	mvn.w	r2, #0
20007f38:	bf1c      	itt	ne
20007f3a:	fa22 f20c 	lsrne.w	r2, r2, ip
20007f3e:	4313      	orrne	r3, r2
20007f40:	f04f 0c01 	mov.w	ip, #1
20007f44:	ea4c 2c0c 	orr.w	ip, ip, ip, lsl #8
20007f48:	ea4c 4c0c 	orr.w	ip, ip, ip, lsl #16
20007f4c:	eba3 020c 	sub.w	r2, r3, ip
20007f50:	ea22 0203 	bic.w	r2, r2, r3
20007f54:	ea12 12cc 	ands.w	r2, r2, ip, lsl #7
20007f58:	bf04      	itt	eq
20007f5a:	f851 3b04 	ldreq.w	r3, [r1], #4
20007f5e:	3004      	addeq	r0, #4
20007f60:	d0f4      	beq.n	20007f4c <strlen+0x30>
20007f62:	f013 0fff 	tst.w	r3, #255	; 0xff
20007f66:	bf1f      	itttt	ne
20007f68:	3001      	addne	r0, #1
20007f6a:	f413 4f7f 	tstne.w	r3, #65280	; 0xff00
20007f6e:	3001      	addne	r0, #1
20007f70:	f413 0f7f 	tstne.w	r3, #16711680	; 0xff0000
20007f74:	bf18      	it	ne
20007f76:	3001      	addne	r0, #1
20007f78:	4770      	bx	lr
20007f7a:	bf00      	nop

20007f7c <_calloc_r>:
20007f7c:	b538      	push	{r3, r4, r5, lr}
20007f7e:	fb01 f102 	mul.w	r1, r1, r2
20007f82:	f7fe fba7 	bl	200066d4 <_malloc_r>
20007f86:	4604      	mov	r4, r0
20007f88:	b1f8      	cbz	r0, 20007fca <_calloc_r+0x4e>
20007f8a:	f850 2c04 	ldr.w	r2, [r0, #-4]
20007f8e:	f022 0203 	bic.w	r2, r2, #3
20007f92:	3a04      	subs	r2, #4
20007f94:	2a24      	cmp	r2, #36	; 0x24
20007f96:	d81a      	bhi.n	20007fce <_calloc_r+0x52>
20007f98:	2a13      	cmp	r2, #19
20007f9a:	4603      	mov	r3, r0
20007f9c:	d90f      	bls.n	20007fbe <_calloc_r+0x42>
20007f9e:	2100      	movs	r1, #0
20007fa0:	f840 1b04 	str.w	r1, [r0], #4
20007fa4:	1d03      	adds	r3, r0, #4
20007fa6:	2a1b      	cmp	r2, #27
20007fa8:	6061      	str	r1, [r4, #4]
20007faa:	d908      	bls.n	20007fbe <_calloc_r+0x42>
20007fac:	1d1d      	adds	r5, r3, #4
20007fae:	6041      	str	r1, [r0, #4]
20007fb0:	6059      	str	r1, [r3, #4]
20007fb2:	1d2b      	adds	r3, r5, #4
20007fb4:	2a24      	cmp	r2, #36	; 0x24
20007fb6:	bf02      	ittt	eq
20007fb8:	6069      	streq	r1, [r5, #4]
20007fba:	6059      	streq	r1, [r3, #4]
20007fbc:	3308      	addeq	r3, #8
20007fbe:	461a      	mov	r2, r3
20007fc0:	2100      	movs	r1, #0
20007fc2:	f842 1b04 	str.w	r1, [r2], #4
20007fc6:	6059      	str	r1, [r3, #4]
20007fc8:	6051      	str	r1, [r2, #4]
20007fca:	4620      	mov	r0, r4
20007fcc:	bd38      	pop	{r3, r4, r5, pc}
20007fce:	2100      	movs	r1, #0
20007fd0:	f7fb f81c 	bl	2000300c <memset>
20007fd4:	4620      	mov	r0, r4
20007fd6:	bd38      	pop	{r3, r4, r5, pc}

20007fd8 <_close_r>:
20007fd8:	b538      	push	{r3, r4, r5, lr}
20007fda:	f64b 7404 	movw	r4, #48900	; 0xbf04
20007fde:	f2c2 0400 	movt	r4, #8192	; 0x2000
20007fe2:	4605      	mov	r5, r0
20007fe4:	4608      	mov	r0, r1
20007fe6:	2300      	movs	r3, #0
20007fe8:	6023      	str	r3, [r4, #0]
20007fea:	f7f8 ffa1 	bl	20000f30 <_close>
20007fee:	f1b0 3fff 	cmp.w	r0, #4294967295
20007ff2:	d000      	beq.n	20007ff6 <_close_r+0x1e>
20007ff4:	bd38      	pop	{r3, r4, r5, pc}
20007ff6:	6823      	ldr	r3, [r4, #0]
20007ff8:	2b00      	cmp	r3, #0
20007ffa:	d0fb      	beq.n	20007ff4 <_close_r+0x1c>
20007ffc:	602b      	str	r3, [r5, #0]
20007ffe:	bd38      	pop	{r3, r4, r5, pc}

20008000 <_fclose_r>:
20008000:	b570      	push	{r4, r5, r6, lr}
20008002:	4605      	mov	r5, r0
20008004:	460c      	mov	r4, r1
20008006:	2900      	cmp	r1, #0
20008008:	d04b      	beq.n	200080a2 <_fclose_r+0xa2>
2000800a:	f7fd fea9 	bl	20005d60 <__sfp_lock_acquire>
2000800e:	b115      	cbz	r5, 20008016 <_fclose_r+0x16>
20008010:	69ab      	ldr	r3, [r5, #24]
20008012:	2b00      	cmp	r3, #0
20008014:	d048      	beq.n	200080a8 <_fclose_r+0xa8>
20008016:	f249 6380 	movw	r3, #38528	; 0x9680
2000801a:	f2c2 0300 	movt	r3, #8192	; 0x2000
2000801e:	429c      	cmp	r4, r3
20008020:	bf08      	it	eq
20008022:	686c      	ldreq	r4, [r5, #4]
20008024:	d00e      	beq.n	20008044 <_fclose_r+0x44>
20008026:	f249 63a0 	movw	r3, #38560	; 0x96a0
2000802a:	f2c2 0300 	movt	r3, #8192	; 0x2000
2000802e:	429c      	cmp	r4, r3
20008030:	bf08      	it	eq
20008032:	68ac      	ldreq	r4, [r5, #8]
20008034:	d006      	beq.n	20008044 <_fclose_r+0x44>
20008036:	f249 63c0 	movw	r3, #38592	; 0x96c0
2000803a:	f2c2 0300 	movt	r3, #8192	; 0x2000
2000803e:	429c      	cmp	r4, r3
20008040:	bf08      	it	eq
20008042:	68ec      	ldreq	r4, [r5, #12]
20008044:	f9b4 600c 	ldrsh.w	r6, [r4, #12]
20008048:	b33e      	cbz	r6, 2000809a <_fclose_r+0x9a>
2000804a:	4628      	mov	r0, r5
2000804c:	4621      	mov	r1, r4
2000804e:	f7fd fdcb 	bl	20005be8 <_fflush_r>
20008052:	6b23      	ldr	r3, [r4, #48]	; 0x30
20008054:	4606      	mov	r6, r0
20008056:	b13b      	cbz	r3, 20008068 <_fclose_r+0x68>
20008058:	4628      	mov	r0, r5
2000805a:	6a21      	ldr	r1, [r4, #32]
2000805c:	4798      	blx	r3
2000805e:	ea36 0620 	bics.w	r6, r6, r0, asr #32
20008062:	bf28      	it	cs
20008064:	f04f 36ff 	movcs.w	r6, #4294967295
20008068:	89a3      	ldrh	r3, [r4, #12]
2000806a:	f013 0f80 	tst.w	r3, #128	; 0x80
2000806e:	d11f      	bne.n	200080b0 <_fclose_r+0xb0>
20008070:	6b61      	ldr	r1, [r4, #52]	; 0x34
20008072:	b141      	cbz	r1, 20008086 <_fclose_r+0x86>
20008074:	f104 0344 	add.w	r3, r4, #68	; 0x44
20008078:	4299      	cmp	r1, r3
2000807a:	d002      	beq.n	20008082 <_fclose_r+0x82>
2000807c:	4628      	mov	r0, r5
2000807e:	f7fd ffa7 	bl	20005fd0 <_free_r>
20008082:	2300      	movs	r3, #0
20008084:	6363      	str	r3, [r4, #52]	; 0x34
20008086:	6ca1      	ldr	r1, [r4, #72]	; 0x48
20008088:	b121      	cbz	r1, 20008094 <_fclose_r+0x94>
2000808a:	4628      	mov	r0, r5
2000808c:	f7fd ffa0 	bl	20005fd0 <_free_r>
20008090:	2300      	movs	r3, #0
20008092:	64a3      	str	r3, [r4, #72]	; 0x48
20008094:	f04f 0300 	mov.w	r3, #0
20008098:	81a3      	strh	r3, [r4, #12]
2000809a:	f7fd fe63 	bl	20005d64 <__sfp_lock_release>
2000809e:	4630      	mov	r0, r6
200080a0:	bd70      	pop	{r4, r5, r6, pc}
200080a2:	460e      	mov	r6, r1
200080a4:	4630      	mov	r0, r6
200080a6:	bd70      	pop	{r4, r5, r6, pc}
200080a8:	4628      	mov	r0, r5
200080aa:	f7fd ff0d 	bl	20005ec8 <__sinit>
200080ae:	e7b2      	b.n	20008016 <_fclose_r+0x16>
200080b0:	4628      	mov	r0, r5
200080b2:	6921      	ldr	r1, [r4, #16]
200080b4:	f7fd ff8c 	bl	20005fd0 <_free_r>
200080b8:	e7da      	b.n	20008070 <_fclose_r+0x70>
200080ba:	bf00      	nop

200080bc <fclose>:
200080bc:	f649 03ec 	movw	r3, #39148	; 0x98ec
200080c0:	4601      	mov	r1, r0
200080c2:	f2c2 0300 	movt	r3, #8192	; 0x2000
200080c6:	6818      	ldr	r0, [r3, #0]
200080c8:	e79a      	b.n	20008000 <_fclose_r>
200080ca:	bf00      	nop

200080cc <_fstat_r>:
200080cc:	b538      	push	{r3, r4, r5, lr}
200080ce:	f64b 7404 	movw	r4, #48900	; 0xbf04
200080d2:	f2c2 0400 	movt	r4, #8192	; 0x2000
200080d6:	4605      	mov	r5, r0
200080d8:	4608      	mov	r0, r1
200080da:	4611      	mov	r1, r2
200080dc:	2300      	movs	r3, #0
200080de:	6023      	str	r3, [r4, #0]
200080e0:	f7f8 ff38 	bl	20000f54 <_fstat>
200080e4:	f1b0 3fff 	cmp.w	r0, #4294967295
200080e8:	d000      	beq.n	200080ec <_fstat_r+0x20>
200080ea:	bd38      	pop	{r3, r4, r5, pc}
200080ec:	6823      	ldr	r3, [r4, #0]
200080ee:	2b00      	cmp	r3, #0
200080f0:	d0fb      	beq.n	200080ea <_fstat_r+0x1e>
200080f2:	602b      	str	r3, [r5, #0]
200080f4:	bd38      	pop	{r3, r4, r5, pc}
200080f6:	bf00      	nop

200080f8 <_isatty_r>:
200080f8:	b538      	push	{r3, r4, r5, lr}
200080fa:	f64b 7404 	movw	r4, #48900	; 0xbf04
200080fe:	f2c2 0400 	movt	r4, #8192	; 0x2000
20008102:	4605      	mov	r5, r0
20008104:	4608      	mov	r0, r1
20008106:	2300      	movs	r3, #0
20008108:	6023      	str	r3, [r4, #0]
2000810a:	f7f8 ff35 	bl	20000f78 <_isatty>
2000810e:	f1b0 3fff 	cmp.w	r0, #4294967295
20008112:	d000      	beq.n	20008116 <_isatty_r+0x1e>
20008114:	bd38      	pop	{r3, r4, r5, pc}
20008116:	6823      	ldr	r3, [r4, #0]
20008118:	2b00      	cmp	r3, #0
2000811a:	d0fb      	beq.n	20008114 <_isatty_r+0x1c>
2000811c:	602b      	str	r3, [r5, #0]
2000811e:	bd38      	pop	{r3, r4, r5, pc}

20008120 <_lseek_r>:
20008120:	b538      	push	{r3, r4, r5, lr}
20008122:	f64b 7404 	movw	r4, #48900	; 0xbf04
20008126:	f2c2 0400 	movt	r4, #8192	; 0x2000
2000812a:	4605      	mov	r5, r0
2000812c:	4608      	mov	r0, r1
2000812e:	4611      	mov	r1, r2
20008130:	461a      	mov	r2, r3
20008132:	2300      	movs	r3, #0
20008134:	6023      	str	r3, [r4, #0]
20008136:	f7f8 ff2b 	bl	20000f90 <_lseek>
2000813a:	f1b0 3fff 	cmp.w	r0, #4294967295
2000813e:	d000      	beq.n	20008142 <_lseek_r+0x22>
20008140:	bd38      	pop	{r3, r4, r5, pc}
20008142:	6823      	ldr	r3, [r4, #0]
20008144:	2b00      	cmp	r3, #0
20008146:	d0fb      	beq.n	20008140 <_lseek_r+0x20>
20008148:	602b      	str	r3, [r5, #0]
2000814a:	bd38      	pop	{r3, r4, r5, pc}

2000814c <_read_r>:
2000814c:	b538      	push	{r3, r4, r5, lr}
2000814e:	f64b 7404 	movw	r4, #48900	; 0xbf04
20008152:	f2c2 0400 	movt	r4, #8192	; 0x2000
20008156:	4605      	mov	r5, r0
20008158:	4608      	mov	r0, r1
2000815a:	4611      	mov	r1, r2
2000815c:	461a      	mov	r2, r3
2000815e:	2300      	movs	r3, #0
20008160:	6023      	str	r3, [r4, #0]
20008162:	f7f8 ff23 	bl	20000fac <_read>
20008166:	f1b0 3fff 	cmp.w	r0, #4294967295
2000816a:	d000      	beq.n	2000816e <_read_r+0x22>
2000816c:	bd38      	pop	{r3, r4, r5, pc}
2000816e:	6823      	ldr	r3, [r4, #0]
20008170:	2b00      	cmp	r3, #0
20008172:	d0fb      	beq.n	2000816c <_read_r+0x20>
20008174:	602b      	str	r3, [r5, #0]
20008176:	bd38      	pop	{r3, r4, r5, pc}

20008178 <__aeabi_uidiv>:
20008178:	1e4a      	subs	r2, r1, #1
2000817a:	bf08      	it	eq
2000817c:	4770      	bxeq	lr
2000817e:	f0c0 8124 	bcc.w	200083ca <__aeabi_uidiv+0x252>
20008182:	4288      	cmp	r0, r1
20008184:	f240 8116 	bls.w	200083b4 <__aeabi_uidiv+0x23c>
20008188:	4211      	tst	r1, r2
2000818a:	f000 8117 	beq.w	200083bc <__aeabi_uidiv+0x244>
2000818e:	fab0 f380 	clz	r3, r0
20008192:	fab1 f281 	clz	r2, r1
20008196:	eba2 0303 	sub.w	r3, r2, r3
2000819a:	f1c3 031f 	rsb	r3, r3, #31
2000819e:	a204      	add	r2, pc, #16	; (adr r2, 200081b0 <__aeabi_uidiv+0x38>)
200081a0:	eb02 1303 	add.w	r3, r2, r3, lsl #4
200081a4:	f04f 0200 	mov.w	r2, #0
200081a8:	469f      	mov	pc, r3
200081aa:	bf00      	nop
200081ac:	f3af 8000 	nop.w
200081b0:	ebb0 7fc1 	cmp.w	r0, r1, lsl #31
200081b4:	bf00      	nop
200081b6:	eb42 0202 	adc.w	r2, r2, r2
200081ba:	bf28      	it	cs
200081bc:	eba0 70c1 	subcs.w	r0, r0, r1, lsl #31
200081c0:	ebb0 7f81 	cmp.w	r0, r1, lsl #30
200081c4:	bf00      	nop
200081c6:	eb42 0202 	adc.w	r2, r2, r2
200081ca:	bf28      	it	cs
200081cc:	eba0 7081 	subcs.w	r0, r0, r1, lsl #30
200081d0:	ebb0 7f41 	cmp.w	r0, r1, lsl #29
200081d4:	bf00      	nop
200081d6:	eb42 0202 	adc.w	r2, r2, r2
200081da:	bf28      	it	cs
200081dc:	eba0 7041 	subcs.w	r0, r0, r1, lsl #29
200081e0:	ebb0 7f01 	cmp.w	r0, r1, lsl #28
200081e4:	bf00      	nop
200081e6:	eb42 0202 	adc.w	r2, r2, r2
200081ea:	bf28      	it	cs
200081ec:	eba0 7001 	subcs.w	r0, r0, r1, lsl #28
200081f0:	ebb0 6fc1 	cmp.w	r0, r1, lsl #27
200081f4:	bf00      	nop
200081f6:	eb42 0202 	adc.w	r2, r2, r2
200081fa:	bf28      	it	cs
200081fc:	eba0 60c1 	subcs.w	r0, r0, r1, lsl #27
20008200:	ebb0 6f81 	cmp.w	r0, r1, lsl #26
20008204:	bf00      	nop
20008206:	eb42 0202 	adc.w	r2, r2, r2
2000820a:	bf28      	it	cs
2000820c:	eba0 6081 	subcs.w	r0, r0, r1, lsl #26
20008210:	ebb0 6f41 	cmp.w	r0, r1, lsl #25
20008214:	bf00      	nop
20008216:	eb42 0202 	adc.w	r2, r2, r2
2000821a:	bf28      	it	cs
2000821c:	eba0 6041 	subcs.w	r0, r0, r1, lsl #25
20008220:	ebb0 6f01 	cmp.w	r0, r1, lsl #24
20008224:	bf00      	nop
20008226:	eb42 0202 	adc.w	r2, r2, r2
2000822a:	bf28      	it	cs
2000822c:	eba0 6001 	subcs.w	r0, r0, r1, lsl #24
20008230:	ebb0 5fc1 	cmp.w	r0, r1, lsl #23
20008234:	bf00      	nop
20008236:	eb42 0202 	adc.w	r2, r2, r2
2000823a:	bf28      	it	cs
2000823c:	eba0 50c1 	subcs.w	r0, r0, r1, lsl #23
20008240:	ebb0 5f81 	cmp.w	r0, r1, lsl #22
20008244:	bf00      	nop
20008246:	eb42 0202 	adc.w	r2, r2, r2
2000824a:	bf28      	it	cs
2000824c:	eba0 5081 	subcs.w	r0, r0, r1, lsl #22
20008250:	ebb0 5f41 	cmp.w	r0, r1, lsl #21
20008254:	bf00      	nop
20008256:	eb42 0202 	adc.w	r2, r2, r2
2000825a:	bf28      	it	cs
2000825c:	eba0 5041 	subcs.w	r0, r0, r1, lsl #21
20008260:	ebb0 5f01 	cmp.w	r0, r1, lsl #20
20008264:	bf00      	nop
20008266:	eb42 0202 	adc.w	r2, r2, r2
2000826a:	bf28      	it	cs
2000826c:	eba0 5001 	subcs.w	r0, r0, r1, lsl #20
20008270:	ebb0 4fc1 	cmp.w	r0, r1, lsl #19
20008274:	bf00      	nop
20008276:	eb42 0202 	adc.w	r2, r2, r2
2000827a:	bf28      	it	cs
2000827c:	eba0 40c1 	subcs.w	r0, r0, r1, lsl #19
20008280:	ebb0 4f81 	cmp.w	r0, r1, lsl #18
20008284:	bf00      	nop
20008286:	eb42 0202 	adc.w	r2, r2, r2
2000828a:	bf28      	it	cs
2000828c:	eba0 4081 	subcs.w	r0, r0, r1, lsl #18
20008290:	ebb0 4f41 	cmp.w	r0, r1, lsl #17
20008294:	bf00      	nop
20008296:	eb42 0202 	adc.w	r2, r2, r2
2000829a:	bf28      	it	cs
2000829c:	eba0 4041 	subcs.w	r0, r0, r1, lsl #17
200082a0:	ebb0 4f01 	cmp.w	r0, r1, lsl #16
200082a4:	bf00      	nop
200082a6:	eb42 0202 	adc.w	r2, r2, r2
200082aa:	bf28      	it	cs
200082ac:	eba0 4001 	subcs.w	r0, r0, r1, lsl #16
200082b0:	ebb0 3fc1 	cmp.w	r0, r1, lsl #15
200082b4:	bf00      	nop
200082b6:	eb42 0202 	adc.w	r2, r2, r2
200082ba:	bf28      	it	cs
200082bc:	eba0 30c1 	subcs.w	r0, r0, r1, lsl #15
200082c0:	ebb0 3f81 	cmp.w	r0, r1, lsl #14
200082c4:	bf00      	nop
200082c6:	eb42 0202 	adc.w	r2, r2, r2
200082ca:	bf28      	it	cs
200082cc:	eba0 3081 	subcs.w	r0, r0, r1, lsl #14
200082d0:	ebb0 3f41 	cmp.w	r0, r1, lsl #13
200082d4:	bf00      	nop
200082d6:	eb42 0202 	adc.w	r2, r2, r2
200082da:	bf28      	it	cs
200082dc:	eba0 3041 	subcs.w	r0, r0, r1, lsl #13
200082e0:	ebb0 3f01 	cmp.w	r0, r1, lsl #12
200082e4:	bf00      	nop
200082e6:	eb42 0202 	adc.w	r2, r2, r2
200082ea:	bf28      	it	cs
200082ec:	eba0 3001 	subcs.w	r0, r0, r1, lsl #12
200082f0:	ebb0 2fc1 	cmp.w	r0, r1, lsl #11
200082f4:	bf00      	nop
200082f6:	eb42 0202 	adc.w	r2, r2, r2
200082fa:	bf28      	it	cs
200082fc:	eba0 20c1 	subcs.w	r0, r0, r1, lsl #11
20008300:	ebb0 2f81 	cmp.w	r0, r1, lsl #10
20008304:	bf00      	nop
20008306:	eb42 0202 	adc.w	r2, r2, r2
2000830a:	bf28      	it	cs
2000830c:	eba0 2081 	subcs.w	r0, r0, r1, lsl #10
20008310:	ebb0 2f41 	cmp.w	r0, r1, lsl #9
20008314:	bf00      	nop
20008316:	eb42 0202 	adc.w	r2, r2, r2
2000831a:	bf28      	it	cs
2000831c:	eba0 2041 	subcs.w	r0, r0, r1, lsl #9
20008320:	ebb0 2f01 	cmp.w	r0, r1, lsl #8
20008324:	bf00      	nop
20008326:	eb42 0202 	adc.w	r2, r2, r2
2000832a:	bf28      	it	cs
2000832c:	eba0 2001 	subcs.w	r0, r0, r1, lsl #8
20008330:	ebb0 1fc1 	cmp.w	r0, r1, lsl #7
20008334:	bf00      	nop
20008336:	eb42 0202 	adc.w	r2, r2, r2
2000833a:	bf28      	it	cs
2000833c:	eba0 10c1 	subcs.w	r0, r0, r1, lsl #7
20008340:	ebb0 1f81 	cmp.w	r0, r1, lsl #6
20008344:	bf00      	nop
20008346:	eb42 0202 	adc.w	r2, r2, r2
2000834a:	bf28      	it	cs
2000834c:	eba0 1081 	subcs.w	r0, r0, r1, lsl #6
20008350:	ebb0 1f41 	cmp.w	r0, r1, lsl #5
20008354:	bf00      	nop
20008356:	eb42 0202 	adc.w	r2, r2, r2
2000835a:	bf28      	it	cs
2000835c:	eba0 1041 	subcs.w	r0, r0, r1, lsl #5
20008360:	ebb0 1f01 	cmp.w	r0, r1, lsl #4
20008364:	bf00      	nop
20008366:	eb42 0202 	adc.w	r2, r2, r2
2000836a:	bf28      	it	cs
2000836c:	eba0 1001 	subcs.w	r0, r0, r1, lsl #4
20008370:	ebb0 0fc1 	cmp.w	r0, r1, lsl #3
20008374:	bf00      	nop
20008376:	eb42 0202 	adc.w	r2, r2, r2
2000837a:	bf28      	it	cs
2000837c:	eba0 00c1 	subcs.w	r0, r0, r1, lsl #3
20008380:	ebb0 0f81 	cmp.w	r0, r1, lsl #2
20008384:	bf00      	nop
20008386:	eb42 0202 	adc.w	r2, r2, r2
2000838a:	bf28      	it	cs
2000838c:	eba0 0081 	subcs.w	r0, r0, r1, lsl #2
20008390:	ebb0 0f41 	cmp.w	r0, r1, lsl #1
20008394:	bf00      	nop
20008396:	eb42 0202 	adc.w	r2, r2, r2
2000839a:	bf28      	it	cs
2000839c:	eba0 0041 	subcs.w	r0, r0, r1, lsl #1
200083a0:	ebb0 0f01 	cmp.w	r0, r1
200083a4:	bf00      	nop
200083a6:	eb42 0202 	adc.w	r2, r2, r2
200083aa:	bf28      	it	cs
200083ac:	eba0 0001 	subcs.w	r0, r0, r1
200083b0:	4610      	mov	r0, r2
200083b2:	4770      	bx	lr
200083b4:	bf0c      	ite	eq
200083b6:	2001      	moveq	r0, #1
200083b8:	2000      	movne	r0, #0
200083ba:	4770      	bx	lr
200083bc:	fab1 f281 	clz	r2, r1
200083c0:	f1c2 021f 	rsb	r2, r2, #31
200083c4:	fa20 f002 	lsr.w	r0, r0, r2
200083c8:	4770      	bx	lr
200083ca:	b108      	cbz	r0, 200083d0 <__aeabi_uidiv+0x258>
200083cc:	f04f 30ff 	mov.w	r0, #4294967295
200083d0:	f000 b80e 	b.w	200083f0 <__aeabi_idiv0>

200083d4 <__aeabi_uidivmod>:
200083d4:	2900      	cmp	r1, #0
200083d6:	d0f8      	beq.n	200083ca <__aeabi_uidiv+0x252>
200083d8:	e92d 4003 	stmdb	sp!, {r0, r1, lr}
200083dc:	f7ff fecc 	bl	20008178 <__aeabi_uidiv>
200083e0:	e8bd 4006 	ldmia.w	sp!, {r1, r2, lr}
200083e4:	fb02 f300 	mul.w	r3, r2, r0
200083e8:	eba1 0103 	sub.w	r1, r1, r3
200083ec:	4770      	bx	lr
200083ee:	bf00      	nop

200083f0 <__aeabi_idiv0>:
200083f0:	4770      	bx	lr
200083f2:	bf00      	nop

200083f4 <__aeabi_drsub>:
200083f4:	f081 4100 	eor.w	r1, r1, #2147483648	; 0x80000000
200083f8:	e002      	b.n	20008400 <__adddf3>
200083fa:	bf00      	nop

200083fc <__aeabi_dsub>:
200083fc:	f083 4300 	eor.w	r3, r3, #2147483648	; 0x80000000

20008400 <__adddf3>:
20008400:	b530      	push	{r4, r5, lr}
20008402:	ea4f 0441 	mov.w	r4, r1, lsl #1
20008406:	ea4f 0543 	mov.w	r5, r3, lsl #1
2000840a:	ea94 0f05 	teq	r4, r5
2000840e:	bf08      	it	eq
20008410:	ea90 0f02 	teqeq	r0, r2
20008414:	bf1f      	itttt	ne
20008416:	ea54 0c00 	orrsne.w	ip, r4, r0
2000841a:	ea55 0c02 	orrsne.w	ip, r5, r2
2000841e:	ea7f 5c64 	mvnsne.w	ip, r4, asr #21
20008422:	ea7f 5c65 	mvnsne.w	ip, r5, asr #21
20008426:	f000 80e2 	beq.w	200085ee <__adddf3+0x1ee>
2000842a:	ea4f 5454 	mov.w	r4, r4, lsr #21
2000842e:	ebd4 5555 	rsbs	r5, r4, r5, lsr #21
20008432:	bfb8      	it	lt
20008434:	426d      	neglt	r5, r5
20008436:	dd0c      	ble.n	20008452 <__adddf3+0x52>
20008438:	442c      	add	r4, r5
2000843a:	ea80 0202 	eor.w	r2, r0, r2
2000843e:	ea81 0303 	eor.w	r3, r1, r3
20008442:	ea82 0000 	eor.w	r0, r2, r0
20008446:	ea83 0101 	eor.w	r1, r3, r1
2000844a:	ea80 0202 	eor.w	r2, r0, r2
2000844e:	ea81 0303 	eor.w	r3, r1, r3
20008452:	2d36      	cmp	r5, #54	; 0x36
20008454:	bf88      	it	hi
20008456:	bd30      	pophi	{r4, r5, pc}
20008458:	f011 4f00 	tst.w	r1, #2147483648	; 0x80000000
2000845c:	ea4f 3101 	mov.w	r1, r1, lsl #12
20008460:	f44f 1c80 	mov.w	ip, #1048576	; 0x100000
20008464:	ea4c 3111 	orr.w	r1, ip, r1, lsr #12
20008468:	d002      	beq.n	20008470 <__adddf3+0x70>
2000846a:	4240      	negs	r0, r0
2000846c:	eb61 0141 	sbc.w	r1, r1, r1, lsl #1
20008470:	f013 4f00 	tst.w	r3, #2147483648	; 0x80000000
20008474:	ea4f 3303 	mov.w	r3, r3, lsl #12
20008478:	ea4c 3313 	orr.w	r3, ip, r3, lsr #12
2000847c:	d002      	beq.n	20008484 <__adddf3+0x84>
2000847e:	4252      	negs	r2, r2
20008480:	eb63 0343 	sbc.w	r3, r3, r3, lsl #1
20008484:	ea94 0f05 	teq	r4, r5
20008488:	f000 80a7 	beq.w	200085da <__adddf3+0x1da>
2000848c:	f1a4 0401 	sub.w	r4, r4, #1
20008490:	f1d5 0e20 	rsbs	lr, r5, #32
20008494:	db0d      	blt.n	200084b2 <__adddf3+0xb2>
20008496:	fa02 fc0e 	lsl.w	ip, r2, lr
2000849a:	fa22 f205 	lsr.w	r2, r2, r5
2000849e:	1880      	adds	r0, r0, r2
200084a0:	f141 0100 	adc.w	r1, r1, #0
200084a4:	fa03 f20e 	lsl.w	r2, r3, lr
200084a8:	1880      	adds	r0, r0, r2
200084aa:	fa43 f305 	asr.w	r3, r3, r5
200084ae:	4159      	adcs	r1, r3
200084b0:	e00e      	b.n	200084d0 <__adddf3+0xd0>
200084b2:	f1a5 0520 	sub.w	r5, r5, #32
200084b6:	f10e 0e20 	add.w	lr, lr, #32
200084ba:	2a01      	cmp	r2, #1
200084bc:	fa03 fc0e 	lsl.w	ip, r3, lr
200084c0:	bf28      	it	cs
200084c2:	f04c 0c02 	orrcs.w	ip, ip, #2
200084c6:	fa43 f305 	asr.w	r3, r3, r5
200084ca:	18c0      	adds	r0, r0, r3
200084cc:	eb51 71e3 	adcs.w	r1, r1, r3, asr #31
200084d0:	f001 4500 	and.w	r5, r1, #2147483648	; 0x80000000
200084d4:	d507      	bpl.n	200084e6 <__adddf3+0xe6>
200084d6:	f04f 0e00 	mov.w	lr, #0
200084da:	f1dc 0c00 	rsbs	ip, ip, #0
200084de:	eb7e 0000 	sbcs.w	r0, lr, r0
200084e2:	eb6e 0101 	sbc.w	r1, lr, r1
200084e6:	f5b1 1f80 	cmp.w	r1, #1048576	; 0x100000
200084ea:	d31b      	bcc.n	20008524 <__adddf3+0x124>
200084ec:	f5b1 1f00 	cmp.w	r1, #2097152	; 0x200000
200084f0:	d30c      	bcc.n	2000850c <__adddf3+0x10c>
200084f2:	0849      	lsrs	r1, r1, #1
200084f4:	ea5f 0030 	movs.w	r0, r0, rrx
200084f8:	ea4f 0c3c 	mov.w	ip, ip, rrx
200084fc:	f104 0401 	add.w	r4, r4, #1
20008500:	ea4f 5244 	mov.w	r2, r4, lsl #21
20008504:	f512 0f80 	cmn.w	r2, #4194304	; 0x400000
20008508:	f080 809a 	bcs.w	20008640 <__adddf3+0x240>
2000850c:	f1bc 4f00 	cmp.w	ip, #2147483648	; 0x80000000
20008510:	bf08      	it	eq
20008512:	ea5f 0c50 	movseq.w	ip, r0, lsr #1
20008516:	f150 0000 	adcs.w	r0, r0, #0
2000851a:	eb41 5104 	adc.w	r1, r1, r4, lsl #20
2000851e:	ea41 0105 	orr.w	r1, r1, r5
20008522:	bd30      	pop	{r4, r5, pc}
20008524:	ea5f 0c4c 	movs.w	ip, ip, lsl #1
20008528:	4140      	adcs	r0, r0
2000852a:	eb41 0101 	adc.w	r1, r1, r1
2000852e:	f411 1f80 	tst.w	r1, #1048576	; 0x100000
20008532:	f1a4 0401 	sub.w	r4, r4, #1
20008536:	d1e9      	bne.n	2000850c <__adddf3+0x10c>
20008538:	f091 0f00 	teq	r1, #0
2000853c:	bf04      	itt	eq
2000853e:	4601      	moveq	r1, r0
20008540:	2000      	moveq	r0, #0
20008542:	fab1 f381 	clz	r3, r1
20008546:	bf08      	it	eq
20008548:	3320      	addeq	r3, #32
2000854a:	f1a3 030b 	sub.w	r3, r3, #11
2000854e:	f1b3 0220 	subs.w	r2, r3, #32
20008552:	da0c      	bge.n	2000856e <__adddf3+0x16e>
20008554:	320c      	adds	r2, #12
20008556:	dd08      	ble.n	2000856a <__adddf3+0x16a>
20008558:	f102 0c14 	add.w	ip, r2, #20
2000855c:	f1c2 020c 	rsb	r2, r2, #12
20008560:	fa01 f00c 	lsl.w	r0, r1, ip
20008564:	fa21 f102 	lsr.w	r1, r1, r2
20008568:	e00c      	b.n	20008584 <__adddf3+0x184>
2000856a:	f102 0214 	add.w	r2, r2, #20
2000856e:	bfd8      	it	le
20008570:	f1c2 0c20 	rsble	ip, r2, #32
20008574:	fa01 f102 	lsl.w	r1, r1, r2
20008578:	fa20 fc0c 	lsr.w	ip, r0, ip
2000857c:	bfdc      	itt	le
2000857e:	ea41 010c 	orrle.w	r1, r1, ip
20008582:	4090      	lslle	r0, r2
20008584:	1ae4      	subs	r4, r4, r3
20008586:	bfa2      	ittt	ge
20008588:	eb01 5104 	addge.w	r1, r1, r4, lsl #20
2000858c:	4329      	orrge	r1, r5
2000858e:	bd30      	popge	{r4, r5, pc}
20008590:	ea6f 0404 	mvn.w	r4, r4
20008594:	3c1f      	subs	r4, #31
20008596:	da1c      	bge.n	200085d2 <__adddf3+0x1d2>
20008598:	340c      	adds	r4, #12
2000859a:	dc0e      	bgt.n	200085ba <__adddf3+0x1ba>
2000859c:	f104 0414 	add.w	r4, r4, #20
200085a0:	f1c4 0220 	rsb	r2, r4, #32
200085a4:	fa20 f004 	lsr.w	r0, r0, r4
200085a8:	fa01 f302 	lsl.w	r3, r1, r2
200085ac:	ea40 0003 	orr.w	r0, r0, r3
200085b0:	fa21 f304 	lsr.w	r3, r1, r4
200085b4:	ea45 0103 	orr.w	r1, r5, r3
200085b8:	bd30      	pop	{r4, r5, pc}
200085ba:	f1c4 040c 	rsb	r4, r4, #12
200085be:	f1c4 0220 	rsb	r2, r4, #32
200085c2:	fa20 f002 	lsr.w	r0, r0, r2
200085c6:	fa01 f304 	lsl.w	r3, r1, r4
200085ca:	ea40 0003 	orr.w	r0, r0, r3
200085ce:	4629      	mov	r1, r5
200085d0:	bd30      	pop	{r4, r5, pc}
200085d2:	fa21 f004 	lsr.w	r0, r1, r4
200085d6:	4629      	mov	r1, r5
200085d8:	bd30      	pop	{r4, r5, pc}
200085da:	f094 0f00 	teq	r4, #0
200085de:	f483 1380 	eor.w	r3, r3, #1048576	; 0x100000
200085e2:	bf06      	itte	eq
200085e4:	f481 1180 	eoreq.w	r1, r1, #1048576	; 0x100000
200085e8:	3401      	addeq	r4, #1
200085ea:	3d01      	subne	r5, #1
200085ec:	e74e      	b.n	2000848c <__adddf3+0x8c>
200085ee:	ea7f 5c64 	mvns.w	ip, r4, asr #21
200085f2:	bf18      	it	ne
200085f4:	ea7f 5c65 	mvnsne.w	ip, r5, asr #21
200085f8:	d029      	beq.n	2000864e <__adddf3+0x24e>
200085fa:	ea94 0f05 	teq	r4, r5
200085fe:	bf08      	it	eq
20008600:	ea90 0f02 	teqeq	r0, r2
20008604:	d005      	beq.n	20008612 <__adddf3+0x212>
20008606:	ea54 0c00 	orrs.w	ip, r4, r0
2000860a:	bf04      	itt	eq
2000860c:	4619      	moveq	r1, r3
2000860e:	4610      	moveq	r0, r2
20008610:	bd30      	pop	{r4, r5, pc}
20008612:	ea91 0f03 	teq	r1, r3
20008616:	bf1e      	ittt	ne
20008618:	2100      	movne	r1, #0
2000861a:	2000      	movne	r0, #0
2000861c:	bd30      	popne	{r4, r5, pc}
2000861e:	ea5f 5c54 	movs.w	ip, r4, lsr #21
20008622:	d105      	bne.n	20008630 <__adddf3+0x230>
20008624:	0040      	lsls	r0, r0, #1
20008626:	4149      	adcs	r1, r1
20008628:	bf28      	it	cs
2000862a:	f041 4100 	orrcs.w	r1, r1, #2147483648	; 0x80000000
2000862e:	bd30      	pop	{r4, r5, pc}
20008630:	f514 0480 	adds.w	r4, r4, #4194304	; 0x400000
20008634:	bf3c      	itt	cc
20008636:	f501 1180 	addcc.w	r1, r1, #1048576	; 0x100000
2000863a:	bd30      	popcc	{r4, r5, pc}
2000863c:	f001 4500 	and.w	r5, r1, #2147483648	; 0x80000000
20008640:	f045 41fe 	orr.w	r1, r5, #2130706432	; 0x7f000000
20008644:	f441 0170 	orr.w	r1, r1, #15728640	; 0xf00000
20008648:	f04f 0000 	mov.w	r0, #0
2000864c:	bd30      	pop	{r4, r5, pc}
2000864e:	ea7f 5c64 	mvns.w	ip, r4, asr #21
20008652:	bf1a      	itte	ne
20008654:	4619      	movne	r1, r3
20008656:	4610      	movne	r0, r2
20008658:	ea7f 5c65 	mvnseq.w	ip, r5, asr #21
2000865c:	bf1c      	itt	ne
2000865e:	460b      	movne	r3, r1
20008660:	4602      	movne	r2, r0
20008662:	ea50 3401 	orrs.w	r4, r0, r1, lsl #12
20008666:	bf06      	itte	eq
20008668:	ea52 3503 	orrseq.w	r5, r2, r3, lsl #12
2000866c:	ea91 0f03 	teqeq	r1, r3
20008670:	f441 2100 	orrne.w	r1, r1, #524288	; 0x80000
20008674:	bd30      	pop	{r4, r5, pc}
20008676:	bf00      	nop

20008678 <__aeabi_ui2d>:
20008678:	f090 0f00 	teq	r0, #0
2000867c:	bf04      	itt	eq
2000867e:	2100      	moveq	r1, #0
20008680:	4770      	bxeq	lr
20008682:	b530      	push	{r4, r5, lr}
20008684:	f44f 6480 	mov.w	r4, #1024	; 0x400
20008688:	f104 0432 	add.w	r4, r4, #50	; 0x32
2000868c:	f04f 0500 	mov.w	r5, #0
20008690:	f04f 0100 	mov.w	r1, #0
20008694:	e750      	b.n	20008538 <__adddf3+0x138>
20008696:	bf00      	nop

20008698 <__aeabi_i2d>:
20008698:	f090 0f00 	teq	r0, #0
2000869c:	bf04      	itt	eq
2000869e:	2100      	moveq	r1, #0
200086a0:	4770      	bxeq	lr
200086a2:	b530      	push	{r4, r5, lr}
200086a4:	f44f 6480 	mov.w	r4, #1024	; 0x400
200086a8:	f104 0432 	add.w	r4, r4, #50	; 0x32
200086ac:	f010 4500 	ands.w	r5, r0, #2147483648	; 0x80000000
200086b0:	bf48      	it	mi
200086b2:	4240      	negmi	r0, r0
200086b4:	f04f 0100 	mov.w	r1, #0
200086b8:	e73e      	b.n	20008538 <__adddf3+0x138>
200086ba:	bf00      	nop

200086bc <__aeabi_f2d>:
200086bc:	0042      	lsls	r2, r0, #1
200086be:	ea4f 01e2 	mov.w	r1, r2, asr #3
200086c2:	ea4f 0131 	mov.w	r1, r1, rrx
200086c6:	ea4f 7002 	mov.w	r0, r2, lsl #28
200086ca:	bf1f      	itttt	ne
200086cc:	f012 437f 	andsne.w	r3, r2, #4278190080	; 0xff000000
200086d0:	f093 4f7f 	teqne	r3, #4278190080	; 0xff000000
200086d4:	f081 5160 	eorne.w	r1, r1, #939524096	; 0x38000000
200086d8:	4770      	bxne	lr
200086da:	f092 0f00 	teq	r2, #0
200086de:	bf14      	ite	ne
200086e0:	f093 4f7f 	teqne	r3, #4278190080	; 0xff000000
200086e4:	4770      	bxeq	lr
200086e6:	b530      	push	{r4, r5, lr}
200086e8:	f44f 7460 	mov.w	r4, #896	; 0x380
200086ec:	f001 4500 	and.w	r5, r1, #2147483648	; 0x80000000
200086f0:	f021 4100 	bic.w	r1, r1, #2147483648	; 0x80000000
200086f4:	e720      	b.n	20008538 <__adddf3+0x138>
200086f6:	bf00      	nop

200086f8 <__aeabi_ul2d>:
200086f8:	ea50 0201 	orrs.w	r2, r0, r1
200086fc:	bf08      	it	eq
200086fe:	4770      	bxeq	lr
20008700:	b530      	push	{r4, r5, lr}
20008702:	f04f 0500 	mov.w	r5, #0
20008706:	e00a      	b.n	2000871e <__aeabi_l2d+0x16>

20008708 <__aeabi_l2d>:
20008708:	ea50 0201 	orrs.w	r2, r0, r1
2000870c:	bf08      	it	eq
2000870e:	4770      	bxeq	lr
20008710:	b530      	push	{r4, r5, lr}
20008712:	f011 4500 	ands.w	r5, r1, #2147483648	; 0x80000000
20008716:	d502      	bpl.n	2000871e <__aeabi_l2d+0x16>
20008718:	4240      	negs	r0, r0
2000871a:	eb61 0141 	sbc.w	r1, r1, r1, lsl #1
2000871e:	f44f 6480 	mov.w	r4, #1024	; 0x400
20008722:	f104 0432 	add.w	r4, r4, #50	; 0x32
20008726:	ea5f 5c91 	movs.w	ip, r1, lsr #22
2000872a:	f43f aedc 	beq.w	200084e6 <__adddf3+0xe6>
2000872e:	f04f 0203 	mov.w	r2, #3
20008732:	ea5f 0cdc 	movs.w	ip, ip, lsr #3
20008736:	bf18      	it	ne
20008738:	3203      	addne	r2, #3
2000873a:	ea5f 0cdc 	movs.w	ip, ip, lsr #3
2000873e:	bf18      	it	ne
20008740:	3203      	addne	r2, #3
20008742:	eb02 02dc 	add.w	r2, r2, ip, lsr #3
20008746:	f1c2 0320 	rsb	r3, r2, #32
2000874a:	fa00 fc03 	lsl.w	ip, r0, r3
2000874e:	fa20 f002 	lsr.w	r0, r0, r2
20008752:	fa01 fe03 	lsl.w	lr, r1, r3
20008756:	ea40 000e 	orr.w	r0, r0, lr
2000875a:	fa21 f102 	lsr.w	r1, r1, r2
2000875e:	4414      	add	r4, r2
20008760:	e6c1      	b.n	200084e6 <__adddf3+0xe6>
20008762:	bf00      	nop

20008764 <__aeabi_dmul>:
20008764:	b570      	push	{r4, r5, r6, lr}
20008766:	f04f 0cff 	mov.w	ip, #255	; 0xff
2000876a:	f44c 6ce0 	orr.w	ip, ip, #1792	; 0x700
2000876e:	ea1c 5411 	ands.w	r4, ip, r1, lsr #20
20008772:	bf1d      	ittte	ne
20008774:	ea1c 5513 	andsne.w	r5, ip, r3, lsr #20
20008778:	ea94 0f0c 	teqne	r4, ip
2000877c:	ea95 0f0c 	teqne	r5, ip
20008780:	f000 f8de 	bleq	20008940 <__aeabi_dmul+0x1dc>
20008784:	442c      	add	r4, r5
20008786:	ea81 0603 	eor.w	r6, r1, r3
2000878a:	ea21 514c 	bic.w	r1, r1, ip, lsl #21
2000878e:	ea23 534c 	bic.w	r3, r3, ip, lsl #21
20008792:	ea50 3501 	orrs.w	r5, r0, r1, lsl #12
20008796:	bf18      	it	ne
20008798:	ea52 3503 	orrsne.w	r5, r2, r3, lsl #12
2000879c:	f441 1180 	orr.w	r1, r1, #1048576	; 0x100000
200087a0:	f443 1380 	orr.w	r3, r3, #1048576	; 0x100000
200087a4:	d038      	beq.n	20008818 <__aeabi_dmul+0xb4>
200087a6:	fba0 ce02 	umull	ip, lr, r0, r2
200087aa:	f04f 0500 	mov.w	r5, #0
200087ae:	fbe1 e502 	umlal	lr, r5, r1, r2
200087b2:	f006 4200 	and.w	r2, r6, #2147483648	; 0x80000000
200087b6:	fbe0 e503 	umlal	lr, r5, r0, r3
200087ba:	f04f 0600 	mov.w	r6, #0
200087be:	fbe1 5603 	umlal	r5, r6, r1, r3
200087c2:	f09c 0f00 	teq	ip, #0
200087c6:	bf18      	it	ne
200087c8:	f04e 0e01 	orrne.w	lr, lr, #1
200087cc:	f1a4 04ff 	sub.w	r4, r4, #255	; 0xff
200087d0:	f5b6 7f00 	cmp.w	r6, #512	; 0x200
200087d4:	f564 7440 	sbc.w	r4, r4, #768	; 0x300
200087d8:	d204      	bcs.n	200087e4 <__aeabi_dmul+0x80>
200087da:	ea5f 0e4e 	movs.w	lr, lr, lsl #1
200087de:	416d      	adcs	r5, r5
200087e0:	eb46 0606 	adc.w	r6, r6, r6
200087e4:	ea42 21c6 	orr.w	r1, r2, r6, lsl #11
200087e8:	ea41 5155 	orr.w	r1, r1, r5, lsr #21
200087ec:	ea4f 20c5 	mov.w	r0, r5, lsl #11
200087f0:	ea40 505e 	orr.w	r0, r0, lr, lsr #21
200087f4:	ea4f 2ece 	mov.w	lr, lr, lsl #11
200087f8:	f1b4 0cfd 	subs.w	ip, r4, #253	; 0xfd
200087fc:	bf88      	it	hi
200087fe:	f5bc 6fe0 	cmphi.w	ip, #1792	; 0x700
20008802:	d81e      	bhi.n	20008842 <__aeabi_dmul+0xde>
20008804:	f1be 4f00 	cmp.w	lr, #2147483648	; 0x80000000
20008808:	bf08      	it	eq
2000880a:	ea5f 0e50 	movseq.w	lr, r0, lsr #1
2000880e:	f150 0000 	adcs.w	r0, r0, #0
20008812:	eb41 5104 	adc.w	r1, r1, r4, lsl #20
20008816:	bd70      	pop	{r4, r5, r6, pc}
20008818:	f006 4600 	and.w	r6, r6, #2147483648	; 0x80000000
2000881c:	ea46 0101 	orr.w	r1, r6, r1
20008820:	ea40 0002 	orr.w	r0, r0, r2
20008824:	ea81 0103 	eor.w	r1, r1, r3
20008828:	ebb4 045c 	subs.w	r4, r4, ip, lsr #1
2000882c:	bfc2      	ittt	gt
2000882e:	ebd4 050c 	rsbsgt	r5, r4, ip
20008832:	ea41 5104 	orrgt.w	r1, r1, r4, lsl #20
20008836:	bd70      	popgt	{r4, r5, r6, pc}
20008838:	f441 1180 	orr.w	r1, r1, #1048576	; 0x100000
2000883c:	f04f 0e00 	mov.w	lr, #0
20008840:	3c01      	subs	r4, #1
20008842:	f300 80ab 	bgt.w	2000899c <__aeabi_dmul+0x238>
20008846:	f114 0f36 	cmn.w	r4, #54	; 0x36
2000884a:	bfde      	ittt	le
2000884c:	2000      	movle	r0, #0
2000884e:	f001 4100 	andle.w	r1, r1, #2147483648	; 0x80000000
20008852:	bd70      	pople	{r4, r5, r6, pc}
20008854:	f1c4 0400 	rsb	r4, r4, #0
20008858:	3c20      	subs	r4, #32
2000885a:	da35      	bge.n	200088c8 <__aeabi_dmul+0x164>
2000885c:	340c      	adds	r4, #12
2000885e:	dc1b      	bgt.n	20008898 <__aeabi_dmul+0x134>
20008860:	f104 0414 	add.w	r4, r4, #20
20008864:	f1c4 0520 	rsb	r5, r4, #32
20008868:	fa00 f305 	lsl.w	r3, r0, r5
2000886c:	fa20 f004 	lsr.w	r0, r0, r4
20008870:	fa01 f205 	lsl.w	r2, r1, r5
20008874:	ea40 0002 	orr.w	r0, r0, r2
20008878:	f001 4200 	and.w	r2, r1, #2147483648	; 0x80000000
2000887c:	f021 4100 	bic.w	r1, r1, #2147483648	; 0x80000000
20008880:	eb10 70d3 	adds.w	r0, r0, r3, lsr #31
20008884:	fa21 f604 	lsr.w	r6, r1, r4
20008888:	eb42 0106 	adc.w	r1, r2, r6
2000888c:	ea5e 0e43 	orrs.w	lr, lr, r3, lsl #1
20008890:	bf08      	it	eq
20008892:	ea20 70d3 	biceq.w	r0, r0, r3, lsr #31
20008896:	bd70      	pop	{r4, r5, r6, pc}
20008898:	f1c4 040c 	rsb	r4, r4, #12
2000889c:	f1c4 0520 	rsb	r5, r4, #32
200088a0:	fa00 f304 	lsl.w	r3, r0, r4
200088a4:	fa20 f005 	lsr.w	r0, r0, r5
200088a8:	fa01 f204 	lsl.w	r2, r1, r4
200088ac:	ea40 0002 	orr.w	r0, r0, r2
200088b0:	f001 4100 	and.w	r1, r1, #2147483648	; 0x80000000
200088b4:	eb10 70d3 	adds.w	r0, r0, r3, lsr #31
200088b8:	f141 0100 	adc.w	r1, r1, #0
200088bc:	ea5e 0e43 	orrs.w	lr, lr, r3, lsl #1
200088c0:	bf08      	it	eq
200088c2:	ea20 70d3 	biceq.w	r0, r0, r3, lsr #31
200088c6:	bd70      	pop	{r4, r5, r6, pc}
200088c8:	f1c4 0520 	rsb	r5, r4, #32
200088cc:	fa00 f205 	lsl.w	r2, r0, r5
200088d0:	ea4e 0e02 	orr.w	lr, lr, r2
200088d4:	fa20 f304 	lsr.w	r3, r0, r4
200088d8:	fa01 f205 	lsl.w	r2, r1, r5
200088dc:	ea43 0302 	orr.w	r3, r3, r2
200088e0:	fa21 f004 	lsr.w	r0, r1, r4
200088e4:	f001 4100 	and.w	r1, r1, #2147483648	; 0x80000000
200088e8:	fa21 f204 	lsr.w	r2, r1, r4
200088ec:	ea20 0002 	bic.w	r0, r0, r2
200088f0:	eb00 70d3 	add.w	r0, r0, r3, lsr #31
200088f4:	ea5e 0e43 	orrs.w	lr, lr, r3, lsl #1
200088f8:	bf08      	it	eq
200088fa:	ea20 70d3 	biceq.w	r0, r0, r3, lsr #31
200088fe:	bd70      	pop	{r4, r5, r6, pc}
20008900:	f094 0f00 	teq	r4, #0
20008904:	d10f      	bne.n	20008926 <__aeabi_dmul+0x1c2>
20008906:	f001 4600 	and.w	r6, r1, #2147483648	; 0x80000000
2000890a:	0040      	lsls	r0, r0, #1
2000890c:	eb41 0101 	adc.w	r1, r1, r1
20008910:	f411 1f80 	tst.w	r1, #1048576	; 0x100000
20008914:	bf08      	it	eq
20008916:	3c01      	subeq	r4, #1
20008918:	d0f7      	beq.n	2000890a <__aeabi_dmul+0x1a6>
2000891a:	ea41 0106 	orr.w	r1, r1, r6
2000891e:	f095 0f00 	teq	r5, #0
20008922:	bf18      	it	ne
20008924:	4770      	bxne	lr
20008926:	f003 4600 	and.w	r6, r3, #2147483648	; 0x80000000
2000892a:	0052      	lsls	r2, r2, #1
2000892c:	eb43 0303 	adc.w	r3, r3, r3
20008930:	f413 1f80 	tst.w	r3, #1048576	; 0x100000
20008934:	bf08      	it	eq
20008936:	3d01      	subeq	r5, #1
20008938:	d0f7      	beq.n	2000892a <__aeabi_dmul+0x1c6>
2000893a:	ea43 0306 	orr.w	r3, r3, r6
2000893e:	4770      	bx	lr
20008940:	ea94 0f0c 	teq	r4, ip
20008944:	ea0c 5513 	and.w	r5, ip, r3, lsr #20
20008948:	bf18      	it	ne
2000894a:	ea95 0f0c 	teqne	r5, ip
2000894e:	d00c      	beq.n	2000896a <__aeabi_dmul+0x206>
20008950:	ea50 0641 	orrs.w	r6, r0, r1, lsl #1
20008954:	bf18      	it	ne
20008956:	ea52 0643 	orrsne.w	r6, r2, r3, lsl #1
2000895a:	d1d1      	bne.n	20008900 <__aeabi_dmul+0x19c>
2000895c:	ea81 0103 	eor.w	r1, r1, r3
20008960:	f001 4100 	and.w	r1, r1, #2147483648	; 0x80000000
20008964:	f04f 0000 	mov.w	r0, #0
20008968:	bd70      	pop	{r4, r5, r6, pc}
2000896a:	ea50 0641 	orrs.w	r6, r0, r1, lsl #1
2000896e:	bf06      	itte	eq
20008970:	4610      	moveq	r0, r2
20008972:	4619      	moveq	r1, r3
20008974:	ea52 0643 	orrsne.w	r6, r2, r3, lsl #1
20008978:	d019      	beq.n	200089ae <__aeabi_dmul+0x24a>
2000897a:	ea94 0f0c 	teq	r4, ip
2000897e:	d102      	bne.n	20008986 <__aeabi_dmul+0x222>
20008980:	ea50 3601 	orrs.w	r6, r0, r1, lsl #12
20008984:	d113      	bne.n	200089ae <__aeabi_dmul+0x24a>
20008986:	ea95 0f0c 	teq	r5, ip
2000898a:	d105      	bne.n	20008998 <__aeabi_dmul+0x234>
2000898c:	ea52 3603 	orrs.w	r6, r2, r3, lsl #12
20008990:	bf1c      	itt	ne
20008992:	4610      	movne	r0, r2
20008994:	4619      	movne	r1, r3
20008996:	d10a      	bne.n	200089ae <__aeabi_dmul+0x24a>
20008998:	ea81 0103 	eor.w	r1, r1, r3
2000899c:	f001 4100 	and.w	r1, r1, #2147483648	; 0x80000000
200089a0:	f041 41fe 	orr.w	r1, r1, #2130706432	; 0x7f000000
200089a4:	f441 0170 	orr.w	r1, r1, #15728640	; 0xf00000
200089a8:	f04f 0000 	mov.w	r0, #0
200089ac:	bd70      	pop	{r4, r5, r6, pc}
200089ae:	f041 41fe 	orr.w	r1, r1, #2130706432	; 0x7f000000
200089b2:	f441 0178 	orr.w	r1, r1, #16252928	; 0xf80000
200089b6:	bd70      	pop	{r4, r5, r6, pc}

200089b8 <__aeabi_ddiv>:
200089b8:	b570      	push	{r4, r5, r6, lr}
200089ba:	f04f 0cff 	mov.w	ip, #255	; 0xff
200089be:	f44c 6ce0 	orr.w	ip, ip, #1792	; 0x700
200089c2:	ea1c 5411 	ands.w	r4, ip, r1, lsr #20
200089c6:	bf1d      	ittte	ne
200089c8:	ea1c 5513 	andsne.w	r5, ip, r3, lsr #20
200089cc:	ea94 0f0c 	teqne	r4, ip
200089d0:	ea95 0f0c 	teqne	r5, ip
200089d4:	f000 f8a7 	bleq	20008b26 <__aeabi_ddiv+0x16e>
200089d8:	eba4 0405 	sub.w	r4, r4, r5
200089dc:	ea81 0e03 	eor.w	lr, r1, r3
200089e0:	ea52 3503 	orrs.w	r5, r2, r3, lsl #12
200089e4:	ea4f 3101 	mov.w	r1, r1, lsl #12
200089e8:	f000 8088 	beq.w	20008afc <__aeabi_ddiv+0x144>
200089ec:	ea4f 3303 	mov.w	r3, r3, lsl #12
200089f0:	f04f 5580 	mov.w	r5, #268435456	; 0x10000000
200089f4:	ea45 1313 	orr.w	r3, r5, r3, lsr #4
200089f8:	ea43 6312 	orr.w	r3, r3, r2, lsr #24
200089fc:	ea4f 2202 	mov.w	r2, r2, lsl #8
20008a00:	ea45 1511 	orr.w	r5, r5, r1, lsr #4
20008a04:	ea45 6510 	orr.w	r5, r5, r0, lsr #24
20008a08:	ea4f 2600 	mov.w	r6, r0, lsl #8
20008a0c:	f00e 4100 	and.w	r1, lr, #2147483648	; 0x80000000
20008a10:	429d      	cmp	r5, r3
20008a12:	bf08      	it	eq
20008a14:	4296      	cmpeq	r6, r2
20008a16:	f144 04fd 	adc.w	r4, r4, #253	; 0xfd
20008a1a:	f504 7440 	add.w	r4, r4, #768	; 0x300
20008a1e:	d202      	bcs.n	20008a26 <__aeabi_ddiv+0x6e>
20008a20:	085b      	lsrs	r3, r3, #1
20008a22:	ea4f 0232 	mov.w	r2, r2, rrx
20008a26:	1ab6      	subs	r6, r6, r2
20008a28:	eb65 0503 	sbc.w	r5, r5, r3
20008a2c:	085b      	lsrs	r3, r3, #1
20008a2e:	ea4f 0232 	mov.w	r2, r2, rrx
20008a32:	f44f 1080 	mov.w	r0, #1048576	; 0x100000
20008a36:	f44f 2c00 	mov.w	ip, #524288	; 0x80000
20008a3a:	ebb6 0e02 	subs.w	lr, r6, r2
20008a3e:	eb75 0e03 	sbcs.w	lr, r5, r3
20008a42:	bf22      	ittt	cs
20008a44:	1ab6      	subcs	r6, r6, r2
20008a46:	4675      	movcs	r5, lr
20008a48:	ea40 000c 	orrcs.w	r0, r0, ip
20008a4c:	085b      	lsrs	r3, r3, #1
20008a4e:	ea4f 0232 	mov.w	r2, r2, rrx
20008a52:	ebb6 0e02 	subs.w	lr, r6, r2
20008a56:	eb75 0e03 	sbcs.w	lr, r5, r3
20008a5a:	bf22      	ittt	cs
20008a5c:	1ab6      	subcs	r6, r6, r2
20008a5e:	4675      	movcs	r5, lr
20008a60:	ea40 005c 	orrcs.w	r0, r0, ip, lsr #1
20008a64:	085b      	lsrs	r3, r3, #1
20008a66:	ea4f 0232 	mov.w	r2, r2, rrx
20008a6a:	ebb6 0e02 	subs.w	lr, r6, r2
20008a6e:	eb75 0e03 	sbcs.w	lr, r5, r3
20008a72:	bf22      	ittt	cs
20008a74:	1ab6      	subcs	r6, r6, r2
20008a76:	4675      	movcs	r5, lr
20008a78:	ea40 009c 	orrcs.w	r0, r0, ip, lsr #2
20008a7c:	085b      	lsrs	r3, r3, #1
20008a7e:	ea4f 0232 	mov.w	r2, r2, rrx
20008a82:	ebb6 0e02 	subs.w	lr, r6, r2
20008a86:	eb75 0e03 	sbcs.w	lr, r5, r3
20008a8a:	bf22      	ittt	cs
20008a8c:	1ab6      	subcs	r6, r6, r2
20008a8e:	4675      	movcs	r5, lr
20008a90:	ea40 00dc 	orrcs.w	r0, r0, ip, lsr #3
20008a94:	ea55 0e06 	orrs.w	lr, r5, r6
20008a98:	d018      	beq.n	20008acc <__aeabi_ddiv+0x114>
20008a9a:	ea4f 1505 	mov.w	r5, r5, lsl #4
20008a9e:	ea45 7516 	orr.w	r5, r5, r6, lsr #28
20008aa2:	ea4f 1606 	mov.w	r6, r6, lsl #4
20008aa6:	ea4f 03c3 	mov.w	r3, r3, lsl #3
20008aaa:	ea43 7352 	orr.w	r3, r3, r2, lsr #29
20008aae:	ea4f 02c2 	mov.w	r2, r2, lsl #3
20008ab2:	ea5f 1c1c 	movs.w	ip, ip, lsr #4
20008ab6:	d1c0      	bne.n	20008a3a <__aeabi_ddiv+0x82>
20008ab8:	f411 1f80 	tst.w	r1, #1048576	; 0x100000
20008abc:	d10b      	bne.n	20008ad6 <__aeabi_ddiv+0x11e>
20008abe:	ea41 0100 	orr.w	r1, r1, r0
20008ac2:	f04f 0000 	mov.w	r0, #0
20008ac6:	f04f 4c00 	mov.w	ip, #2147483648	; 0x80000000
20008aca:	e7b6      	b.n	20008a3a <__aeabi_ddiv+0x82>
20008acc:	f411 1f80 	tst.w	r1, #1048576	; 0x100000
20008ad0:	bf04      	itt	eq
20008ad2:	4301      	orreq	r1, r0
20008ad4:	2000      	moveq	r0, #0
20008ad6:	f1b4 0cfd 	subs.w	ip, r4, #253	; 0xfd
20008ada:	bf88      	it	hi
20008adc:	f5bc 6fe0 	cmphi.w	ip, #1792	; 0x700
20008ae0:	f63f aeaf 	bhi.w	20008842 <__aeabi_dmul+0xde>
20008ae4:	ebb5 0c03 	subs.w	ip, r5, r3
20008ae8:	bf04      	itt	eq
20008aea:	ebb6 0c02 	subseq.w	ip, r6, r2
20008aee:	ea5f 0c50 	movseq.w	ip, r0, lsr #1
20008af2:	f150 0000 	adcs.w	r0, r0, #0
20008af6:	eb41 5104 	adc.w	r1, r1, r4, lsl #20
20008afa:	bd70      	pop	{r4, r5, r6, pc}
20008afc:	f00e 4e00 	and.w	lr, lr, #2147483648	; 0x80000000
20008b00:	ea4e 3111 	orr.w	r1, lr, r1, lsr #12
20008b04:	eb14 045c 	adds.w	r4, r4, ip, lsr #1
20008b08:	bfc2      	ittt	gt
20008b0a:	ebd4 050c 	rsbsgt	r5, r4, ip
20008b0e:	ea41 5104 	orrgt.w	r1, r1, r4, lsl #20
20008b12:	bd70      	popgt	{r4, r5, r6, pc}
20008b14:	f441 1180 	orr.w	r1, r1, #1048576	; 0x100000
20008b18:	f04f 0e00 	mov.w	lr, #0
20008b1c:	3c01      	subs	r4, #1
20008b1e:	e690      	b.n	20008842 <__aeabi_dmul+0xde>
20008b20:	ea45 0e06 	orr.w	lr, r5, r6
20008b24:	e68d      	b.n	20008842 <__aeabi_dmul+0xde>
20008b26:	ea0c 5513 	and.w	r5, ip, r3, lsr #20
20008b2a:	ea94 0f0c 	teq	r4, ip
20008b2e:	bf08      	it	eq
20008b30:	ea95 0f0c 	teqeq	r5, ip
20008b34:	f43f af3b 	beq.w	200089ae <__aeabi_dmul+0x24a>
20008b38:	ea94 0f0c 	teq	r4, ip
20008b3c:	d10a      	bne.n	20008b54 <__aeabi_ddiv+0x19c>
20008b3e:	ea50 3401 	orrs.w	r4, r0, r1, lsl #12
20008b42:	f47f af34 	bne.w	200089ae <__aeabi_dmul+0x24a>
20008b46:	ea95 0f0c 	teq	r5, ip
20008b4a:	f47f af25 	bne.w	20008998 <__aeabi_dmul+0x234>
20008b4e:	4610      	mov	r0, r2
20008b50:	4619      	mov	r1, r3
20008b52:	e72c      	b.n	200089ae <__aeabi_dmul+0x24a>
20008b54:	ea95 0f0c 	teq	r5, ip
20008b58:	d106      	bne.n	20008b68 <__aeabi_ddiv+0x1b0>
20008b5a:	ea52 3503 	orrs.w	r5, r2, r3, lsl #12
20008b5e:	f43f aefd 	beq.w	2000895c <__aeabi_dmul+0x1f8>
20008b62:	4610      	mov	r0, r2
20008b64:	4619      	mov	r1, r3
20008b66:	e722      	b.n	200089ae <__aeabi_dmul+0x24a>
20008b68:	ea50 0641 	orrs.w	r6, r0, r1, lsl #1
20008b6c:	bf18      	it	ne
20008b6e:	ea52 0643 	orrsne.w	r6, r2, r3, lsl #1
20008b72:	f47f aec5 	bne.w	20008900 <__aeabi_dmul+0x19c>
20008b76:	ea50 0441 	orrs.w	r4, r0, r1, lsl #1
20008b7a:	f47f af0d 	bne.w	20008998 <__aeabi_dmul+0x234>
20008b7e:	ea52 0543 	orrs.w	r5, r2, r3, lsl #1
20008b82:	f47f aeeb 	bne.w	2000895c <__aeabi_dmul+0x1f8>
20008b86:	e712      	b.n	200089ae <__aeabi_dmul+0x24a>

20008b88 <__gedf2>:
20008b88:	f04f 3cff 	mov.w	ip, #4294967295
20008b8c:	e006      	b.n	20008b9c <__cmpdf2+0x4>
20008b8e:	bf00      	nop

20008b90 <__ledf2>:
20008b90:	f04f 0c01 	mov.w	ip, #1
20008b94:	e002      	b.n	20008b9c <__cmpdf2+0x4>
20008b96:	bf00      	nop

20008b98 <__cmpdf2>:
20008b98:	f04f 0c01 	mov.w	ip, #1
20008b9c:	f84d cd04 	str.w	ip, [sp, #-4]!
20008ba0:	ea4f 0c41 	mov.w	ip, r1, lsl #1
20008ba4:	ea7f 5c6c 	mvns.w	ip, ip, asr #21
20008ba8:	ea4f 0c43 	mov.w	ip, r3, lsl #1
20008bac:	bf18      	it	ne
20008bae:	ea7f 5c6c 	mvnsne.w	ip, ip, asr #21
20008bb2:	d01b      	beq.n	20008bec <__cmpdf2+0x54>
20008bb4:	b001      	add	sp, #4
20008bb6:	ea50 0c41 	orrs.w	ip, r0, r1, lsl #1
20008bba:	bf0c      	ite	eq
20008bbc:	ea52 0c43 	orrseq.w	ip, r2, r3, lsl #1
20008bc0:	ea91 0f03 	teqne	r1, r3
20008bc4:	bf02      	ittt	eq
20008bc6:	ea90 0f02 	teqeq	r0, r2
20008bca:	2000      	moveq	r0, #0
20008bcc:	4770      	bxeq	lr
20008bce:	f110 0f00 	cmn.w	r0, #0
20008bd2:	ea91 0f03 	teq	r1, r3
20008bd6:	bf58      	it	pl
20008bd8:	4299      	cmppl	r1, r3
20008bda:	bf08      	it	eq
20008bdc:	4290      	cmpeq	r0, r2
20008bde:	bf2c      	ite	cs
20008be0:	17d8      	asrcs	r0, r3, #31
20008be2:	ea6f 70e3 	mvncc.w	r0, r3, asr #31
20008be6:	f040 0001 	orr.w	r0, r0, #1
20008bea:	4770      	bx	lr
20008bec:	ea4f 0c41 	mov.w	ip, r1, lsl #1
20008bf0:	ea7f 5c6c 	mvns.w	ip, ip, asr #21
20008bf4:	d102      	bne.n	20008bfc <__cmpdf2+0x64>
20008bf6:	ea50 3c01 	orrs.w	ip, r0, r1, lsl #12
20008bfa:	d107      	bne.n	20008c0c <__cmpdf2+0x74>
20008bfc:	ea4f 0c43 	mov.w	ip, r3, lsl #1
20008c00:	ea7f 5c6c 	mvns.w	ip, ip, asr #21
20008c04:	d1d6      	bne.n	20008bb4 <__cmpdf2+0x1c>
20008c06:	ea52 3c03 	orrs.w	ip, r2, r3, lsl #12
20008c0a:	d0d3      	beq.n	20008bb4 <__cmpdf2+0x1c>
20008c0c:	f85d 0b04 	ldr.w	r0, [sp], #4
20008c10:	4770      	bx	lr
20008c12:	bf00      	nop

20008c14 <__aeabi_cdrcmple>:
20008c14:	4684      	mov	ip, r0
20008c16:	4610      	mov	r0, r2
20008c18:	4662      	mov	r2, ip
20008c1a:	468c      	mov	ip, r1
20008c1c:	4619      	mov	r1, r3
20008c1e:	4663      	mov	r3, ip
20008c20:	e000      	b.n	20008c24 <__aeabi_cdcmpeq>
20008c22:	bf00      	nop

20008c24 <__aeabi_cdcmpeq>:
20008c24:	b501      	push	{r0, lr}
20008c26:	f7ff ffb7 	bl	20008b98 <__cmpdf2>
20008c2a:	2800      	cmp	r0, #0
20008c2c:	bf48      	it	mi
20008c2e:	f110 0f00 	cmnmi.w	r0, #0
20008c32:	bd01      	pop	{r0, pc}

20008c34 <__aeabi_dcmpeq>:
20008c34:	f84d ed08 	str.w	lr, [sp, #-8]!
20008c38:	f7ff fff4 	bl	20008c24 <__aeabi_cdcmpeq>
20008c3c:	bf0c      	ite	eq
20008c3e:	2001      	moveq	r0, #1
20008c40:	2000      	movne	r0, #0
20008c42:	f85d fb08 	ldr.w	pc, [sp], #8
20008c46:	bf00      	nop

20008c48 <__aeabi_dcmplt>:
20008c48:	f84d ed08 	str.w	lr, [sp, #-8]!
20008c4c:	f7ff ffea 	bl	20008c24 <__aeabi_cdcmpeq>
20008c50:	bf34      	ite	cc
20008c52:	2001      	movcc	r0, #1
20008c54:	2000      	movcs	r0, #0
20008c56:	f85d fb08 	ldr.w	pc, [sp], #8
20008c5a:	bf00      	nop

20008c5c <__aeabi_dcmple>:
20008c5c:	f84d ed08 	str.w	lr, [sp, #-8]!
20008c60:	f7ff ffe0 	bl	20008c24 <__aeabi_cdcmpeq>
20008c64:	bf94      	ite	ls
20008c66:	2001      	movls	r0, #1
20008c68:	2000      	movhi	r0, #0
20008c6a:	f85d fb08 	ldr.w	pc, [sp], #8
20008c6e:	bf00      	nop

20008c70 <__aeabi_dcmpge>:
20008c70:	f84d ed08 	str.w	lr, [sp, #-8]!
20008c74:	f7ff ffce 	bl	20008c14 <__aeabi_cdrcmple>
20008c78:	bf94      	ite	ls
20008c7a:	2001      	movls	r0, #1
20008c7c:	2000      	movhi	r0, #0
20008c7e:	f85d fb08 	ldr.w	pc, [sp], #8
20008c82:	bf00      	nop

20008c84 <__aeabi_dcmpgt>:
20008c84:	f84d ed08 	str.w	lr, [sp, #-8]!
20008c88:	f7ff ffc4 	bl	20008c14 <__aeabi_cdrcmple>
20008c8c:	bf34      	ite	cc
20008c8e:	2001      	movcc	r0, #1
20008c90:	2000      	movcs	r0, #0
20008c92:	f85d fb08 	ldr.w	pc, [sp], #8
20008c96:	bf00      	nop

20008c98 <__aeabi_d2iz>:
20008c98:	ea4f 0241 	mov.w	r2, r1, lsl #1
20008c9c:	f512 1200 	adds.w	r2, r2, #2097152	; 0x200000
20008ca0:	d215      	bcs.n	20008cce <__aeabi_d2iz+0x36>
20008ca2:	d511      	bpl.n	20008cc8 <__aeabi_d2iz+0x30>
20008ca4:	f46f 7378 	mvn.w	r3, #992	; 0x3e0
20008ca8:	ebb3 5262 	subs.w	r2, r3, r2, asr #21
20008cac:	d912      	bls.n	20008cd4 <__aeabi_d2iz+0x3c>
20008cae:	ea4f 23c1 	mov.w	r3, r1, lsl #11
20008cb2:	f043 4300 	orr.w	r3, r3, #2147483648	; 0x80000000
20008cb6:	ea43 5350 	orr.w	r3, r3, r0, lsr #21
20008cba:	f011 4f00 	tst.w	r1, #2147483648	; 0x80000000
20008cbe:	fa23 f002 	lsr.w	r0, r3, r2
20008cc2:	bf18      	it	ne
20008cc4:	4240      	negne	r0, r0
20008cc6:	4770      	bx	lr
20008cc8:	f04f 0000 	mov.w	r0, #0
20008ccc:	4770      	bx	lr
20008cce:	ea50 3001 	orrs.w	r0, r0, r1, lsl #12
20008cd2:	d105      	bne.n	20008ce0 <__aeabi_d2iz+0x48>
20008cd4:	f011 4000 	ands.w	r0, r1, #2147483648	; 0x80000000
20008cd8:	bf08      	it	eq
20008cda:	f06f 4000 	mvneq.w	r0, #2147483648	; 0x80000000
20008cde:	4770      	bx	lr
20008ce0:	f04f 0000 	mov.w	r0, #0
20008ce4:	4770      	bx	lr
20008ce6:	bf00      	nop

20008ce8 <__aeabi_uldivmod>:
20008ce8:	b94b      	cbnz	r3, 20008cfe <__aeabi_uldivmod+0x16>
20008cea:	b942      	cbnz	r2, 20008cfe <__aeabi_uldivmod+0x16>
20008cec:	2900      	cmp	r1, #0
20008cee:	bf08      	it	eq
20008cf0:	2800      	cmpeq	r0, #0
20008cf2:	d002      	beq.n	20008cfa <__aeabi_uldivmod+0x12>
20008cf4:	f04f 31ff 	mov.w	r1, #4294967295
20008cf8:	4608      	mov	r0, r1
20008cfa:	f7ff bb79 	b.w	200083f0 <__aeabi_idiv0>
20008cfe:	b082      	sub	sp, #8
20008d00:	46ec      	mov	ip, sp
20008d02:	e92d 5000 	stmdb	sp!, {ip, lr}
20008d06:	f000 f805 	bl	20008d14 <__gnu_uldivmod_helper>
20008d0a:	f8dd e004 	ldr.w	lr, [sp, #4]
20008d0e:	b002      	add	sp, #8
20008d10:	bc0c      	pop	{r2, r3}
20008d12:	4770      	bx	lr

20008d14 <__gnu_uldivmod_helper>:
20008d14:	b5f8      	push	{r3, r4, r5, r6, r7, lr}
20008d16:	4614      	mov	r4, r2
20008d18:	461d      	mov	r5, r3
20008d1a:	4606      	mov	r6, r0
20008d1c:	460f      	mov	r7, r1
20008d1e:	f000 f9d7 	bl	200090d0 <__udivdi3>
20008d22:	fb00 f505 	mul.w	r5, r0, r5
20008d26:	fba0 2304 	umull	r2, r3, r0, r4
20008d2a:	fb04 5401 	mla	r4, r4, r1, r5
20008d2e:	18e3      	adds	r3, r4, r3
20008d30:	1ab6      	subs	r6, r6, r2
20008d32:	eb67 0703 	sbc.w	r7, r7, r3
20008d36:	9b06      	ldr	r3, [sp, #24]
20008d38:	e9c3 6700 	strd	r6, r7, [r3]
20008d3c:	bdf8      	pop	{r3, r4, r5, r6, r7, pc}
20008d3e:	bf00      	nop

20008d40 <__gnu_ldivmod_helper>:
20008d40:	b5f8      	push	{r3, r4, r5, r6, r7, lr}
20008d42:	4614      	mov	r4, r2
20008d44:	461d      	mov	r5, r3
20008d46:	4606      	mov	r6, r0
20008d48:	460f      	mov	r7, r1
20008d4a:	f000 f80f 	bl	20008d6c <__divdi3>
20008d4e:	fb00 f505 	mul.w	r5, r0, r5
20008d52:	fba0 2304 	umull	r2, r3, r0, r4
20008d56:	fb04 5401 	mla	r4, r4, r1, r5
20008d5a:	18e3      	adds	r3, r4, r3
20008d5c:	1ab6      	subs	r6, r6, r2
20008d5e:	eb67 0703 	sbc.w	r7, r7, r3
20008d62:	9b06      	ldr	r3, [sp, #24]
20008d64:	e9c3 6700 	strd	r6, r7, [r3]
20008d68:	bdf8      	pop	{r3, r4, r5, r6, r7, pc}
20008d6a:	bf00      	nop

20008d6c <__divdi3>:
20008d6c:	2900      	cmp	r1, #0
20008d6e:	e92d 4ff0 	stmdb	sp!, {r4, r5, r6, r7, r8, r9, sl, fp, lr}
20008d72:	b085      	sub	sp, #20
20008d74:	f2c0 80c8 	blt.w	20008f08 <__divdi3+0x19c>
20008d78:	2600      	movs	r6, #0
20008d7a:	2b00      	cmp	r3, #0
20008d7c:	f2c0 80bf 	blt.w	20008efe <__divdi3+0x192>
20008d80:	4689      	mov	r9, r1
20008d82:	4614      	mov	r4, r2
20008d84:	4605      	mov	r5, r0
20008d86:	469b      	mov	fp, r3
20008d88:	2b00      	cmp	r3, #0
20008d8a:	d14a      	bne.n	20008e22 <__divdi3+0xb6>
20008d8c:	428a      	cmp	r2, r1
20008d8e:	d957      	bls.n	20008e40 <__divdi3+0xd4>
20008d90:	fab2 f382 	clz	r3, r2
20008d94:	b153      	cbz	r3, 20008dac <__divdi3+0x40>
20008d96:	f1c3 0020 	rsb	r0, r3, #32
20008d9a:	fa01 f903 	lsl.w	r9, r1, r3
20008d9e:	fa25 f800 	lsr.w	r8, r5, r0
20008da2:	fa12 f403 	lsls.w	r4, r2, r3
20008da6:	409d      	lsls	r5, r3
20008da8:	ea48 0909 	orr.w	r9, r8, r9
20008dac:	0c27      	lsrs	r7, r4, #16
20008dae:	4648      	mov	r0, r9
20008db0:	4639      	mov	r1, r7
20008db2:	fa1f fb84 	uxth.w	fp, r4
20008db6:	f7ff f9df 	bl	20008178 <__aeabi_uidiv>
20008dba:	4639      	mov	r1, r7
20008dbc:	4682      	mov	sl, r0
20008dbe:	4648      	mov	r0, r9
20008dc0:	f7ff fb08 	bl	200083d4 <__aeabi_uidivmod>
20008dc4:	0c2a      	lsrs	r2, r5, #16
20008dc6:	fb0b f30a 	mul.w	r3, fp, sl
20008dca:	ea42 4901 	orr.w	r9, r2, r1, lsl #16
20008dce:	454b      	cmp	r3, r9
20008dd0:	d909      	bls.n	20008de6 <__divdi3+0x7a>
20008dd2:	eb19 0904 	adds.w	r9, r9, r4
20008dd6:	f10a 3aff 	add.w	sl, sl, #4294967295
20008dda:	d204      	bcs.n	20008de6 <__divdi3+0x7a>
20008ddc:	454b      	cmp	r3, r9
20008dde:	bf84      	itt	hi
20008de0:	f10a 3aff 	addhi.w	sl, sl, #4294967295
20008de4:	44a1      	addhi	r9, r4
20008de6:	ebc3 0909 	rsb	r9, r3, r9
20008dea:	4639      	mov	r1, r7
20008dec:	4648      	mov	r0, r9
20008dee:	b2ad      	uxth	r5, r5
20008df0:	f7ff f9c2 	bl	20008178 <__aeabi_uidiv>
20008df4:	4639      	mov	r1, r7
20008df6:	4680      	mov	r8, r0
20008df8:	4648      	mov	r0, r9
20008dfa:	f7ff faeb 	bl	200083d4 <__aeabi_uidivmod>
20008dfe:	fb0b fb08 	mul.w	fp, fp, r8
20008e02:	ea45 4501 	orr.w	r5, r5, r1, lsl #16
20008e06:	45ab      	cmp	fp, r5
20008e08:	d907      	bls.n	20008e1a <__divdi3+0xae>
20008e0a:	192d      	adds	r5, r5, r4
20008e0c:	f108 38ff 	add.w	r8, r8, #4294967295
20008e10:	d203      	bcs.n	20008e1a <__divdi3+0xae>
20008e12:	45ab      	cmp	fp, r5
20008e14:	bf88      	it	hi
20008e16:	f108 38ff 	addhi.w	r8, r8, #4294967295
20008e1a:	ea48 480a 	orr.w	r8, r8, sl, lsl #16
20008e1e:	2700      	movs	r7, #0
20008e20:	e003      	b.n	20008e2a <__divdi3+0xbe>
20008e22:	428b      	cmp	r3, r1
20008e24:	d957      	bls.n	20008ed6 <__divdi3+0x16a>
20008e26:	2700      	movs	r7, #0
20008e28:	46b8      	mov	r8, r7
20008e2a:	4642      	mov	r2, r8
20008e2c:	463b      	mov	r3, r7
20008e2e:	b116      	cbz	r6, 20008e36 <__divdi3+0xca>
20008e30:	4252      	negs	r2, r2
20008e32:	eb63 0343 	sbc.w	r3, r3, r3, lsl #1
20008e36:	4619      	mov	r1, r3
20008e38:	4610      	mov	r0, r2
20008e3a:	b005      	add	sp, #20
20008e3c:	e8bd 8ff0 	ldmia.w	sp!, {r4, r5, r6, r7, r8, r9, sl, fp, pc}
20008e40:	b922      	cbnz	r2, 20008e4c <__divdi3+0xe0>
20008e42:	4611      	mov	r1, r2
20008e44:	2001      	movs	r0, #1
20008e46:	f7ff f997 	bl	20008178 <__aeabi_uidiv>
20008e4a:	4604      	mov	r4, r0
20008e4c:	fab4 f884 	clz	r8, r4
20008e50:	f1b8 0f00 	cmp.w	r8, #0
20008e54:	d15e      	bne.n	20008f14 <__divdi3+0x1a8>
20008e56:	ebc4 0809 	rsb	r8, r4, r9
20008e5a:	0c27      	lsrs	r7, r4, #16
20008e5c:	fa1f f984 	uxth.w	r9, r4
20008e60:	2101      	movs	r1, #1
20008e62:	9102      	str	r1, [sp, #8]
20008e64:	4639      	mov	r1, r7
20008e66:	4640      	mov	r0, r8
20008e68:	f7ff f986 	bl	20008178 <__aeabi_uidiv>
20008e6c:	4639      	mov	r1, r7
20008e6e:	4682      	mov	sl, r0
20008e70:	4640      	mov	r0, r8
20008e72:	f7ff faaf 	bl	200083d4 <__aeabi_uidivmod>
20008e76:	ea4f 4815 	mov.w	r8, r5, lsr #16
20008e7a:	fb09 f30a 	mul.w	r3, r9, sl
20008e7e:	ea48 4b01 	orr.w	fp, r8, r1, lsl #16
20008e82:	455b      	cmp	r3, fp
20008e84:	d909      	bls.n	20008e9a <__divdi3+0x12e>
20008e86:	eb1b 0b04 	adds.w	fp, fp, r4
20008e8a:	f10a 3aff 	add.w	sl, sl, #4294967295
20008e8e:	d204      	bcs.n	20008e9a <__divdi3+0x12e>
20008e90:	455b      	cmp	r3, fp
20008e92:	bf84      	itt	hi
20008e94:	f10a 3aff 	addhi.w	sl, sl, #4294967295
20008e98:	44a3      	addhi	fp, r4
20008e9a:	ebc3 0b0b 	rsb	fp, r3, fp
20008e9e:	4639      	mov	r1, r7
20008ea0:	4658      	mov	r0, fp
20008ea2:	b2ad      	uxth	r5, r5
20008ea4:	f7ff f968 	bl	20008178 <__aeabi_uidiv>
20008ea8:	4639      	mov	r1, r7
20008eaa:	4680      	mov	r8, r0
20008eac:	4658      	mov	r0, fp
20008eae:	f7ff fa91 	bl	200083d4 <__aeabi_uidivmod>
20008eb2:	fb09 f908 	mul.w	r9, r9, r8
20008eb6:	ea45 4501 	orr.w	r5, r5, r1, lsl #16
20008eba:	45a9      	cmp	r9, r5
20008ebc:	d907      	bls.n	20008ece <__divdi3+0x162>
20008ebe:	192d      	adds	r5, r5, r4
20008ec0:	f108 38ff 	add.w	r8, r8, #4294967295
20008ec4:	d203      	bcs.n	20008ece <__divdi3+0x162>
20008ec6:	45a9      	cmp	r9, r5
20008ec8:	bf88      	it	hi
20008eca:	f108 38ff 	addhi.w	r8, r8, #4294967295
20008ece:	ea48 480a 	orr.w	r8, r8, sl, lsl #16
20008ed2:	9f02      	ldr	r7, [sp, #8]
20008ed4:	e7a9      	b.n	20008e2a <__divdi3+0xbe>
20008ed6:	fab3 f783 	clz	r7, r3
20008eda:	2f00      	cmp	r7, #0
20008edc:	d168      	bne.n	20008fb0 <__divdi3+0x244>
20008ede:	428b      	cmp	r3, r1
20008ee0:	bf2c      	ite	cs
20008ee2:	f04f 0900 	movcs.w	r9, #0
20008ee6:	f04f 0901 	movcc.w	r9, #1
20008eea:	4282      	cmp	r2, r0
20008eec:	bf8c      	ite	hi
20008eee:	464c      	movhi	r4, r9
20008ef0:	f049 0401 	orrls.w	r4, r9, #1
20008ef4:	2c00      	cmp	r4, #0
20008ef6:	d096      	beq.n	20008e26 <__divdi3+0xba>
20008ef8:	f04f 0801 	mov.w	r8, #1
20008efc:	e795      	b.n	20008e2a <__divdi3+0xbe>
20008efe:	4252      	negs	r2, r2
20008f00:	eb63 0343 	sbc.w	r3, r3, r3, lsl #1
20008f04:	43f6      	mvns	r6, r6
20008f06:	e73b      	b.n	20008d80 <__divdi3+0x14>
20008f08:	4240      	negs	r0, r0
20008f0a:	eb61 0141 	sbc.w	r1, r1, r1, lsl #1
20008f0e:	f04f 36ff 	mov.w	r6, #4294967295
20008f12:	e732      	b.n	20008d7a <__divdi3+0xe>
20008f14:	fa04 f408 	lsl.w	r4, r4, r8
20008f18:	f1c8 0720 	rsb	r7, r8, #32
20008f1c:	fa35 f307 	lsrs.w	r3, r5, r7
20008f20:	fa29 fa07 	lsr.w	sl, r9, r7
20008f24:	0c27      	lsrs	r7, r4, #16
20008f26:	fa09 fb08 	lsl.w	fp, r9, r8
20008f2a:	4639      	mov	r1, r7
20008f2c:	4650      	mov	r0, sl
20008f2e:	ea43 020b 	orr.w	r2, r3, fp
20008f32:	9202      	str	r2, [sp, #8]
20008f34:	f7ff f920 	bl	20008178 <__aeabi_uidiv>
20008f38:	4639      	mov	r1, r7
20008f3a:	fa1f f984 	uxth.w	r9, r4
20008f3e:	4683      	mov	fp, r0
20008f40:	4650      	mov	r0, sl
20008f42:	f7ff fa47 	bl	200083d4 <__aeabi_uidivmod>
20008f46:	9802      	ldr	r0, [sp, #8]
20008f48:	fb09 f20b 	mul.w	r2, r9, fp
20008f4c:	0c03      	lsrs	r3, r0, #16
20008f4e:	ea43 4301 	orr.w	r3, r3, r1, lsl #16
20008f52:	429a      	cmp	r2, r3
20008f54:	d904      	bls.n	20008f60 <__divdi3+0x1f4>
20008f56:	191b      	adds	r3, r3, r4
20008f58:	f10b 3bff 	add.w	fp, fp, #4294967295
20008f5c:	f0c0 80b1 	bcc.w	200090c2 <__divdi3+0x356>
20008f60:	1a9b      	subs	r3, r3, r2
20008f62:	4639      	mov	r1, r7
20008f64:	4618      	mov	r0, r3
20008f66:	9301      	str	r3, [sp, #4]
20008f68:	f7ff f906 	bl	20008178 <__aeabi_uidiv>
20008f6c:	9901      	ldr	r1, [sp, #4]
20008f6e:	4682      	mov	sl, r0
20008f70:	4608      	mov	r0, r1
20008f72:	4639      	mov	r1, r7
20008f74:	f7ff fa2e 	bl	200083d4 <__aeabi_uidivmod>
20008f78:	f8dd c008 	ldr.w	ip, [sp, #8]
20008f7c:	fb09 f30a 	mul.w	r3, r9, sl
20008f80:	fa1f f08c 	uxth.w	r0, ip
20008f84:	ea40 4201 	orr.w	r2, r0, r1, lsl #16
20008f88:	4293      	cmp	r3, r2
20008f8a:	d908      	bls.n	20008f9e <__divdi3+0x232>
20008f8c:	1912      	adds	r2, r2, r4
20008f8e:	f10a 3aff 	add.w	sl, sl, #4294967295
20008f92:	d204      	bcs.n	20008f9e <__divdi3+0x232>
20008f94:	4293      	cmp	r3, r2
20008f96:	bf84      	itt	hi
20008f98:	f10a 3aff 	addhi.w	sl, sl, #4294967295
20008f9c:	1912      	addhi	r2, r2, r4
20008f9e:	fa05 f508 	lsl.w	r5, r5, r8
20008fa2:	ea4a 4e0b 	orr.w	lr, sl, fp, lsl #16
20008fa6:	ebc3 0802 	rsb	r8, r3, r2
20008faa:	f8cd e008 	str.w	lr, [sp, #8]
20008fae:	e759      	b.n	20008e64 <__divdi3+0xf8>
20008fb0:	f1c7 0020 	rsb	r0, r7, #32
20008fb4:	fa03 fa07 	lsl.w	sl, r3, r7
20008fb8:	40c2      	lsrs	r2, r0
20008fba:	fa35 f300 	lsrs.w	r3, r5, r0
20008fbe:	ea42 0b0a 	orr.w	fp, r2, sl
20008fc2:	fa21 f800 	lsr.w	r8, r1, r0
20008fc6:	fa01 f907 	lsl.w	r9, r1, r7
20008fca:	4640      	mov	r0, r8
20008fcc:	ea4f 4a1b 	mov.w	sl, fp, lsr #16
20008fd0:	ea43 0109 	orr.w	r1, r3, r9
20008fd4:	9102      	str	r1, [sp, #8]
20008fd6:	4651      	mov	r1, sl
20008fd8:	fa1f f28b 	uxth.w	r2, fp
20008fdc:	9203      	str	r2, [sp, #12]
20008fde:	f7ff f8cb 	bl	20008178 <__aeabi_uidiv>
20008fe2:	4651      	mov	r1, sl
20008fe4:	4681      	mov	r9, r0
20008fe6:	4640      	mov	r0, r8
20008fe8:	f7ff f9f4 	bl	200083d4 <__aeabi_uidivmod>
20008fec:	9b03      	ldr	r3, [sp, #12]
20008fee:	f8dd c008 	ldr.w	ip, [sp, #8]
20008ff2:	fb03 f209 	mul.w	r2, r3, r9
20008ff6:	ea4f 401c 	mov.w	r0, ip, lsr #16
20008ffa:	fa14 f307 	lsls.w	r3, r4, r7
20008ffe:	ea40 4401 	orr.w	r4, r0, r1, lsl #16
20009002:	42a2      	cmp	r2, r4
20009004:	d904      	bls.n	20009010 <__divdi3+0x2a4>
20009006:	eb14 040b 	adds.w	r4, r4, fp
2000900a:	f109 39ff 	add.w	r9, r9, #4294967295
2000900e:	d352      	bcc.n	200090b6 <__divdi3+0x34a>
20009010:	1aa4      	subs	r4, r4, r2
20009012:	4651      	mov	r1, sl
20009014:	4620      	mov	r0, r4
20009016:	9301      	str	r3, [sp, #4]
20009018:	f7ff f8ae 	bl	20008178 <__aeabi_uidiv>
2000901c:	4651      	mov	r1, sl
2000901e:	4680      	mov	r8, r0
20009020:	4620      	mov	r0, r4
20009022:	f7ff f9d7 	bl	200083d4 <__aeabi_uidivmod>
20009026:	9803      	ldr	r0, [sp, #12]
20009028:	f8dd c008 	ldr.w	ip, [sp, #8]
2000902c:	fb00 f208 	mul.w	r2, r0, r8
20009030:	fa1f f38c 	uxth.w	r3, ip
20009034:	ea43 4001 	orr.w	r0, r3, r1, lsl #16
20009038:	9b01      	ldr	r3, [sp, #4]
2000903a:	4282      	cmp	r2, r0
2000903c:	d904      	bls.n	20009048 <__divdi3+0x2dc>
2000903e:	eb10 000b 	adds.w	r0, r0, fp
20009042:	f108 38ff 	add.w	r8, r8, #4294967295
20009046:	d330      	bcc.n	200090aa <__divdi3+0x33e>
20009048:	ea48 4809 	orr.w	r8, r8, r9, lsl #16
2000904c:	fa1f fc83 	uxth.w	ip, r3
20009050:	0c1b      	lsrs	r3, r3, #16
20009052:	1a80      	subs	r0, r0, r2
20009054:	fa1f fe88 	uxth.w	lr, r8
20009058:	ea4f 4a18 	mov.w	sl, r8, lsr #16
2000905c:	fb0c f90e 	mul.w	r9, ip, lr
20009060:	fb0c fc0a 	mul.w	ip, ip, sl
20009064:	fb03 c10e 	mla	r1, r3, lr, ip
20009068:	fb03 f20a 	mul.w	r2, r3, sl
2000906c:	eb01 4119 	add.w	r1, r1, r9, lsr #16
20009070:	458c      	cmp	ip, r1
20009072:	bf88      	it	hi
20009074:	f502 3280 	addhi.w	r2, r2, #65536	; 0x10000
20009078:	eb02 4e11 	add.w	lr, r2, r1, lsr #16
2000907c:	4570      	cmp	r0, lr
2000907e:	d310      	bcc.n	200090a2 <__divdi3+0x336>
20009080:	fa1f f989 	uxth.w	r9, r9
20009084:	fa05 f707 	lsl.w	r7, r5, r7
20009088:	eb09 4001 	add.w	r0, r9, r1, lsl #16
2000908c:	bf14      	ite	ne
2000908e:	2200      	movne	r2, #0
20009090:	2201      	moveq	r2, #1
20009092:	4287      	cmp	r7, r0
20009094:	bf2c      	ite	cs
20009096:	2700      	movcs	r7, #0
20009098:	f002 0701 	andcc.w	r7, r2, #1
2000909c:	2f00      	cmp	r7, #0
2000909e:	f43f aec4 	beq.w	20008e2a <__divdi3+0xbe>
200090a2:	f108 38ff 	add.w	r8, r8, #4294967295
200090a6:	2700      	movs	r7, #0
200090a8:	e6bf      	b.n	20008e2a <__divdi3+0xbe>
200090aa:	4282      	cmp	r2, r0
200090ac:	bf84      	itt	hi
200090ae:	4458      	addhi	r0, fp
200090b0:	f108 38ff 	addhi.w	r8, r8, #4294967295
200090b4:	e7c8      	b.n	20009048 <__divdi3+0x2dc>
200090b6:	42a2      	cmp	r2, r4
200090b8:	bf84      	itt	hi
200090ba:	f109 39ff 	addhi.w	r9, r9, #4294967295
200090be:	445c      	addhi	r4, fp
200090c0:	e7a6      	b.n	20009010 <__divdi3+0x2a4>
200090c2:	429a      	cmp	r2, r3
200090c4:	bf84      	itt	hi
200090c6:	f10b 3bff 	addhi.w	fp, fp, #4294967295
200090ca:	191b      	addhi	r3, r3, r4
200090cc:	e748      	b.n	20008f60 <__divdi3+0x1f4>
200090ce:	bf00      	nop

200090d0 <__udivdi3>:
200090d0:	e92d 4ff0 	stmdb	sp!, {r4, r5, r6, r7, r8, r9, sl, fp, lr}
200090d4:	460c      	mov	r4, r1
200090d6:	b083      	sub	sp, #12
200090d8:	4680      	mov	r8, r0
200090da:	4616      	mov	r6, r2
200090dc:	4689      	mov	r9, r1
200090de:	461f      	mov	r7, r3
200090e0:	4615      	mov	r5, r2
200090e2:	468a      	mov	sl, r1
200090e4:	2b00      	cmp	r3, #0
200090e6:	d14b      	bne.n	20009180 <__udivdi3+0xb0>
200090e8:	428a      	cmp	r2, r1
200090ea:	d95c      	bls.n	200091a6 <__udivdi3+0xd6>
200090ec:	fab2 f382 	clz	r3, r2
200090f0:	b15b      	cbz	r3, 2000910a <__udivdi3+0x3a>
200090f2:	f1c3 0020 	rsb	r0, r3, #32
200090f6:	fa01 fa03 	lsl.w	sl, r1, r3
200090fa:	fa28 f200 	lsr.w	r2, r8, r0
200090fe:	fa16 f503 	lsls.w	r5, r6, r3
20009102:	fa08 f803 	lsl.w	r8, r8, r3
20009106:	ea42 0a0a 	orr.w	sl, r2, sl
2000910a:	0c2e      	lsrs	r6, r5, #16
2000910c:	4650      	mov	r0, sl
2000910e:	4631      	mov	r1, r6
20009110:	b2af      	uxth	r7, r5
20009112:	f7ff f831 	bl	20008178 <__aeabi_uidiv>
20009116:	4631      	mov	r1, r6
20009118:	ea4f 4418 	mov.w	r4, r8, lsr #16
2000911c:	4681      	mov	r9, r0
2000911e:	4650      	mov	r0, sl
20009120:	f7ff f958 	bl	200083d4 <__aeabi_uidivmod>
20009124:	fb07 f309 	mul.w	r3, r7, r9
20009128:	ea44 4a01 	orr.w	sl, r4, r1, lsl #16
2000912c:	4553      	cmp	r3, sl
2000912e:	d909      	bls.n	20009144 <__udivdi3+0x74>
20009130:	eb1a 0a05 	adds.w	sl, sl, r5
20009134:	f109 39ff 	add.w	r9, r9, #4294967295
20009138:	d204      	bcs.n	20009144 <__udivdi3+0x74>
2000913a:	4553      	cmp	r3, sl
2000913c:	bf84      	itt	hi
2000913e:	f109 39ff 	addhi.w	r9, r9, #4294967295
20009142:	44aa      	addhi	sl, r5
20009144:	ebc3 0a0a 	rsb	sl, r3, sl
20009148:	4631      	mov	r1, r6
2000914a:	4650      	mov	r0, sl
2000914c:	fa1f f888 	uxth.w	r8, r8
20009150:	f7ff f812 	bl	20008178 <__aeabi_uidiv>
20009154:	4631      	mov	r1, r6
20009156:	4604      	mov	r4, r0
20009158:	4650      	mov	r0, sl
2000915a:	f7ff f93b 	bl	200083d4 <__aeabi_uidivmod>
2000915e:	fb07 f704 	mul.w	r7, r7, r4
20009162:	ea48 4801 	orr.w	r8, r8, r1, lsl #16
20009166:	4547      	cmp	r7, r8
20009168:	d906      	bls.n	20009178 <__udivdi3+0xa8>
2000916a:	3c01      	subs	r4, #1
2000916c:	eb18 0805 	adds.w	r8, r8, r5
20009170:	d202      	bcs.n	20009178 <__udivdi3+0xa8>
20009172:	4547      	cmp	r7, r8
20009174:	bf88      	it	hi
20009176:	3c01      	subhi	r4, #1
20009178:	ea44 4409 	orr.w	r4, r4, r9, lsl #16
2000917c:	2600      	movs	r6, #0
2000917e:	e05c      	b.n	2000923a <__udivdi3+0x16a>
20009180:	428b      	cmp	r3, r1
20009182:	d858      	bhi.n	20009236 <__udivdi3+0x166>
20009184:	fab3 f683 	clz	r6, r3
20009188:	2e00      	cmp	r6, #0
2000918a:	d15b      	bne.n	20009244 <__udivdi3+0x174>
2000918c:	428b      	cmp	r3, r1
2000918e:	bf2c      	ite	cs
20009190:	2200      	movcs	r2, #0
20009192:	2201      	movcc	r2, #1
20009194:	4285      	cmp	r5, r0
20009196:	bf8c      	ite	hi
20009198:	4615      	movhi	r5, r2
2000919a:	f042 0501 	orrls.w	r5, r2, #1
2000919e:	2d00      	cmp	r5, #0
200091a0:	d049      	beq.n	20009236 <__udivdi3+0x166>
200091a2:	2401      	movs	r4, #1
200091a4:	e049      	b.n	2000923a <__udivdi3+0x16a>
200091a6:	b922      	cbnz	r2, 200091b2 <__udivdi3+0xe2>
200091a8:	4611      	mov	r1, r2
200091aa:	2001      	movs	r0, #1
200091ac:	f7fe ffe4 	bl	20008178 <__aeabi_uidiv>
200091b0:	4605      	mov	r5, r0
200091b2:	fab5 f685 	clz	r6, r5
200091b6:	2e00      	cmp	r6, #0
200091b8:	f040 80ba 	bne.w	20009330 <__udivdi3+0x260>
200091bc:	1b64      	subs	r4, r4, r5
200091be:	0c2f      	lsrs	r7, r5, #16
200091c0:	fa1f fa85 	uxth.w	sl, r5
200091c4:	2601      	movs	r6, #1
200091c6:	4639      	mov	r1, r7
200091c8:	4620      	mov	r0, r4
200091ca:	f7fe ffd5 	bl	20008178 <__aeabi_uidiv>
200091ce:	4639      	mov	r1, r7
200091d0:	ea4f 4b18 	mov.w	fp, r8, lsr #16
200091d4:	4681      	mov	r9, r0
200091d6:	4620      	mov	r0, r4
200091d8:	f7ff f8fc 	bl	200083d4 <__aeabi_uidivmod>
200091dc:	fb0a f309 	mul.w	r3, sl, r9
200091e0:	ea4b 4b01 	orr.w	fp, fp, r1, lsl #16
200091e4:	455b      	cmp	r3, fp
200091e6:	d909      	bls.n	200091fc <__udivdi3+0x12c>
200091e8:	eb1b 0b05 	adds.w	fp, fp, r5
200091ec:	f109 39ff 	add.w	r9, r9, #4294967295
200091f0:	d204      	bcs.n	200091fc <__udivdi3+0x12c>
200091f2:	455b      	cmp	r3, fp
200091f4:	bf84      	itt	hi
200091f6:	f109 39ff 	addhi.w	r9, r9, #4294967295
200091fa:	44ab      	addhi	fp, r5
200091fc:	ebc3 0b0b 	rsb	fp, r3, fp
20009200:	4639      	mov	r1, r7
20009202:	4658      	mov	r0, fp
20009204:	fa1f f888 	uxth.w	r8, r8
20009208:	f7fe ffb6 	bl	20008178 <__aeabi_uidiv>
2000920c:	4639      	mov	r1, r7
2000920e:	4604      	mov	r4, r0
20009210:	4658      	mov	r0, fp
20009212:	f7ff f8df 	bl	200083d4 <__aeabi_uidivmod>
20009216:	fb0a fa04 	mul.w	sl, sl, r4
2000921a:	ea48 4801 	orr.w	r8, r8, r1, lsl #16
2000921e:	45c2      	cmp	sl, r8
20009220:	d906      	bls.n	20009230 <__udivdi3+0x160>
20009222:	3c01      	subs	r4, #1
20009224:	eb18 0805 	adds.w	r8, r8, r5
20009228:	d202      	bcs.n	20009230 <__udivdi3+0x160>
2000922a:	45c2      	cmp	sl, r8
2000922c:	bf88      	it	hi
2000922e:	3c01      	subhi	r4, #1
20009230:	ea44 4409 	orr.w	r4, r4, r9, lsl #16
20009234:	e001      	b.n	2000923a <__udivdi3+0x16a>
20009236:	2600      	movs	r6, #0
20009238:	4634      	mov	r4, r6
2000923a:	4631      	mov	r1, r6
2000923c:	4620      	mov	r0, r4
2000923e:	b003      	add	sp, #12
20009240:	e8bd 8ff0 	ldmia.w	sp!, {r4, r5, r6, r7, r8, r9, sl, fp, pc}
20009244:	f1c6 0020 	rsb	r0, r6, #32
20009248:	40b3      	lsls	r3, r6
2000924a:	fa32 f700 	lsrs.w	r7, r2, r0
2000924e:	fa21 fb00 	lsr.w	fp, r1, r0
20009252:	431f      	orrs	r7, r3
20009254:	fa14 f206 	lsls.w	r2, r4, r6
20009258:	fa28 f100 	lsr.w	r1, r8, r0
2000925c:	4658      	mov	r0, fp
2000925e:	ea4f 4a17 	mov.w	sl, r7, lsr #16
20009262:	4311      	orrs	r1, r2
20009264:	9100      	str	r1, [sp, #0]
20009266:	4651      	mov	r1, sl
20009268:	b2bb      	uxth	r3, r7
2000926a:	9301      	str	r3, [sp, #4]
2000926c:	f7fe ff84 	bl	20008178 <__aeabi_uidiv>
20009270:	4651      	mov	r1, sl
20009272:	40b5      	lsls	r5, r6
20009274:	4681      	mov	r9, r0
20009276:	4658      	mov	r0, fp
20009278:	f7ff f8ac 	bl	200083d4 <__aeabi_uidivmod>
2000927c:	9c01      	ldr	r4, [sp, #4]
2000927e:	9800      	ldr	r0, [sp, #0]
20009280:	fb04 f309 	mul.w	r3, r4, r9
20009284:	ea4f 4c10 	mov.w	ip, r0, lsr #16
20009288:	ea4c 4b01 	orr.w	fp, ip, r1, lsl #16
2000928c:	455b      	cmp	r3, fp
2000928e:	d905      	bls.n	2000929c <__udivdi3+0x1cc>
20009290:	eb1b 0b07 	adds.w	fp, fp, r7
20009294:	f109 39ff 	add.w	r9, r9, #4294967295
20009298:	f0c0 808e 	bcc.w	200093b8 <__udivdi3+0x2e8>
2000929c:	ebc3 0b0b 	rsb	fp, r3, fp
200092a0:	4651      	mov	r1, sl
200092a2:	4658      	mov	r0, fp
200092a4:	f7fe ff68 	bl	20008178 <__aeabi_uidiv>
200092a8:	4651      	mov	r1, sl
200092aa:	4604      	mov	r4, r0
200092ac:	4658      	mov	r0, fp
200092ae:	f7ff f891 	bl	200083d4 <__aeabi_uidivmod>
200092b2:	9801      	ldr	r0, [sp, #4]
200092b4:	9a00      	ldr	r2, [sp, #0]
200092b6:	fb00 f304 	mul.w	r3, r0, r4
200092ba:	fa1f fc82 	uxth.w	ip, r2
200092be:	ea4c 4201 	orr.w	r2, ip, r1, lsl #16
200092c2:	4293      	cmp	r3, r2
200092c4:	d906      	bls.n	200092d4 <__udivdi3+0x204>
200092c6:	3c01      	subs	r4, #1
200092c8:	19d2      	adds	r2, r2, r7
200092ca:	d203      	bcs.n	200092d4 <__udivdi3+0x204>
200092cc:	4293      	cmp	r3, r2
200092ce:	d901      	bls.n	200092d4 <__udivdi3+0x204>
200092d0:	19d2      	adds	r2, r2, r7
200092d2:	3c01      	subs	r4, #1
200092d4:	ea44 4409 	orr.w	r4, r4, r9, lsl #16
200092d8:	b2a8      	uxth	r0, r5
200092da:	1ad2      	subs	r2, r2, r3
200092dc:	0c2d      	lsrs	r5, r5, #16
200092de:	fa1f fc84 	uxth.w	ip, r4
200092e2:	0c23      	lsrs	r3, r4, #16
200092e4:	fb00 f70c 	mul.w	r7, r0, ip
200092e8:	fb00 fe03 	mul.w	lr, r0, r3
200092ec:	fb05 e10c 	mla	r1, r5, ip, lr
200092f0:	fb05 f503 	mul.w	r5, r5, r3
200092f4:	eb01 4117 	add.w	r1, r1, r7, lsr #16
200092f8:	458e      	cmp	lr, r1
200092fa:	bf88      	it	hi
200092fc:	f505 3580 	addhi.w	r5, r5, #65536	; 0x10000
20009300:	eb05 4511 	add.w	r5, r5, r1, lsr #16
20009304:	42aa      	cmp	r2, r5
20009306:	d310      	bcc.n	2000932a <__udivdi3+0x25a>
20009308:	b2bf      	uxth	r7, r7
2000930a:	fa08 f606 	lsl.w	r6, r8, r6
2000930e:	eb07 4201 	add.w	r2, r7, r1, lsl #16
20009312:	bf14      	ite	ne
20009314:	f04f 0e00 	movne.w	lr, #0
20009318:	f04f 0e01 	moveq.w	lr, #1
2000931c:	4296      	cmp	r6, r2
2000931e:	bf2c      	ite	cs
20009320:	2600      	movcs	r6, #0
20009322:	f00e 0601 	andcc.w	r6, lr, #1
20009326:	2e00      	cmp	r6, #0
20009328:	d087      	beq.n	2000923a <__udivdi3+0x16a>
2000932a:	3c01      	subs	r4, #1
2000932c:	2600      	movs	r6, #0
2000932e:	e784      	b.n	2000923a <__udivdi3+0x16a>
20009330:	40b5      	lsls	r5, r6
20009332:	f1c6 0120 	rsb	r1, r6, #32
20009336:	fa24 f901 	lsr.w	r9, r4, r1
2000933a:	fa28 f201 	lsr.w	r2, r8, r1
2000933e:	0c2f      	lsrs	r7, r5, #16
20009340:	40b4      	lsls	r4, r6
20009342:	4639      	mov	r1, r7
20009344:	4648      	mov	r0, r9
20009346:	4322      	orrs	r2, r4
20009348:	9200      	str	r2, [sp, #0]
2000934a:	f7fe ff15 	bl	20008178 <__aeabi_uidiv>
2000934e:	4639      	mov	r1, r7
20009350:	fa1f fa85 	uxth.w	sl, r5
20009354:	4683      	mov	fp, r0
20009356:	4648      	mov	r0, r9
20009358:	f7ff f83c 	bl	200083d4 <__aeabi_uidivmod>
2000935c:	9b00      	ldr	r3, [sp, #0]
2000935e:	0c1a      	lsrs	r2, r3, #16
20009360:	fb0a f30b 	mul.w	r3, sl, fp
20009364:	ea42 4401 	orr.w	r4, r2, r1, lsl #16
20009368:	42a3      	cmp	r3, r4
2000936a:	d903      	bls.n	20009374 <__udivdi3+0x2a4>
2000936c:	1964      	adds	r4, r4, r5
2000936e:	f10b 3bff 	add.w	fp, fp, #4294967295
20009372:	d327      	bcc.n	200093c4 <__udivdi3+0x2f4>
20009374:	1ae4      	subs	r4, r4, r3
20009376:	4639      	mov	r1, r7
20009378:	4620      	mov	r0, r4
2000937a:	f7fe fefd 	bl	20008178 <__aeabi_uidiv>
2000937e:	4639      	mov	r1, r7
20009380:	4681      	mov	r9, r0
20009382:	4620      	mov	r0, r4
20009384:	f7ff f826 	bl	200083d4 <__aeabi_uidivmod>
20009388:	9800      	ldr	r0, [sp, #0]
2000938a:	fb0a f309 	mul.w	r3, sl, r9
2000938e:	fa1f fc80 	uxth.w	ip, r0
20009392:	ea4c 4401 	orr.w	r4, ip, r1, lsl #16
20009396:	42a3      	cmp	r3, r4
20009398:	d908      	bls.n	200093ac <__udivdi3+0x2dc>
2000939a:	1964      	adds	r4, r4, r5
2000939c:	f109 39ff 	add.w	r9, r9, #4294967295
200093a0:	d204      	bcs.n	200093ac <__udivdi3+0x2dc>
200093a2:	42a3      	cmp	r3, r4
200093a4:	bf84      	itt	hi
200093a6:	f109 39ff 	addhi.w	r9, r9, #4294967295
200093aa:	1964      	addhi	r4, r4, r5
200093ac:	fa08 f806 	lsl.w	r8, r8, r6
200093b0:	1ae4      	subs	r4, r4, r3
200093b2:	ea49 460b 	orr.w	r6, r9, fp, lsl #16
200093b6:	e706      	b.n	200091c6 <__udivdi3+0xf6>
200093b8:	455b      	cmp	r3, fp
200093ba:	bf84      	itt	hi
200093bc:	f109 39ff 	addhi.w	r9, r9, #4294967295
200093c0:	44bb      	addhi	fp, r7
200093c2:	e76b      	b.n	2000929c <__udivdi3+0x1cc>
200093c4:	42a3      	cmp	r3, r4
200093c6:	bf84      	itt	hi
200093c8:	f10b 3bff 	addhi.w	fp, fp, #4294967295
200093cc:	1964      	addhi	r4, r4, r5
200093ce:	e7d1      	b.n	20009374 <__udivdi3+0x2a4>

200093d0 <C.37.4212>:
200093d0:	0080 0000 0042 0000 0000 0000 0000 0000     ....B...........
	...

200093f4 <C.36.4211>:
200093f4:	0080 0000 0042 0000 0000 0000 00ff 0000     ....B...........
20009404:	00ff 0000 4441 4443 7269 6365 4974 706e     ....ADCDirectInp
20009414:	7475 325f 0000 0000 4441 4443 7269 6365     ut_2....ADCDirec
20009424:	4974 706e 7475 335f 0000 0000 4441 4443     tInput_3....ADCD
20009434:	7269 6365 4974 706e 7475 345f 0000 0000     irectInput_4....
20009444:	4441 4443 7269 6365 4974 706e 7475 355f     ADCDirectInput_5
20009454:	0000 0000 6425 2520 2064 6425 2520 0d64     ....%d %d %d %d.
20009464:	000a 0000 6548 7061 6120 646e 7320 6174     ....Heap and sta
20009474:	6b63 6320 6c6f 696c 6973 6e6f 000a 0000     ck collision....

20009484 <g_config_reg_lut>:
20009484:	3000 4001 3004 4001 3008 4001 300c 4001     .0.@.0.@.0.@.0.@
20009494:	3010 4001 3014 4001 3018 4001 301c 4001     .0.@.0.@.0.@.0.@
200094a4:	3020 4001 3024 4001 3028 4001 302c 4001      0.@$0.@(0.@,0.@
200094b4:	3030 4001 3034 4001 3038 4001 303c 4001     00.@40.@80.@<0.@
200094c4:	3040 4001 3044 4001 3048 4001 304c 4001     @0.@D0.@H0.@L0.@
200094d4:	3050 4001 3054 4001 3058 4001 305c 4001     P0.@T0.@X0.@\0.@
200094e4:	3060 4001 3064 4001 3068 4001 306c 4001     `0.@d0.@h0.@l0.@
200094f4:	3070 4001 3074 4001 3078 4001 307c 4001     p0.@t0.@x0.@|0.@

20009504 <g_gpio_irqn_lut>:
20009504:	0020 0021 0022 0023 0024 0025 0026 0027      .!.".#.$.%.&.'.
20009514:	0028 0029 002a 002b 002c 002d 002e 002f     (.).*.+.,.-.../.
20009524:	0030 0031 0032 0033 0034 0035 0036 0037     0.1.2.3.4.5.6.7.
20009534:	0038 0039 003a 003b 003c 003d 003e 003f     8.9.:.;.<.=.>.?.

20009544 <C.18.2576>:
20009544:	0001 0000 0002 0000 0004 0000 0001 0000     ................

20009554 <g_ace_channel_0_name>:
20009554:	4441 4443 7269 6365 4974 706e 7475 325f     ADCDirectInput_2
20009564:	0000 0000                                   ....

20009568 <g_ace_channel_1_name>:
20009568:	4441 4443 7269 6365 4974 706e 7475 335f     ADCDirectInput_3
20009578:	0000 0000                                   ....

2000957c <g_ace_channel_2_name>:
2000957c:	4441 4443 7269 6365 4974 706e 7475 345f     ADCDirectInput_4
2000958c:	0000 0000                                   ....

20009590 <g_ace_channel_3_name>:
20009590:	4441 4443 7269 6365 4974 706e 7475 355f     ADCDirectInput_5
200095a0:	0000 0000                                   ....

200095a4 <channel_type_lut>:
200095a4:	0000 0100 0002 0100 0002 0000 ff00 00ff     ................
200095b4:	0000 0100 0002 0100 0002 0000 ff00 00ff     ................
200095c4:	0000 0100 ff02 ffff 00ff 0000 ff00 00ff     ................

200095d4 <channel_quad_lut>:
200095d4:	00ff 0000 0100 0101 ff01 ffff ffff ffff     ................
200095e4:	02ff 0202 0302 0303 ff03 ffff ffff ffff     ................
200095f4:	04ff 0404 ff04 ffff ffff ffff ffff ffff     ................

20009604 <_global_impure_ptr>:
20009604:	98f0 2000 0043 0000                         ... C...

2000960c <blanks.3577>:
2000960c:	2020 2020 2020 2020 2020 2020 2020 2020                     

2000961c <zeroes.3578>:
2000961c:	3030 3030 3030 3030 3030 3030 3030 3030     0000000000000000
2000962c:	3130 3332 3534 3736 3938 4241 4443 4645     0123456789ABCDEF
2000963c:	0000 0000 4e49 0046 6e69 0066 414e 004e     ....INF.inf.NAN.
2000964c:	616e 006e 3130 3332 3534 3736 3938 6261     nan.0123456789ab
2000965c:	6463 6665 0000 0000 6e28 6c75 296c 0000     cdef....(null)..
2000966c:	0030 0000 6e49 6966 696e 7974 0000 0000     0...Infinity....
2000967c:	614e 004e                                   NaN.

20009680 <__sf_fake_stdin>:
	...

200096a0 <__sf_fake_stdout>:
	...

200096c0 <__sf_fake_stderr>:
	...

200096e0 <charset>:
200096e0:	9718 2000                                   ... 

200096e4 <lconv>:
200096e4:	9714 2000 9418 2000 9418 2000 9418 2000     ... ... ... ... 
200096f4:	9418 2000 9418 2000 9418 2000 9418 2000     ... ... ... ... 
20009704:	9418 2000 9418 2000 ffff ffff ffff ffff     ... ... ........
20009714:	002e 0000 5349 2d4f 3838 3935 312d 0000     ....ISO-8859-1..
20009724:	0000 0000                                   ....

20009728 <__mprec_tens>:
20009728:	0000 0000 0000 3ff0 0000 0000 0000 4024     .......?......$@
20009738:	0000 0000 0000 4059 0000 0000 4000 408f     ......Y@.....@.@
20009748:	0000 0000 8800 40c3 0000 0000 6a00 40f8     .......@.....j.@
20009758:	0000 0000 8480 412e 0000 0000 12d0 4163     .......A......cA
20009768:	0000 0000 d784 4197 0000 0000 cd65 41cd     .......A....e..A
20009778:	0000 2000 a05f 4202 0000 e800 4876 4237     ... _..B....vH7B
20009788:	0000 a200 1a94 426d 0000 e540 309c 42a2     ......mB..@..0.B
20009798:	0000 1e90 bcc4 42d6 0000 2634 6bf5 430c     .......B..4&.k.C
200097a8:	8000 37e0 c379 4341 a000 85d8 3457 4376     ...7y.AC....W4vC
200097b8:	c800 674e c16d 43ab 3d00 6091 58e4 43e1     ..Ngm..C.=.`.X.C
200097c8:	8c40 78b5 af1d 4415 ef50 d6e2 1ae4 444b     @..x...DP.....KD
200097d8:	d592 064d f0cf 4480 4af6 c7e1 2d02 44b5     ..M....D.J...-.D
200097e8:	9db4 79d9 7843 44ea                         ...yCx.D

200097f0 <p05.2463>:
200097f0:	0005 0000 0019 0000 007d 0000 0000 0000     ........}.......

20009800 <__mprec_bigtens>:
20009800:	8000 37e0 c379 4341 6e17 b505 b8b5 4693     ...7y.AC.n.....F
20009810:	f9f5 e93f 4f03 4d38 1d32 f930 7748 5a82     ..?..O8M2.0.Hw.Z
20009820:	bf3c 7f73 4fdd 7515                         <.s..O.u

20009828 <__mprec_tinytens>:
20009828:	89bc 97d8 d2b2 3c9c a733 d5a8 f623 3949     .......<3...#.I9
20009838:	a73d 44f4 0ffd 32a5 979d cf8c ba08 255b     =..D...2......[%
20009848:	6f43 64ac 0628 0ac8                         Co.d(...

20009850 <_init>:
20009850:	b5f8      	push	{r3, r4, r5, r6, r7, lr}
20009852:	bf00      	nop
20009854:	bcf8      	pop	{r3, r4, r5, r6, r7}
20009856:	bc08      	pop	{r3}
20009858:	469e      	mov	lr, r3
2000985a:	4770      	bx	lr

2000985c <_fini>:
2000985c:	b5f8      	push	{r3, r4, r5, r6, r7, lr}
2000985e:	bf00      	nop
20009860:	bcf8      	pop	{r3, r4, r5, r6, r7}
20009862:	bc08      	pop	{r3}
20009864:	469e      	mov	lr, r3
20009866:	4770      	bx	lr

20009868 <__frame_dummy_init_array_entry>:
20009868:	0485 2000                                   ... 

2000986c <__do_global_dtors_aux_fini_array_entry>:
2000986c:	0471 2000                                   q.. 
